

Microchip MPLAB XC8 Assembler V2.31 build 20201012212115 
                                                                                               Mon Sep 06 10:38:29 2021

Microchip MPLAB XC8 C Compiler v2.31 (Free license) build 20201012212115 Og1 
     1                           	processor	16F887
     2                           	pagewidth 120
     3                           	opt	flic
     4                           	psect	cinit,global,class=CODE,merge=1,delta=2
     5                           	psect	bssCOMMON,global,class=COMMON,space=1,delta=1,noexec
     6                           	psect	bssBANK0,global,class=BANK0,space=1,delta=1,noexec
     7                           	psect	bssBANK1,global,class=BANK1,space=1,delta=1,noexec
     8                           	psect	clrtext,global,class=CODE,delta=2
     9                           	psect	cstackCOMMON,global,class=COMMON,space=1,delta=1,noexec
    10                           	psect	cstackBANK0,global,class=BANK0,space=1,delta=1,noexec
    11                           	psect	maintext,global,class=CODE,split=1,delta=2
    12                           	psect	text1,local,class=CODE,merge=1,delta=2
    13                           	psect	text2,local,class=CODE,merge=1,delta=2
    14                           	psect	text3,local,class=CODE,merge=1,delta=2,group=1
    15                           	psect	text4,local,class=CODE,merge=1,delta=2,group=1
    16                           	psect	text5,local,class=CODE,merge=1,delta=2,group=1
    17                           	psect	text6,local,class=CODE,merge=1,delta=2,group=1
    18                           	psect	text7,local,class=CODE,merge=1,delta=2,group=1
    19                           	psect	text8,local,class=CODE,merge=1,delta=2
    20                           	psect	text9,local,class=CODE,merge=1,delta=2
    21                           	psect	text10,local,class=CODE,merge=1,delta=2
    22                           	psect	text11,local,class=CODE,merge=1,delta=2
    23                           	psect	intentry,global,class=CODE,delta=2
    24                           	psect	config,global,abs,ovrld,class=CONFIG,space=4,delta=2,noexec
    25                           	dabs	1,0x7E,2
    26  0000                     
    27                           ; Version 2.20
    28                           ; Generated 12/02/2020 GMT
    29                           ; 
    30                           ; Copyright © 2020, Microchip Technology Inc. and its subsidiaries ("Microchip")
    31                           ; All rights reserved.
    32                           ; 
    33                           ; This software is developed by Microchip Technology Inc. and its subsidiaries ("Microch
      +                          ip").
    34                           ; 
    35                           ; Redistribution and use in source and binary forms, with or without modification, are
    36                           ; permitted provided that the following conditions are met:
    37                           ; 
    38                           ;     1. Redistributions of source code must retain the above copyright notice, this lis
      +                          t of
    39                           ;        conditions and the following disclaimer.
    40                           ; 
    41                           ;     2. Redistributions in binary form must reproduce the above copyright notice, this 
      +                          list
    42                           ;        of conditions and the following disclaimer in the documentation and/or other
    43                           ;        materials provided with the distribution.
    44                           ; 
    45                           ;     3. Microchip's name may not be used to endorse or promote products derived from th
      +                          is
    46                           ;        software without specific prior written permission.
    47                           ; 
    48                           ; THIS SOFTWARE IS PROVIDED BY MICROCHIP "AS IS" AND ANY EXPRESS OR IMPLIED WARRANTIES,
    49                           ; INCLUDING, BUT NOT LIMITED TO, THE IMPLIED WARRANTIES OF MERCHANTABILITY AND FITNESS F
      +                          OR
    50                           ; PURPOSE ARE DISCLAIMED.  IN NO EVENT SHALL MICROCHIP BE LIABLE FOR ANY DIRECT, INDIREC
      +                          T,
    51                           ; INCIDENTAL, SPECIAL, EXEMPLARY, OR CONSEQUENTIAL DAMAGES (INCLUDING BUT NOT LIMITED TO
    52                           ; PROCUREMENT OF SUBSTITUTE GOODS OR SERVICES; LOSS OF USE, DATA OR PROFITS; OR BUSINESS
    53                           ; INTERRUPTION) HOWSOEVER CAUSED AND ON ANY THEORY OF LIABILITY, WHETHER IN CONTRACT, ST
      +                          RICT
    54                           ; LIABILITY, OR TORT (INCLUDING NEGLIGENCE OR OTHERWISE) ARISING IN ANY WAY OUT OF THE U
      +                          SE OF
    55                           ; THIS SOFTWARE, EVEN IF ADVISED OF THE POSSIBILITY OF SUCH DAMAGE.
    56                           ; 
    57                           ; 
    58                           ; Code-generator required, PIC16F887 Definitions
    59                           ; 
    60                           ; SFR Addresses
    61  0000                     	;# 
    62  0001                     	;# 
    63  0002                     	;# 
    64  0003                     	;# 
    65  0004                     	;# 
    66  0005                     	;# 
    67  0006                     	;# 
    68  0007                     	;# 
    69  0008                     	;# 
    70  0009                     	;# 
    71  000A                     	;# 
    72  000B                     	;# 
    73  000C                     	;# 
    74  000D                     	;# 
    75  000E                     	;# 
    76  000E                     	;# 
    77  000F                     	;# 
    78  0010                     	;# 
    79  0011                     	;# 
    80  0012                     	;# 
    81  0013                     	;# 
    82  0014                     	;# 
    83  0015                     	;# 
    84  0015                     	;# 
    85  0016                     	;# 
    86  0017                     	;# 
    87  0018                     	;# 
    88  0019                     	;# 
    89  001A                     	;# 
    90  001B                     	;# 
    91  001B                     	;# 
    92  001C                     	;# 
    93  001D                     	;# 
    94  001E                     	;# 
    95  001F                     	;# 
    96  0081                     	;# 
    97  0085                     	;# 
    98  0086                     	;# 
    99  0087                     	;# 
   100  0088                     	;# 
   101  0089                     	;# 
   102  008C                     	;# 
   103  008D                     	;# 
   104  008E                     	;# 
   105  008F                     	;# 
   106  0090                     	;# 
   107  0091                     	;# 
   108  0092                     	;# 
   109  0093                     	;# 
   110  0093                     	;# 
   111  0093                     	;# 
   112  0094                     	;# 
   113  0095                     	;# 
   114  0096                     	;# 
   115  0097                     	;# 
   116  0098                     	;# 
   117  0099                     	;# 
   118  009A                     	;# 
   119  009B                     	;# 
   120  009C                     	;# 
   121  009D                     	;# 
   122  009E                     	;# 
   123  009F                     	;# 
   124  0105                     	;# 
   125  0107                     	;# 
   126  0108                     	;# 
   127  0109                     	;# 
   128  010C                     	;# 
   129  010C                     	;# 
   130  010D                     	;# 
   131  010E                     	;# 
   132  010F                     	;# 
   133  0185                     	;# 
   134  0187                     	;# 
   135  0188                     	;# 
   136  0189                     	;# 
   137  018C                     	;# 
   138  018D                     	;# 
   139  0000                     	;# 
   140  0001                     	;# 
   141  0002                     	;# 
   142  0003                     	;# 
   143  0004                     	;# 
   144  0005                     	;# 
   145  0006                     	;# 
   146  0007                     	;# 
   147  0008                     	;# 
   148  0009                     	;# 
   149  000A                     	;# 
   150  000B                     	;# 
   151  000C                     	;# 
   152  000D                     	;# 
   153  000E                     	;# 
   154  000E                     	;# 
   155  000F                     	;# 
   156  0010                     	;# 
   157  0011                     	;# 
   158  0012                     	;# 
   159  0013                     	;# 
   160  0014                     	;# 
   161  0015                     	;# 
   162  0015                     	;# 
   163  0016                     	;# 
   164  0017                     	;# 
   165  0018                     	;# 
   166  0019                     	;# 
   167  001A                     	;# 
   168  001B                     	;# 
   169  001B                     	;# 
   170  001C                     	;# 
   171  001D                     	;# 
   172  001E                     	;# 
   173  001F                     	;# 
   174  0081                     	;# 
   175  0085                     	;# 
   176  0086                     	;# 
   177  0087                     	;# 
   178  0088                     	;# 
   179  0089                     	;# 
   180  008C                     	;# 
   181  008D                     	;# 
   182  008E                     	;# 
   183  008F                     	;# 
   184  0090                     	;# 
   185  0091                     	;# 
   186  0092                     	;# 
   187  0093                     	;# 
   188  0093                     	;# 
   189  0093                     	;# 
   190  0094                     	;# 
   191  0095                     	;# 
   192  0096                     	;# 
   193  0097                     	;# 
   194  0098                     	;# 
   195  0099                     	;# 
   196  009A                     	;# 
   197  009B                     	;# 
   198  009C                     	;# 
   199  009D                     	;# 
   200  009E                     	;# 
   201  009F                     	;# 
   202  0105                     	;# 
   203  0107                     	;# 
   204  0108                     	;# 
   205  0109                     	;# 
   206  010C                     	;# 
   207  010C                     	;# 
   208  010D                     	;# 
   209  010E                     	;# 
   210  010F                     	;# 
   211  0185                     	;# 
   212  0187                     	;# 
   213  0188                     	;# 
   214  0189                     	;# 
   215  018C                     	;# 
   216  018D                     	;# 
   217  0000                     	;# 
   218  0001                     	;# 
   219  0002                     	;# 
   220  0003                     	;# 
   221  0004                     	;# 
   222  0005                     	;# 
   223  0006                     	;# 
   224  0007                     	;# 
   225  0008                     	;# 
   226  0009                     	;# 
   227  000A                     	;# 
   228  000B                     	;# 
   229  000C                     	;# 
   230  000D                     	;# 
   231  000E                     	;# 
   232  000E                     	;# 
   233  000F                     	;# 
   234  0010                     	;# 
   235  0011                     	;# 
   236  0012                     	;# 
   237  0013                     	;# 
   238  0014                     	;# 
   239  0015                     	;# 
   240  0015                     	;# 
   241  0016                     	;# 
   242  0017                     	;# 
   243  0018                     	;# 
   244  0019                     	;# 
   245  001A                     	;# 
   246  001B                     	;# 
   247  001B                     	;# 
   248  001C                     	;# 
   249  001D                     	;# 
   250  001E                     	;# 
   251  001F                     	;# 
   252  0081                     	;# 
   253  0085                     	;# 
   254  0086                     	;# 
   255  0087                     	;# 
   256  0088                     	;# 
   257  0089                     	;# 
   258  008C                     	;# 
   259  008D                     	;# 
   260  008E                     	;# 
   261  008F                     	;# 
   262  0090                     	;# 
   263  0091                     	;# 
   264  0092                     	;# 
   265  0093                     	;# 
   266  0093                     	;# 
   267  0093                     	;# 
   268  0094                     	;# 
   269  0095                     	;# 
   270  0096                     	;# 
   271  0097                     	;# 
   272  0098                     	;# 
   273  0099                     	;# 
   274  009A                     	;# 
   275  009B                     	;# 
   276  009C                     	;# 
   277  009D                     	;# 
   278  009E                     	;# 
   279  009F                     	;# 
   280  0105                     	;# 
   281  0107                     	;# 
   282  0108                     	;# 
   283  0109                     	;# 
   284  010C                     	;# 
   285  010C                     	;# 
   286  010D                     	;# 
   287  010E                     	;# 
   288  010F                     	;# 
   289  0185                     	;# 
   290  0187                     	;# 
   291  0188                     	;# 
   292  0189                     	;# 
   293  018C                     	;# 
   294  018D                     	;# 
   295  0000                     	;# 
   296  0001                     	;# 
   297  0002                     	;# 
   298  0003                     	;# 
   299  0004                     	;# 
   300  0005                     	;# 
   301  0006                     	;# 
   302  0007                     	;# 
   303  0008                     	;# 
   304  0009                     	;# 
   305  000A                     	;# 
   306  000B                     	;# 
   307  000C                     	;# 
   308  000D                     	;# 
   309  000E                     	;# 
   310  000E                     	;# 
   311  000F                     	;# 
   312  0010                     	;# 
   313  0011                     	;# 
   314  0012                     	;# 
   315  0013                     	;# 
   316  0014                     	;# 
   317  0015                     	;# 
   318  0015                     	;# 
   319  0016                     	;# 
   320  0017                     	;# 
   321  0018                     	;# 
   322  0019                     	;# 
   323  001A                     	;# 
   324  001B                     	;# 
   325  001B                     	;# 
   326  001C                     	;# 
   327  001D                     	;# 
   328  001E                     	;# 
   329  001F                     	;# 
   330  0081                     	;# 
   331  0085                     	;# 
   332  0086                     	;# 
   333  0087                     	;# 
   334  0088                     	;# 
   335  0089                     	;# 
   336  008C                     	;# 
   337  008D                     	;# 
   338  008E                     	;# 
   339  008F                     	;# 
   340  0090                     	;# 
   341  0091                     	;# 
   342  0092                     	;# 
   343  0093                     	;# 
   344  0093                     	;# 
   345  0093                     	;# 
   346  0094                     	;# 
   347  0095                     	;# 
   348  0096                     	;# 
   349  0097                     	;# 
   350  0098                     	;# 
   351  0099                     	;# 
   352  009A                     	;# 
   353  009B                     	;# 
   354  009C                     	;# 
   355  009D                     	;# 
   356  009E                     	;# 
   357  009F                     	;# 
   358  0105                     	;# 
   359  0107                     	;# 
   360  0108                     	;# 
   361  0109                     	;# 
   362  010C                     	;# 
   363  010C                     	;# 
   364  010D                     	;# 
   365  010E                     	;# 
   366  010F                     	;# 
   367  0185                     	;# 
   368  0187                     	;# 
   369  0188                     	;# 
   370  0189                     	;# 
   371  018C                     	;# 
   372  018D                     	;# 
   373  0006                     _PORTBbits	set	6
   374  0014                     _SSPCON	set	20
   375  0012                     _T2CON	set	18
   376  0017                     _CCP1CON	set	23
   377  001D                     _CCP2CON	set	29
   378  0010                     _T1CON	set	16
   379  0009                     _PORTEbits	set	9
   380  0009                     _PORTE	set	9
   381  0008                     _PORTD	set	8
   382  0007                     _PORTC	set	7
   383  0006                     _PORTB	set	6
   384  0005                     _PORTA	set	5
   385  0015                     _CCPR1L	set	21
   386  0007                     _PORTCbits	set	7
   387  0013                     _SSPBUF	set	19
   388  0014                     _SSPCONbits	set	20
   389  000C                     _PIR1bits	set	12
   390  000F                     _TMR1H	set	15
   391  000E                     _TMR1L	set	14
   392  001B                     _CCPR2L	set	27
   393  001C                     _CCPR2H	set	28
   394  000D                     _PIR2bits	set	13
   395  000B                     _INTCONbits	set	11
   396  0035                     _RB5	set	53
   397  0033                     _RB3	set	51
   398  0032                     _RB2	set	50
   399  0031                     _RB1	set	49
   400  0030                     _RB0	set	48
   401  0063                     _SSPIF	set	99
   402  005E                     _PEIE	set	94
   403  005F                     _GIE	set	95
   404  0080                     _TMR1ON	set	128
   405  0091                     _SSPCON2bits	set	145
   406  0087                     _TRISCbits	set	135
   407  0094                     _SSPSTAT	set	148
   408  0093                     _SSPADD	set	147
   409  0091                     _SSPCON2	set	145
   410  0092                     _PR2	set	146
   411  008D                     _PIE2bits	set	141
   412  008F                     _OSCCONbits	set	143
   413  0087                     _TRISC	set	135
   414  0086                     _TRISB	set	134
   415  0089                     _TRISE	set	137
   416  0088                     _TRISD	set	136
   417  0085                     _TRISA	set	133
   418  0094                     _SSPSTATbits	set	148
   419  0463                     _SSPIE	set	1123
   420  043C                     _TRISC4	set	1084
   421  043B                     _TRISC3	set	1083
   422  04A0                     _BF	set	1184
   423  0189                     _ANSELH	set	393
   424  0188                     _ANSEL	set	392
   425                           
   426                           	psect	cinit
   427  000F                     start_initialization:	
   428                           ; #config settings
   429                           
   430  000F                     __initialization:
   431                           
   432                           ; Clear objects allocated to COMMON
   433  000F  01F7               	clrf	__pbssCOMMON& (0+127)
   434  0010  01F8               	clrf	(__pbssCOMMON+1)& (0+127)
   435  0011  01F9               	clrf	(__pbssCOMMON+2)& (0+127)
   436                           
   437                           ; Clear objects allocated to BANK0
   438  0012  1383               	bcf	3,7	;select IRP bank0
   439  0013  3061               	movlw	low __pbssBANK0
   440  0014  0084               	movwf	4
   441  0015  306E               	movlw	low (__pbssBANK0+13)
   442  0016  120A  118A  27F0  120A  118A  	fcall	clear_ram0
   443                           
   444                           ; Clear objects allocated to BANK1
   445  001B  30A0               	movlw	low __pbssBANK1
   446  001C  0084               	movwf	4
   447  001D  30B4               	movlw	low (__pbssBANK1+20)
   448  001E  120A  118A  27F0  120A  118A  	fcall	clear_ram0
   449  0023                     end_of_initialization:	
   450                           ;End of C runtime variable initialization code
   451                           
   452  0023                     __end_of__initialization:
   453  0023  0183               	clrf	3
   454  0024  120A  118A  2D65   	ljmp	_main	;jump to C main() function
   455                           
   456                           	psect	bssCOMMON
   457  0077                     __pbssCOMMON:
   458  0077                     _POS3:
   459  0077                     	ds	1
   460  0078                     _POS2:
   461  0078                     	ds	1
   462  0079                     _POS1:
   463  0079                     	ds	1
   464                           
   465                           	psect	bssBANK0
   466  0061                     __pbssBANK0:
   467  0061                     _frecuencia:
   468  0061                     	ds	4
   469  0065                     _z:
   470  0065                     	ds	1
   471  0066                     _flag_frec:
   472  0066                     	ds	1
   473  0067                     _COLORL:
   474  0067                     	ds	1
   475  0068                     _COLOR:
   476  0068                     	ds	1
   477  0069                     _VERDE:
   478  0069                     	ds	1
   479  006A                     _AZUL:
   480  006A                     	ds	1
   481  006B                     _ROJO:
   482  006B                     	ds	1
   483  006C                     _frecu:
   484  006C                     	ds	2
   485                           
   486                           	psect	bssBANK1
   487  00A0                     __pbssBANK1:
   488  00A0                     _texto:
   489  00A0                     	ds	20
   490                           
   491                           	psect	clrtext
   492  07F0                     clear_ram0:	
   493                           ;	Called with FSR containing the base address, and
   494                           ;	W with the last address+1
   495                           
   496  07F0  0064               	clrwdt	;clear the watchdog before getting into this loop
   497  07F1                     clrloop0:
   498  07F1  0180               	clrf	0	;clear RAM location pointed to by FSR
   499  07F2  0A84               	incf	4,f	;increment pointer
   500  07F3  0604               	xorwf	4,w	;XOR with final address
   501  07F4  1903               	btfsc	3,2	;have we reached the end yet?
   502  07F5  3400               	retlw	0	;all done for this memory range, return
   503  07F6  0604               	xorwf	4,w	;XOR again to restore value
   504  07F7  2FF1               	goto	clrloop0	;do the next byte
   505                           
   506                           	psect	cstackCOMMON
   507  0070                     __pcstackCOMMON:
   508  0070                     ?_setup:
   509  0070                     ?_Lcd_Init:	
   510                           ; 1 bytes @ 0x0
   511                           
   512  0070                     ?_I2C_Slave_Init:	
   513                           ; 1 bytes @ 0x0
   514                           
   515  0070                     ?_isr:	
   516                           ; 1 bytes @ 0x0
   517                           
   518  0070                     ??_isr:	
   519                           ; 1 bytes @ 0x0
   520                           
   521  0070                     ?_main:	
   522                           ; 1 bytes @ 0x0
   523                           
   524  0070                     ?_Lcd_Port:	
   525                           ; 1 bytes @ 0x0
   526                           
   527  0070                     ?_Lcd_Cmd:	
   528                           ; 1 bytes @ 0x0
   529                           
   530                           
   531                           ; 1 bytes @ 0x0
   532  0070                     	ds	3
   533  0073                     ??_I2C_Slave_Init:
   534  0073                     ??_Lcd_Port:	
   535                           ; 1 bytes @ 0x3
   536                           
   537  0073                     ??___flge:	
   538                           ; 1 bytes @ 0x3
   539                           
   540  0073                     ?__Umul8_16:	
   541                           ; 1 bytes @ 0x3
   542                           
   543  0073                     ?___xxtofl:	
   544                           ; 2 bytes @ 0x3
   545                           
   546  0073                     I2C_Slave_Init@address:	
   547                           ; 4 bytes @ 0x3
   548                           
   549  0073                     Lcd_Port@a:	
   550                           ; 1 bytes @ 0x3
   551                           
   552  0073                     __Umul8_16@multiplicand:	
   553                           ; 1 bytes @ 0x3
   554                           
   555  0073                     ___xxtofl@val:	
   556                           ; 1 bytes @ 0x3
   557                           
   558                           
   559                           ; 4 bytes @ 0x3
   560  0073                     	ds	1
   561  0074                     ??_setup:
   562  0074                     ??_Lcd_Cmd:	
   563                           ; 1 bytes @ 0x4
   564                           
   565                           
   566                           ; 1 bytes @ 0x4
   567  0074                     	ds	1
   568  0075                     ??__Umul8_16:
   569                           
   570                           ; 1 bytes @ 0x5
   571  0075                     	ds	1
   572  0076                     Lcd_Cmd@a:
   573                           
   574                           ; 1 bytes @ 0x6
   575  0076                     	ds	1
   576                           
   577                           	psect	cstackBANK0
   578  0020                     __pcstackBANK0:
   579  0020                     ?___flge:
   580  0020                     ??_Lcd_Init:	
   581                           ; 1 bit 
   582                           
   583  0020                     ??___xxtofl:	
   584                           ; 1 bytes @ 0x0
   585                           
   586  0020                     __Umul8_16@product:	
   587                           ; 1 bytes @ 0x0
   588                           
   589  0020                     ___flge@ff1:	
   590                           ; 2 bytes @ 0x0
   591                           
   592                           
   593                           ; 4 bytes @ 0x0
   594  0020                     	ds	2
   595  0022                     __Umul8_16@word_mpld:
   596                           
   597                           ; 2 bytes @ 0x2
   598  0022                     	ds	2
   599  0024                     __Umul8_16@multiplier:
   600  0024                     ___xxtofl@sign:	
   601                           ; 1 bytes @ 0x4
   602                           
   603  0024                     ___flge@ff2:	
   604                           ; 1 bytes @ 0x4
   605                           
   606                           
   607                           ; 4 bytes @ 0x4
   608  0024                     	ds	1
   609  0025                     ___xxtofl@exp:
   610                           
   611                           ; 1 bytes @ 0x5
   612  0025                     	ds	1
   613  0026                     ___xxtofl@arg:
   614                           
   615                           ; 4 bytes @ 0x6
   616  0026                     	ds	4
   617  002A                     ?___flmul:
   618  002A                     ___flmul@b:	
   619                           ; 4 bytes @ 0xA
   620                           
   621                           
   622                           ; 4 bytes @ 0xA
   623  002A                     	ds	4
   624  002E                     ___flmul@a:
   625                           
   626                           ; 4 bytes @ 0xE
   627  002E                     	ds	4
   628  0032                     ??___flmul:
   629                           
   630                           ; 1 bytes @ 0x12
   631  0032                     	ds	5
   632  0037                     ___flmul@sign:
   633                           
   634                           ; 1 bytes @ 0x17
   635  0037                     	ds	1
   636  0038                     ___flmul@grs:
   637                           
   638                           ; 4 bytes @ 0x18
   639  0038                     	ds	4
   640  003C                     ___flmul@aexp:
   641                           
   642                           ; 1 bytes @ 0x1C
   643  003C                     	ds	1
   644  003D                     ___flmul@bexp:
   645                           
   646                           ; 1 bytes @ 0x1D
   647  003D                     	ds	1
   648  003E                     ___flmul@prod:
   649                           
   650                           ; 4 bytes @ 0x1E
   651  003E                     	ds	4
   652  0042                     ___flmul@temp:
   653                           
   654                           ; 2 bytes @ 0x22
   655  0042                     	ds	2
   656  0044                     ?___fldiv:
   657  0044                     ___fldiv@a:	
   658                           ; 4 bytes @ 0x24
   659                           
   660                           
   661                           ; 4 bytes @ 0x24
   662  0044                     	ds	4
   663  0048                     ___fldiv@b:
   664                           
   665                           ; 4 bytes @ 0x28
   666  0048                     	ds	4
   667  004C                     ??___fldiv:
   668                           
   669                           ; 1 bytes @ 0x2C
   670  004C                     	ds	5
   671  0051                     ___fldiv@rem:
   672                           
   673                           ; 4 bytes @ 0x31
   674  0051                     	ds	4
   675  0055                     ___fldiv@sign:
   676                           
   677                           ; 1 bytes @ 0x35
   678  0055                     	ds	1
   679  0056                     ___fldiv@new_exp:
   680                           
   681                           ; 2 bytes @ 0x36
   682  0056                     	ds	2
   683  0058                     ___fldiv@grs:
   684                           
   685                           ; 4 bytes @ 0x38
   686  0058                     	ds	4
   687  005C                     ___fldiv@bexp:
   688                           
   689                           ; 1 bytes @ 0x3C
   690  005C                     	ds	1
   691  005D                     ___fldiv@aexp:
   692                           
   693                           ; 1 bytes @ 0x3D
   694  005D                     	ds	1
   695  005E                     ??_main:
   696                           
   697                           ; 1 bytes @ 0x3E
   698  005E                     	ds	3
   699                           
   700                           	psect	maintext
   701  0565                     __pmaintext:	
   702 ;;
   703 ;;Main: autosize = 0, tempsize = 3, incstack = 0, save=0
   704 ;;
   705 ;; *************** function _main *****************
   706 ;; Defined at:
   707 ;;		line 111 in file "main.c"
   708 ;; Parameters:    Size  Location     Type
   709 ;;		None
   710 ;; Auto vars:     Size  Location     Type
   711 ;;		None
   712 ;; Return value:  Size  Location     Type
   713 ;;                  1    wreg      void 
   714 ;; Registers used:
   715 ;;		wreg, status,2, status,0, btemp+1, pclath, cstack
   716 ;; Tracked objects:
   717 ;;		On entry : B00/0
   718 ;;		On exit  : 0/0
   719 ;;		Unchanged: 0/0
   720 ;; Data sizes:     COMMON   BANK0   BANK1   BANK3   BANK2
   721 ;;      Params:         0       0       0       0       0
   722 ;;      Locals:         0       0       0       0       0
   723 ;;      Temps:          0       3       0       0       0
   724 ;;      Totals:         0       3       0       0       0
   725 ;;Total ram usage:        3 bytes
   726 ;; Hardware stack levels required when called:    4
   727 ;; This function calls:
   728 ;;		_Lcd_Init
   729 ;;		___fldiv
   730 ;;		___flge
   731 ;;		___flmul
   732 ;;		___xxtofl
   733 ;;		_setup
   734 ;; This function is called by:
   735 ;;		Startup code after reset
   736 ;; This function uses a non-reentrant model
   737 ;;
   738                           
   739                           
   740                           ;psect for function _main
   741  0565                     _main:
   742  0565                     l2365:	
   743                           ;incstack = 0
   744                           ; Regs used in _main: [wreg+status,2+status,0+btemp+1+pclath+cstack]
   745                           
   746                           
   747                           ;main.c: 112:     setup();
   748  0565  120A  158A  26F9  120A  118A  	fcall	_setup
   749                           
   750                           ;main.c: 113:     Lcd_Init();
   751  056A  120A  158A  272E  120A  118A  	fcall	_Lcd_Init
   752  056F                     l2367:
   753                           
   754                           ;main.c: 117:     TMR1ON = 1;
   755  056F  1283               	bcf	3,5	;RP0=0, select bank0
   756  0570  1303               	bcf	3,6	;RP1=0, select bank0
   757  0571  1410               	bsf	16,0	;volatile
   758  0572                     l2369:
   759                           
   760                           ;main.c: 118:     PORTCbits.RC2 = 1;
   761  0572  1507               	bsf	7,2	;volatile
   762  0573                     l2371:
   763                           
   764                           ;main.c: 123:         if (flag_frec==1){
   765  0573  1283               	bcf	3,5	;RP0=0, select bank0
   766  0574  1303               	bcf	3,6	;RP1=0, select bank0
   767  0575  0366               	decf	_flag_frec,w
   768  0576  1D03               	btfss	3,2
   769  0577  2D79               	goto	u2841
   770  0578  2D7A               	goto	u2840
   771  0579                     u2841:
   772  0579  2DC7               	goto	l2381
   773  057A                     u2840:
   774  057A                     l2373:
   775                           
   776                           ;main.c: 124:             if (frecu!=0){
   777  057A  086C               	movf	_frecu,w
   778  057B  046D               	iorwf	_frecu+1,w
   779  057C  1903               	btfsc	3,2
   780  057D  2D7F               	goto	u2851
   781  057E  2D80               	goto	u2850
   782  057F                     u2851:
   783  057F  2DC6               	goto	l2379
   784  0580                     u2850:
   785  0580                     l2375:
   786                           
   787                           ;main.c: 125:                 frecuencia=8000000/(frecu*4.0);
   788  0580  3040               	movlw	64
   789  0581  00AD               	movwf	___flmul@b+3
   790  0582  3080               	movlw	128
   791  0583  00AC               	movwf	___flmul@b+2
   792  0584  3000               	movlw	0
   793  0585  00AB               	movwf	___flmul@b+1
   794  0586  3000               	movlw	0
   795  0587  00AA               	movwf	___flmul@b
   796  0588  086C               	movf	_frecu,w
   797  0589  00F3               	movwf	___xxtofl@val
   798  058A  086D               	movf	_frecu+1,w
   799  058B  00F4               	movwf	___xxtofl@val+1
   800  058C  01F5               	clrf	___xxtofl@val+2
   801  058D  01F6               	clrf	___xxtofl@val+3
   802  058E  3000               	movlw	0
   803  058F  120A  118A  2690  120A  118A  	fcall	___xxtofl
   804  0594  0876               	movf	?___xxtofl+3,w
   805  0595  1283               	bcf	3,5	;RP0=0, select bank0
   806  0596  1303               	bcf	3,6	;RP1=0, select bank0
   807  0597  00B1               	movwf	___flmul@a+3
   808  0598  0875               	movf	?___xxtofl+2,w
   809  0599  00B0               	movwf	___flmul@a+2
   810  059A  0874               	movf	?___xxtofl+1,w
   811  059B  00AF               	movwf	___flmul@a+1
   812  059C  0873               	movf	?___xxtofl,w
   813  059D  00AE               	movwf	___flmul@a
   814  059E  120A  118A  2027  120A  118A  	fcall	___flmul
   815  05A3  1283               	bcf	3,5	;RP0=0, select bank0
   816  05A4  1303               	bcf	3,6	;RP1=0, select bank0
   817  05A5  082D               	movf	?___flmul+3,w
   818  05A6  00C7               	movwf	___fldiv@a+3
   819  05A7  082C               	movf	?___flmul+2,w
   820  05A8  00C6               	movwf	___fldiv@a+2
   821  05A9  082B               	movf	?___flmul+1,w
   822  05AA  00C5               	movwf	___fldiv@a+1
   823  05AB  082A               	movf	?___flmul,w
   824  05AC  00C4               	movwf	___fldiv@a
   825  05AD  304A               	movlw	74
   826  05AE  00CB               	movwf	___fldiv@b+3
   827  05AF  30F4               	movlw	244
   828  05B0  00CA               	movwf	___fldiv@b+2
   829  05B1  3024               	movlw	36
   830  05B2  00C9               	movwf	___fldiv@b+1
   831  05B3  3000               	movlw	0
   832  05B4  00C8               	movwf	___fldiv@b
   833  05B5  120A  118A  2388  120A  118A  	fcall	___fldiv
   834  05BA  1283               	bcf	3,5	;RP0=0, select bank0
   835  05BB  1303               	bcf	3,6	;RP1=0, select bank0
   836  05BC  0847               	movf	?___fldiv+3,w
   837  05BD  00E4               	movwf	_frecuencia+3
   838  05BE  0846               	movf	?___fldiv+2,w
   839  05BF  00E3               	movwf	_frecuencia+2
   840  05C0  0845               	movf	?___fldiv+1,w
   841  05C1  00E2               	movwf	_frecuencia+1
   842  05C2  0844               	movf	?___fldiv,w
   843  05C3  00E1               	movwf	_frecuencia
   844  05C4                     l2377:
   845                           
   846                           ;main.c: 126:                 frecu=0;
   847  05C4  01EC               	clrf	_frecu
   848  05C5  01ED               	clrf	_frecu+1
   849  05C6                     l2379:
   850                           
   851                           ;main.c: 129:             flag_frec=0;
   852  05C6  01E6               	clrf	_flag_frec
   853  05C7                     l2381:
   854                           
   855                           ;main.c: 134:         if (frecuencia >= 510 && frecuencia <= 1000 ){
   856  05C7  0864               	movf	_frecuencia+3,w
   857  05C8  00A3               	movwf	___flge@ff1+3
   858  05C9  0863               	movf	_frecuencia+2,w
   859  05CA  00A2               	movwf	___flge@ff1+2
   860  05CB  0862               	movf	_frecuencia+1,w
   861  05CC  00A1               	movwf	___flge@ff1+1
   862  05CD  0861               	movf	_frecuencia,w
   863  05CE  00A0               	movwf	___flge@ff1
   864  05CF  3043               	movlw	67
   865  05D0  00A7               	movwf	___flge@ff2+3
   866  05D1  30FF               	movlw	255
   867  05D2  00A6               	movwf	___flge@ff2+2
   868  05D3  3000               	movlw	0
   869  05D4  00A5               	movwf	___flge@ff2+1
   870  05D5  3000               	movlw	0
   871  05D6  00A4               	movwf	___flge@ff2
   872  05D7  120A  118A  274C  120A  118A  	fcall	___flge
   873  05DC  1C03               	btfss	3,0
   874  05DD  2DDF               	goto	u2861
   875  05DE  2DE0               	goto	u2860
   876  05DF                     u2861:
   877  05DF  2E01               	goto	l2389
   878  05E0                     u2860:
   879  05E0                     l2383:
   880  05E0  3044               	movlw	68
   881  05E1  1283               	bcf	3,5	;RP0=0, select bank0
   882  05E2  1303               	bcf	3,6	;RP1=0, select bank0
   883  05E3  00A3               	movwf	___flge@ff1+3
   884  05E4  307A               	movlw	122
   885  05E5  00A2               	movwf	___flge@ff1+2
   886  05E6  3000               	movlw	0
   887  05E7  00A1               	movwf	___flge@ff1+1
   888  05E8  3000               	movlw	0
   889  05E9  00A0               	movwf	___flge@ff1
   890  05EA  0864               	movf	_frecuencia+3,w
   891  05EB  00A7               	movwf	___flge@ff2+3
   892  05EC  0863               	movf	_frecuencia+2,w
   893  05ED  00A6               	movwf	___flge@ff2+2
   894  05EE  0862               	movf	_frecuencia+1,w
   895  05EF  00A5               	movwf	___flge@ff2+1
   896  05F0  0861               	movf	_frecuencia,w
   897  05F1  00A4               	movwf	___flge@ff2
   898  05F2  120A  118A  274C  120A  118A  	fcall	___flge
   899  05F7  1C03               	btfss	3,0
   900  05F8  2DFA               	goto	u2871
   901  05F9  2DFB               	goto	u2870
   902  05FA                     u2871:
   903  05FA  2E01               	goto	l2389
   904  05FB                     u2870:
   905  05FB                     l2385:
   906                           
   907                           ;main.c: 135:             COLOR = 0X01;
   908  05FB  1283               	bcf	3,5	;RP0=0, select bank0
   909  05FC  1303               	bcf	3,6	;RP1=0, select bank0
   910  05FD  01E8               	clrf	_COLOR
   911  05FE  0AE8               	incf	_COLOR,f
   912  05FF                     l2387:
   913                           
   914                           ;main.c: 136:             CCPR1L = (((0.247 * 8) + 62)*2);
   915  05FF  307F               	movlw	127
   916  0600  0095               	movwf	21	;volatile
   917  0601                     l2389:
   918                           
   919                           ;main.c: 138:         if (frecuencia >= 230 && frecuencia <= 350){
   920  0601  1283               	bcf	3,5	;RP0=0, select bank0
   921  0602  1303               	bcf	3,6	;RP1=0, select bank0
   922  0603  0864               	movf	_frecuencia+3,w
   923  0604  00A3               	movwf	___flge@ff1+3
   924  0605  0863               	movf	_frecuencia+2,w
   925  0606  00A2               	movwf	___flge@ff1+2
   926  0607  0862               	movf	_frecuencia+1,w
   927  0608  00A1               	movwf	___flge@ff1+1
   928  0609  0861               	movf	_frecuencia,w
   929  060A  00A0               	movwf	___flge@ff1
   930  060B  3043               	movlw	67
   931  060C  00A7               	movwf	___flge@ff2+3
   932  060D  3066               	movlw	102
   933  060E  00A6               	movwf	___flge@ff2+2
   934  060F  3000               	movlw	0
   935  0610  00A5               	movwf	___flge@ff2+1
   936  0611  3000               	movlw	0
   937  0612  00A4               	movwf	___flge@ff2
   938  0613  120A  118A  274C  120A  118A  	fcall	___flge
   939  0618  1C03               	btfss	3,0
   940  0619  2E1B               	goto	u2881
   941  061A  2E1C               	goto	u2880
   942  061B                     u2881:
   943  061B  2E3F               	goto	l2395
   944  061C                     u2880:
   945  061C                     l2391:
   946  061C  3043               	movlw	67
   947  061D  1283               	bcf	3,5	;RP0=0, select bank0
   948  061E  1303               	bcf	3,6	;RP1=0, select bank0
   949  061F  00A3               	movwf	___flge@ff1+3
   950  0620  30AF               	movlw	175
   951  0621  00A2               	movwf	___flge@ff1+2
   952  0622  3000               	movlw	0
   953  0623  00A1               	movwf	___flge@ff1+1
   954  0624  3000               	movlw	0
   955  0625  00A0               	movwf	___flge@ff1
   956  0626  0864               	movf	_frecuencia+3,w
   957  0627  00A7               	movwf	___flge@ff2+3
   958  0628  0863               	movf	_frecuencia+2,w
   959  0629  00A6               	movwf	___flge@ff2+2
   960  062A  0862               	movf	_frecuencia+1,w
   961  062B  00A5               	movwf	___flge@ff2+1
   962  062C  0861               	movf	_frecuencia,w
   963  062D  00A4               	movwf	___flge@ff2
   964  062E  120A  118A  274C  120A  118A  	fcall	___flge
   965  0633  1C03               	btfss	3,0
   966  0634  2E36               	goto	u2891
   967  0635  2E37               	goto	u2890
   968  0636                     u2891:
   969  0636  2E3F               	goto	l2395
   970  0637                     u2890:
   971  0637                     l2393:
   972                           
   973                           ;main.c: 139:             COLOR = 0X02;
   974  0637  3002               	movlw	2
   975  0638  1283               	bcf	3,5	;RP0=0, select bank0
   976  0639  1303               	bcf	3,6	;RP1=0, select bank0
   977  063A  00DE               	movwf	??_main
   978  063B  085E               	movf	??_main,w
   979  063C  00E8               	movwf	_COLOR
   980                           
   981                           ;main.c: 140:             CCPR1L = (((0.247 * 75) + 62)*2);
   982  063D  30A1               	movlw	161
   983  063E  0095               	movwf	21	;volatile
   984  063F                     l2395:
   985                           
   986                           ;main.c: 142:         if (frecuencia >= 130 && frecuencia <= 190){
   987  063F  1283               	bcf	3,5	;RP0=0, select bank0
   988  0640  1303               	bcf	3,6	;RP1=0, select bank0
   989  0641  0864               	movf	_frecuencia+3,w
   990  0642  00A3               	movwf	___flge@ff1+3
   991  0643  0863               	movf	_frecuencia+2,w
   992  0644  00A2               	movwf	___flge@ff1+2
   993  0645  0862               	movf	_frecuencia+1,w
   994  0646  00A1               	movwf	___flge@ff1+1
   995  0647  0861               	movf	_frecuencia,w
   996  0648  00A0               	movwf	___flge@ff1
   997  0649  3043               	movlw	67
   998  064A  00A7               	movwf	___flge@ff2+3
   999  064B  3002               	movlw	2
  1000  064C  00A6               	movwf	___flge@ff2+2
  1001  064D  3000               	movlw	0
  1002  064E  00A5               	movwf	___flge@ff2+1
  1003  064F  3000               	movlw	0
  1004  0650  00A4               	movwf	___flge@ff2
  1005  0651  120A  118A  274C  120A  118A  	fcall	___flge
  1006  0656  1C03               	btfss	3,0
  1007  0657  2E59               	goto	u2901
  1008  0658  2E5A               	goto	u2900
  1009  0659                     u2901:
  1010  0659  2E7D               	goto	l131
  1011  065A                     u2900:
  1012  065A                     l2397:
  1013  065A  3043               	movlw	67
  1014  065B  1283               	bcf	3,5	;RP0=0, select bank0
  1015  065C  1303               	bcf	3,6	;RP1=0, select bank0
  1016  065D  00A3               	movwf	___flge@ff1+3
  1017  065E  303E               	movlw	62
  1018  065F  00A2               	movwf	___flge@ff1+2
  1019  0660  3000               	movlw	0
  1020  0661  00A1               	movwf	___flge@ff1+1
  1021  0662  3000               	movlw	0
  1022  0663  00A0               	movwf	___flge@ff1
  1023  0664  0864               	movf	_frecuencia+3,w
  1024  0665  00A7               	movwf	___flge@ff2+3
  1025  0666  0863               	movf	_frecuencia+2,w
  1026  0667  00A6               	movwf	___flge@ff2+2
  1027  0668  0862               	movf	_frecuencia+1,w
  1028  0669  00A5               	movwf	___flge@ff2+1
  1029  066A  0861               	movf	_frecuencia,w
  1030  066B  00A4               	movwf	___flge@ff2
  1031  066C  120A  118A  274C  120A  118A  	fcall	___flge
  1032  0671  1C03               	btfss	3,0
  1033  0672  2E74               	goto	u2911
  1034  0673  2E75               	goto	u2910
  1035  0674                     u2911:
  1036  0674  2E7D               	goto	l131
  1037  0675                     u2910:
  1038  0675                     l2399:
  1039                           
  1040                           ;main.c: 143:             COLOR = 0X03;
  1041  0675  3003               	movlw	3
  1042  0676  1283               	bcf	3,5	;RP0=0, select bank0
  1043  0677  1303               	bcf	3,6	;RP1=0, select bank0
  1044  0678  00DE               	movwf	??_main
  1045  0679  085E               	movf	??_main,w
  1046  067A  00E8               	movwf	_COLOR
  1047                           
  1048                           ;main.c: 144:             CCPR1L = (((0.247 * 40) + 62)*2);
  1049  067B  308F               	movlw	143
  1050  067C  0095               	movwf	21	;volatile
  1051  067D                     l131:	
  1052                           ;main.c: 145:         }
  1053                           
  1054                           
  1055                           ;main.c: 148:         _delay((unsigned long)((2000)*(8000000/4000.0)));
  1056  067D  3015               	movlw	21
  1057  067E  1283               	bcf	3,5	;RP0=0, select bank0
  1058  067F  1303               	bcf	3,6	;RP1=0, select bank0
  1059  0680  00E0               	movwf	??_main+2
  1060  0681  304B               	movlw	75
  1061  0682  00DF               	movwf	??_main+1
  1062  0683  30BD               	movlw	189
  1063  0684  00DE               	movwf	??_main
  1064  0685                     u3037:
  1065  0685  0BDE               	decfsz	??_main,f
  1066  0686  2E85               	goto	u3037
  1067  0687  0BDF               	decfsz	??_main+1,f
  1068  0688  2E85               	goto	u3037
  1069  0689  0BE0               	decfsz	??_main+2,f
  1070  068A  2E85               	goto	u3037
  1071  068B  2E8C               	nop2
  1072  068C  2D73               	goto	l2371
  1073  068D  120A  118A  280C   	ljmp	start
  1074  0690                     __end_of_main:
  1075                           
  1076                           	psect	text1
  1077  0EF9                     __ptext1:	
  1078 ;; *************** function _setup *****************
  1079 ;; Defined at:
  1080 ;;		line 156 in file "main.c"
  1081 ;; Parameters:    Size  Location     Type
  1082 ;;		None
  1083 ;; Auto vars:     Size  Location     Type
  1084 ;;		None
  1085 ;; Return value:  Size  Location     Type
  1086 ;;                  1    wreg      void 
  1087 ;; Registers used:
  1088 ;;		wreg, status,2, status,0, pclath, cstack
  1089 ;; Tracked objects:
  1090 ;;		On entry : 0/0
  1091 ;;		On exit  : 0/0
  1092 ;;		Unchanged: 0/0
  1093 ;; Data sizes:     COMMON   BANK0   BANK1   BANK3   BANK2
  1094 ;;      Params:         0       0       0       0       0
  1095 ;;      Locals:         0       0       0       0       0
  1096 ;;      Temps:          0       0       0       0       0
  1097 ;;      Totals:         0       0       0       0       0
  1098 ;;Total ram usage:        0 bytes
  1099 ;; Hardware stack levels used:    1
  1100 ;; Hardware stack levels required when called:    2
  1101 ;; This function calls:
  1102 ;;		_I2C_Slave_Init
  1103 ;; This function is called by:
  1104 ;;		_main
  1105 ;; This function uses a non-reentrant model
  1106 ;;
  1107                           
  1108                           
  1109                           ;psect for function _setup
  1110  0EF9                     _setup:
  1111  0EF9                     l1665:	
  1112                           ;incstack = 0
  1113                           ; Regs used in _setup: [wreg+status,2+status,0+pclath+cstack]
  1114                           
  1115                           
  1116                           ;main.c: 158:     ANSEL = 0B0000000;
  1117  0EF9  1683               	bsf	3,5	;RP0=1, select bank3
  1118  0EFA  1703               	bsf	3,6	;RP1=1, select bank3
  1119  0EFB  0188               	clrf	8	;volatile
  1120                           
  1121                           ;main.c: 159:     ANSELH = 0X00;
  1122  0EFC  0189               	clrf	9	;volatile
  1123                           
  1124                           ;main.c: 161:     TRISA = 0B0000000;
  1125  0EFD  1683               	bsf	3,5	;RP0=1, select bank1
  1126  0EFE  1303               	bcf	3,6	;RP1=0, select bank1
  1127  0EFF  0185               	clrf	5	;volatile
  1128                           
  1129                           ;main.c: 162:     TRISD = 0X00;
  1130  0F00  0188               	clrf	8	;volatile
  1131                           
  1132                           ;main.c: 163:     TRISE = 0X00;
  1133  0F01  0189               	clrf	9	;volatile
  1134                           
  1135                           ;main.c: 164:     TRISB = 0B00000000;
  1136  0F02  0186               	clrf	6	;volatile
  1137  0F03                     l1667:
  1138                           
  1139                           ;main.c: 165:     TRISC = 0X02;
  1140  0F03  3002               	movlw	2
  1141  0F04  0087               	movwf	7	;volatile
  1142  0F05                     l1669:
  1143                           
  1144                           ;main.c: 167:     PORTA = 0X00;
  1145  0F05  1283               	bcf	3,5	;RP0=0, select bank0
  1146  0F06  1303               	bcf	3,6	;RP1=0, select bank0
  1147  0F07  0185               	clrf	5	;volatile
  1148  0F08                     l1671:
  1149                           
  1150                           ;main.c: 168:     PORTB = 0X00;
  1151  0F08  0186               	clrf	6	;volatile
  1152  0F09                     l1673:
  1153                           
  1154                           ;main.c: 169:     PORTC = 0X00;
  1155  0F09  0187               	clrf	7	;volatile
  1156  0F0A                     l1675:
  1157                           
  1158                           ;main.c: 170:     PORTD = 0X00;
  1159  0F0A  0188               	clrf	8	;volatile
  1160  0F0B                     l1677:
  1161                           
  1162                           ;main.c: 171:     PORTE = 0X00;
  1163  0F0B  0189               	clrf	9	;volatile
  1164  0F0C                     l1679:
  1165                           
  1166                           ;main.c: 174:     OSCCONbits.IRCF2 = 1;
  1167  0F0C  1683               	bsf	3,5	;RP0=1, select bank1
  1168  0F0D  1303               	bcf	3,6	;RP1=0, select bank1
  1169  0F0E  170F               	bsf	15,6	;volatile
  1170  0F0F                     l1681:
  1171                           
  1172                           ;main.c: 175:     OSCCONbits.IRCF1 = 1;
  1173  0F0F  168F               	bsf	15,5	;volatile
  1174  0F10                     l1683:
  1175                           
  1176                           ;main.c: 176:     OSCCONbits.IRCF0 = 1;
  1177  0F10  160F               	bsf	15,4	;volatile
  1178  0F11                     l1685:
  1179                           
  1180                           ;main.c: 177:     OSCCONbits.SCS = 1;
  1181  0F11  140F               	bsf	15,0	;volatile
  1182  0F12                     l1687:
  1183                           
  1184                           ;main.c: 180:     INTCONbits.GIE = 1;
  1185  0F12  178B               	bsf	11,7	;volatile
  1186  0F13                     l1689:
  1187                           
  1188                           ;main.c: 181:     INTCONbits.PEIE = 1;
  1189  0F13  170B               	bsf	11,6	;volatile
  1190  0F14                     l1691:
  1191                           
  1192                           ;main.c: 182:     PIE2bits.CCP2IE = 1;
  1193  0F14  140D               	bsf	13,0	;volatile
  1194  0F15                     l1693:
  1195                           
  1196                           ;main.c: 183:     PIR2bits.CCP2IF = 0;
  1197  0F15  1283               	bcf	3,5	;RP0=0, select bank0
  1198  0F16  1303               	bcf	3,6	;RP1=0, select bank0
  1199  0F17  100D               	bcf	13,0	;volatile
  1200  0F18                     l1695:
  1201                           
  1202                           ;main.c: 187:     PORTEbits.RE0 = 1;
  1203  0F18  1409               	bsf	9,0	;volatile
  1204  0F19                     l1697:
  1205                           
  1206                           ;main.c: 188:     PORTEbits.RE1 = 1;
  1207  0F19  1489               	bsf	9,1	;volatile
  1208  0F1A                     l1699:
  1209                           
  1210                           ;main.c: 191:     T1CON = 0x00;
  1211  0F1A  0190               	clrf	16	;volatile
  1212  0F1B                     l1701:
  1213                           
  1214                           ;main.c: 192:     TMR1H = 0x00;;
  1215  0F1B  018F               	clrf	15	;volatile
  1216  0F1C                     l1703:
  1217                           
  1218                           ;main.c: 193:     TMR1L = 0x00;;
  1219  0F1C  018E               	clrf	14	;volatile
  1220  0F1D                     l1705:
  1221                           
  1222                           ;main.c: 196:      CCP2CON = 0B00000101;
  1223  0F1D  3005               	movlw	5
  1224  0F1E  009D               	movwf	29	;volatile
  1225  0F1F                     l1707:
  1226                           
  1227                           ;main.c: 199:     CCP1CON = 0B00001100;
  1228  0F1F  300C               	movlw	12
  1229  0F20  0097               	movwf	23	;volatile
  1230  0F21                     l1709:
  1231                           
  1232                           ;main.c: 201:     T2CON = 0x4E;
  1233  0F21  304E               	movlw	78
  1234  0F22  0092               	movwf	18	;volatile
  1235  0F23                     l1711:
  1236                           
  1237                           ;main.c: 202:     PR2 = 250;
  1238  0F23  30FA               	movlw	250
  1239  0F24  1683               	bsf	3,5	;RP0=1, select bank1
  1240  0F25  1303               	bcf	3,6	;RP1=0, select bank1
  1241  0F26  0092               	movwf	18	;volatile
  1242  0F27                     l1713:
  1243                           
  1244                           ;main.c: 204:      I2C_Slave_Init(0x70);
  1245  0F27  3070               	movlw	112
  1246  0F28  120A  158A  2694  120A  158A  	fcall	_I2C_Slave_Init
  1247  0F2D                     l137:
  1248  0F2D  0008               	return
  1249  0F2E                     __end_of_setup:
  1250                           
  1251                           	psect	text2
  1252  0E94                     __ptext2:	
  1253 ;; *************** function _I2C_Slave_Init *****************
  1254 ;; Defined at:
  1255 ;;		line 93 in file "I2C.c"
  1256 ;; Parameters:    Size  Location     Type
  1257 ;;  address         1    wreg     unsigned char 
  1258 ;; Auto vars:     Size  Location     Type
  1259 ;;  address         1    3[COMMON] unsigned char 
  1260 ;; Return value:  Size  Location     Type
  1261 ;;                  1    wreg      void 
  1262 ;; Registers used:
  1263 ;;		wreg
  1264 ;; Tracked objects:
  1265 ;;		On entry : 0/0
  1266 ;;		On exit  : 0/0
  1267 ;;		Unchanged: 0/0
  1268 ;; Data sizes:     COMMON   BANK0   BANK1   BANK3   BANK2
  1269 ;;      Params:         0       0       0       0       0
  1270 ;;      Locals:         1       0       0       0       0
  1271 ;;      Temps:          0       0       0       0       0
  1272 ;;      Totals:         1       0       0       0       0
  1273 ;;Total ram usage:        1 bytes
  1274 ;; Hardware stack levels used:    1
  1275 ;; Hardware stack levels required when called:    1
  1276 ;; This function calls:
  1277 ;;		Nothing
  1278 ;; This function is called by:
  1279 ;;		_setup
  1280 ;; This function uses a non-reentrant model
  1281 ;;
  1282                           
  1283                           
  1284                           ;psect for function _I2C_Slave_Init
  1285  0E94                     _I2C_Slave_Init:
  1286                           
  1287                           ;incstack = 0
  1288                           ; Regs used in _I2C_Slave_Init: [wreg]
  1289                           ;I2C_Slave_Init@address stored from wreg
  1290  0E94  00F3               	movwf	I2C_Slave_Init@address
  1291  0E95                     l1627:
  1292                           
  1293                           ;I2C.c: 93: void I2C_Slave_Init(uint8_t address);I2C.c: 94: {;I2C.c: 95:     SSPADD = ad
      +                          dress;
  1294  0E95  0873               	movf	I2C_Slave_Init@address,w
  1295  0E96  1683               	bsf	3,5	;RP0=1, select bank1
  1296  0E97  1303               	bcf	3,6	;RP1=0, select bank1
  1297  0E98  0093               	movwf	19	;volatile
  1298                           
  1299                           ;I2C.c: 96:     SSPCON = 0x36;
  1300  0E99  3036               	movlw	54
  1301  0E9A  1283               	bcf	3,5	;RP0=0, select bank0
  1302  0E9B  1303               	bcf	3,6	;RP1=0, select bank0
  1303  0E9C  0094               	movwf	20	;volatile
  1304                           
  1305                           ;I2C.c: 97:     SSPSTAT = 0x80;
  1306  0E9D  3080               	movlw	128
  1307  0E9E  1683               	bsf	3,5	;RP0=1, select bank1
  1308  0E9F  1303               	bcf	3,6	;RP1=0, select bank1
  1309  0EA0  0094               	movwf	20	;volatile
  1310                           
  1311                           ;I2C.c: 98:     SSPCON2 = 0x01;
  1312  0EA1  3001               	movlw	1
  1313  0EA2  0091               	movwf	17	;volatile
  1314  0EA3                     l1629:
  1315                           
  1316                           ;I2C.c: 99:     TRISC3 = 1;
  1317  0EA3  1587               	bsf	7,3	;volatile
  1318  0EA4                     l1631:
  1319                           
  1320                           ;I2C.c: 100:     TRISC4 = 1;
  1321  0EA4  1607               	bsf	7,4	;volatile
  1322  0EA5                     l1633:
  1323                           
  1324                           ;I2C.c: 101:     GIE = 1;
  1325  0EA5  178B               	bsf	11,7	;volatile
  1326  0EA6                     l1635:
  1327                           
  1328                           ;I2C.c: 102:     PEIE = 1;
  1329  0EA6  170B               	bsf	11,6	;volatile
  1330  0EA7                     l1637:
  1331                           
  1332                           ;I2C.c: 103:     SSPIF = 0;
  1333  0EA7  1283               	bcf	3,5	;RP0=0, select bank0
  1334  0EA8  1303               	bcf	3,6	;RP1=0, select bank0
  1335  0EA9  118C               	bcf	12,3	;volatile
  1336  0EAA                     l1639:
  1337                           
  1338                           ;I2C.c: 104:     SSPIE = 1;
  1339  0EAA  1683               	bsf	3,5	;RP0=1, select bank1
  1340  0EAB  1303               	bcf	3,6	;RP1=0, select bank1
  1341  0EAC  158C               	bsf	12,3	;volatile
  1342  0EAD                     l222:
  1343  0EAD  0008               	return
  1344  0EAE                     __end_of_I2C_Slave_Init:
  1345                           
  1346                           	psect	text3
  1347  0690                     __ptext3:	
  1348 ;; *************** function ___xxtofl *****************
  1349 ;; Defined at:
  1350 ;;		line 10 in file "C:\Program Files\Microchip\xc8\v2.31\pic\sources\c90\common\xxtofl.c"
  1351 ;; Parameters:    Size  Location     Type
  1352 ;;  sign            1    wreg     unsigned char 
  1353 ;;  val             4    3[COMMON] long 
  1354 ;; Auto vars:     Size  Location     Type
  1355 ;;  sign            1    4[BANK0 ] unsigned char 
  1356 ;;  arg             4    6[BANK0 ] unsigned long 
  1357 ;;  exp             1    5[BANK0 ] unsigned char 
  1358 ;; Return value:  Size  Location     Type
  1359 ;;                  4    3[COMMON] unsigned char 
  1360 ;; Registers used:
  1361 ;;		wreg, status,2, status,0
  1362 ;; Tracked objects:
  1363 ;;		On entry : 0/0
  1364 ;;		On exit  : 0/0
  1365 ;;		Unchanged: 0/0
  1366 ;; Data sizes:     COMMON   BANK0   BANK1   BANK3   BANK2
  1367 ;;      Params:         4       0       0       0       0
  1368 ;;      Locals:         0       6       0       0       0
  1369 ;;      Temps:          0       4       0       0       0
  1370 ;;      Totals:         4      10       0       0       0
  1371 ;;Total ram usage:       14 bytes
  1372 ;; Hardware stack levels used:    1
  1373 ;; Hardware stack levels required when called:    1
  1374 ;; This function calls:
  1375 ;;		Nothing
  1376 ;; This function is called by:
  1377 ;;		_main
  1378 ;;		_floattostr_
  1379 ;; This function uses a non-reentrant model
  1380 ;;
  1381                           
  1382                           
  1383                           ;psect for function ___xxtofl
  1384  0690                     ___xxtofl:
  1385                           
  1386                           ;incstack = 0
  1387                           ; Regs used in ___xxtofl: [wreg+status,2+status,0]
  1388                           ;___xxtofl@sign stored from wreg
  1389  0690  1283               	bcf	3,5	;RP0=0, select bank0
  1390  0691  1303               	bcf	3,6	;RP1=0, select bank0
  1391  0692  00A4               	movwf	___xxtofl@sign
  1392  0693                     l2321:
  1393  0693  0824               	movf	___xxtofl@sign,w
  1394  0694  1903               	btfsc	3,2
  1395  0695  2E97               	goto	u2701
  1396  0696  2E98               	goto	u2700
  1397  0697                     u2701:
  1398  0697  2EAC               	goto	l2327
  1399  0698                     u2700:
  1400  0698                     l2323:
  1401  0698  1FF6               	btfss	___xxtofl@val+3,7
  1402  0699  2E9B               	goto	u2711
  1403  069A  2E9C               	goto	u2710
  1404  069B                     u2711:
  1405  069B  2EAC               	goto	l2327
  1406  069C                     u2710:
  1407  069C                     l2325:
  1408  069C  0973               	comf	___xxtofl@val,w
  1409  069D  00A6               	movwf	___xxtofl@arg
  1410  069E  0974               	comf	___xxtofl@val+1,w
  1411  069F  00A7               	movwf	___xxtofl@arg+1
  1412  06A0  0975               	comf	___xxtofl@val+2,w
  1413  06A1  00A8               	movwf	___xxtofl@arg+2
  1414  06A2  0976               	comf	___xxtofl@val+3,w
  1415  06A3  00A9               	movwf	___xxtofl@arg+3
  1416  06A4  0AA6               	incf	___xxtofl@arg,f
  1417  06A5  1903               	skipnz
  1418  06A6  0AA7               	incf	___xxtofl@arg+1,f
  1419  06A7  1903               	skipnz
  1420  06A8  0AA8               	incf	___xxtofl@arg+2,f
  1421  06A9  1903               	skipnz
  1422  06AA  0AA9               	incf	___xxtofl@arg+3,f
  1423  06AB  2EB4               	goto	l796
  1424  06AC                     l2327:
  1425  06AC  0876               	movf	___xxtofl@val+3,w
  1426  06AD  00A9               	movwf	___xxtofl@arg+3
  1427  06AE  0875               	movf	___xxtofl@val+2,w
  1428  06AF  00A8               	movwf	___xxtofl@arg+2
  1429  06B0  0874               	movf	___xxtofl@val+1,w
  1430  06B1  00A7               	movwf	___xxtofl@arg+1
  1431  06B2  0873               	movf	___xxtofl@val,w
  1432  06B3  00A6               	movwf	___xxtofl@arg
  1433  06B4                     l796:
  1434  06B4  0876               	movf	___xxtofl@val+3,w
  1435  06B5  0475               	iorwf	___xxtofl@val+2,w
  1436  06B6  0474               	iorwf	___xxtofl@val+1,w
  1437  06B7  0473               	iorwf	___xxtofl@val,w
  1438  06B8  1D03               	skipz
  1439  06B9  2EBB               	goto	u2721
  1440  06BA  2EBC               	goto	u2720
  1441  06BB                     u2721:
  1442  06BB  2EC5               	goto	l2333
  1443  06BC                     u2720:
  1444  06BC                     l2329:
  1445  06BC  3000               	movlw	0
  1446  06BD  00F6               	movwf	?___xxtofl+3
  1447  06BE  3000               	movlw	0
  1448  06BF  00F5               	movwf	?___xxtofl+2
  1449  06C0  3000               	movlw	0
  1450  06C1  00F4               	movwf	?___xxtofl+1
  1451  06C2  3000               	movlw	0
  1452  06C3  00F3               	movwf	?___xxtofl
  1453  06C4  2F4B               	goto	l798
  1454  06C5                     l2333:
  1455  06C5  3096               	movlw	150
  1456  06C6  00A0               	movwf	??___xxtofl
  1457  06C7  0820               	movf	??___xxtofl,w
  1458  06C8  00A5               	movwf	___xxtofl@exp
  1459  06C9  2ED7               	goto	l2337
  1460  06CA                     l2335:
  1461  06CA  3001               	movlw	1
  1462  06CB  00A0               	movwf	??___xxtofl
  1463  06CC  0820               	movf	??___xxtofl,w
  1464  06CD  07A5               	addwf	___xxtofl@exp,f
  1465  06CE  3001               	movlw	1
  1466  06CF                     u2735:
  1467  06CF  1003               	clrc
  1468  06D0  0CA9               	rrf	___xxtofl@arg+3,f
  1469  06D1  0CA8               	rrf	___xxtofl@arg+2,f
  1470  06D2  0CA7               	rrf	___xxtofl@arg+1,f
  1471  06D3  0CA6               	rrf	___xxtofl@arg,f
  1472  06D4  3EFF               	addlw	-1
  1473  06D5  1D03               	skipz
  1474  06D6  2ECF               	goto	u2735
  1475  06D7                     l2337:
  1476  06D7  30FE               	movlw	254
  1477  06D8  0529               	andwf	___xxtofl@arg+3,w
  1478  06D9  1D03               	btfss	3,2
  1479  06DA  2EDC               	goto	u2741
  1480  06DB  2EDD               	goto	u2740
  1481  06DC                     u2741:
  1482  06DC  2ECA               	goto	l2335
  1483  06DD                     u2740:
  1484  06DD  2EF9               	goto	l802
  1485  06DE                     l2339:
  1486  06DE  3001               	movlw	1
  1487  06DF  00A0               	movwf	??___xxtofl
  1488  06E0  0820               	movf	??___xxtofl,w
  1489  06E1  07A5               	addwf	___xxtofl@exp,f
  1490  06E2                     l2341:
  1491  06E2  3001               	movlw	1
  1492  06E3  07A6               	addwf	___xxtofl@arg,f
  1493  06E4  3000               	movlw	0
  1494  06E5  1803               	skipnc
  1495  06E6  3001               	movlw	1
  1496  06E7  07A7               	addwf	___xxtofl@arg+1,f
  1497  06E8  3000               	movlw	0
  1498  06E9  1803               	skipnc
  1499  06EA  3001               	movlw	1
  1500  06EB  07A8               	addwf	___xxtofl@arg+2,f
  1501  06EC  3000               	movlw	0
  1502  06ED  1803               	skipnc
  1503  06EE  3001               	movlw	1
  1504  06EF  07A9               	addwf	___xxtofl@arg+3,f
  1505  06F0                     l2343:
  1506  06F0  3001               	movlw	1
  1507  06F1                     u2755:
  1508  06F1  1003               	clrc
  1509  06F2  0CA9               	rrf	___xxtofl@arg+3,f
  1510  06F3  0CA8               	rrf	___xxtofl@arg+2,f
  1511  06F4  0CA7               	rrf	___xxtofl@arg+1,f
  1512  06F5  0CA6               	rrf	___xxtofl@arg,f
  1513  06F6  3EFF               	addlw	-1
  1514  06F7  1D03               	skipz
  1515  06F8  2EF1               	goto	u2755
  1516  06F9                     l802:
  1517  06F9  30FF               	movlw	255
  1518  06FA  0529               	andwf	___xxtofl@arg+3,w
  1519  06FB  1D03               	btfss	3,2
  1520  06FC  2EFE               	goto	u2761
  1521  06FD  2EFF               	goto	u2760
  1522  06FE                     u2761:
  1523  06FE  2EDE               	goto	l2339
  1524  06FF                     u2760:
  1525  06FF  2F0B               	goto	l2347
  1526  0700                     l2345:
  1527  0700  3001               	movlw	1
  1528  0701  02A5               	subwf	___xxtofl@exp,f
  1529  0702  3001               	movlw	1
  1530  0703  00A0               	movwf	??___xxtofl
  1531  0704                     u2775:
  1532  0704  1003               	clrc
  1533  0705  0DA6               	rlf	___xxtofl@arg,f
  1534  0706  0DA7               	rlf	___xxtofl@arg+1,f
  1535  0707  0DA8               	rlf	___xxtofl@arg+2,f
  1536  0708  0DA9               	rlf	___xxtofl@arg+3,f
  1537  0709  0BA0               	decfsz	??___xxtofl,f
  1538  070A  2F04               	goto	u2775
  1539  070B                     l2347:
  1540  070B  1BA8               	btfsc	___xxtofl@arg+2,7
  1541  070C  2F0E               	goto	u2781
  1542  070D  2F0F               	goto	u2780
  1543  070E                     u2781:
  1544  070E  2F15               	goto	l809
  1545  070F                     u2780:
  1546  070F                     l2349:
  1547  070F  3002               	movlw	2
  1548  0710  0225               	subwf	___xxtofl@exp,w
  1549  0711  1803               	skipnc
  1550  0712  2F14               	goto	u2791
  1551  0713  2F15               	goto	u2790
  1552  0714                     u2791:
  1553  0714  2F00               	goto	l2345
  1554  0715                     u2790:
  1555  0715                     l809:
  1556  0715  1825               	btfsc	___xxtofl@exp,0
  1557  0716  2F18               	goto	u2801
  1558  0717  2F19               	goto	u2800
  1559  0718                     u2801:
  1560  0718  2F21               	goto	l810
  1561  0719                     u2800:
  1562  0719                     l2351:
  1563  0719  30FF               	movlw	255
  1564  071A  05A6               	andwf	___xxtofl@arg,f
  1565  071B  30FF               	movlw	255
  1566  071C  05A7               	andwf	___xxtofl@arg+1,f
  1567  071D  307F               	movlw	127
  1568  071E  05A8               	andwf	___xxtofl@arg+2,f
  1569  071F  30FF               	movlw	255
  1570  0720  05A9               	andwf	___xxtofl@arg+3,f
  1571  0721                     l810:
  1572  0721  1003               	clrc
  1573  0722  0CA5               	rrf	___xxtofl@exp,f
  1574  0723                     l2353:
  1575  0723  0825               	movf	___xxtofl@exp,w
  1576  0724  00A0               	movwf	??___xxtofl
  1577  0725  01A1               	clrf	??___xxtofl+1
  1578  0726  01A2               	clrf	??___xxtofl+2
  1579  0727  01A3               	clrf	??___xxtofl+3
  1580  0728  3018               	movlw	24
  1581  0729                     u2815:
  1582  0729  1003               	clrc
  1583  072A  0DA0               	rlf	??___xxtofl,f
  1584  072B  0DA1               	rlf	??___xxtofl+1,f
  1585  072C  0DA2               	rlf	??___xxtofl+2,f
  1586  072D  0DA3               	rlf	??___xxtofl+3,f
  1587  072E                     u2810:
  1588  072E  3EFF               	addlw	-1
  1589  072F  1D03               	skipz
  1590  0730  2F29               	goto	u2815
  1591  0731  0820               	movf	??___xxtofl,w
  1592  0732  04A6               	iorwf	___xxtofl@arg,f
  1593  0733  0821               	movf	??___xxtofl+1,w
  1594  0734  04A7               	iorwf	___xxtofl@arg+1,f
  1595  0735  0822               	movf	??___xxtofl+2,w
  1596  0736  04A8               	iorwf	___xxtofl@arg+2,f
  1597  0737  0823               	movf	??___xxtofl+3,w
  1598  0738  04A9               	iorwf	___xxtofl@arg+3,f
  1599  0739                     l2355:
  1600  0739  0824               	movf	___xxtofl@sign,w
  1601  073A  1903               	btfsc	3,2
  1602  073B  2F3D               	goto	u2821
  1603  073C  2F3E               	goto	u2820
  1604  073D                     u2821:
  1605  073D  2F43               	goto	l2361
  1606  073E                     u2820:
  1607  073E                     l2357:
  1608  073E  1FF6               	btfss	___xxtofl@val+3,7
  1609  073F  2F41               	goto	u2831
  1610  0740  2F42               	goto	u2830
  1611  0741                     u2831:
  1612  0741  2F43               	goto	l2361
  1613  0742                     u2830:
  1614  0742                     l2359:
  1615  0742  17A9               	bsf	___xxtofl@arg+3,7
  1616  0743                     l2361:
  1617  0743  0829               	movf	___xxtofl@arg+3,w
  1618  0744  00F6               	movwf	?___xxtofl+3
  1619  0745  0828               	movf	___xxtofl@arg+2,w
  1620  0746  00F5               	movwf	?___xxtofl+2
  1621  0747  0827               	movf	___xxtofl@arg+1,w
  1622  0748  00F4               	movwf	?___xxtofl+1
  1623  0749  0826               	movf	___xxtofl@arg,w
  1624  074A  00F3               	movwf	?___xxtofl
  1625  074B                     l798:
  1626  074B  0008               	return
  1627  074C                     __end_of___xxtofl:
  1628                           
  1629                           	psect	text4
  1630  0027                     __ptext4:	
  1631 ;; *************** function ___flmul *****************
  1632 ;; Defined at:
  1633 ;;		line 8 in file "C:\Program Files\Microchip\xc8\v2.31\pic\sources\c90\common\sprcmul.c"
  1634 ;; Parameters:    Size  Location     Type
  1635 ;;  b               4   10[BANK0 ] unsigned char 
  1636 ;;  a               4   14[BANK0 ] unsigned char 
  1637 ;; Auto vars:     Size  Location     Type
  1638 ;;  prod            4   30[BANK0 ] struct .
  1639 ;;  grs             4   24[BANK0 ] unsigned long 
  1640 ;;  temp            2   34[BANK0 ] struct .
  1641 ;;  bexp            1   29[BANK0 ] unsigned char 
  1642 ;;  aexp            1   28[BANK0 ] unsigned char 
  1643 ;;  sign            1   23[BANK0 ] unsigned char 
  1644 ;; Return value:  Size  Location     Type
  1645 ;;                  4   10[BANK0 ] unsigned char 
  1646 ;; Registers used:
  1647 ;;		wreg, status,2, status,0, btemp+1, pclath, cstack
  1648 ;; Tracked objects:
  1649 ;;		On entry : 0/0
  1650 ;;		On exit  : 0/0
  1651 ;;		Unchanged: 0/0
  1652 ;; Data sizes:     COMMON   BANK0   BANK1   BANK3   BANK2
  1653 ;;      Params:         0       8       0       0       0
  1654 ;;      Locals:         0      13       0       0       0
  1655 ;;      Temps:          0       5       0       0       0
  1656 ;;      Totals:         0      26       0       0       0
  1657 ;;Total ram usage:       26 bytes
  1658 ;; Hardware stack levels used:    1
  1659 ;; Hardware stack levels required when called:    2
  1660 ;; This function calls:
  1661 ;;		__Umul8_16
  1662 ;; This function is called by:
  1663 ;;		_main
  1664 ;;		_floattostr_
  1665 ;; This function uses a non-reentrant model
  1666 ;;
  1667                           
  1668                           
  1669                           ;psect for function ___flmul
  1670  0027                     ___flmul:
  1671  0027                     l1907:	
  1672                           ;incstack = 0
  1673                           ; Regs used in ___flmul: [wreg+status,2+status,0+btemp+1+pclath+cstack]
  1674                           
  1675  0027  1283               	bcf	3,5	;RP0=0, select bank0
  1676  0028  1303               	bcf	3,6	;RP1=0, select bank0
  1677  0029  082D               	movf	___flmul@b+3,w
  1678  002A  3980               	andlw	128
  1679  002B  00B2               	movwf	??___flmul
  1680  002C  0832               	movf	??___flmul,w
  1681  002D  00B7               	movwf	___flmul@sign
  1682  002E                     l1909:
  1683  002E  082D               	movf	___flmul@b+3,w
  1684  002F  00B2               	movwf	??___flmul
  1685  0030  0732               	addwf	??___flmul,w
  1686  0031  00B3               	movwf	??___flmul+1
  1687  0032  0833               	movf	??___flmul+1,w
  1688  0033  00BD               	movwf	___flmul@bexp
  1689  0034                     l1911:
  1690  0034  1FAC               	btfss	___flmul@b+2,7
  1691  0035  2837               	goto	u1781
  1692  0036  2838               	goto	u1780
  1693  0037                     u1781:
  1694  0037  2839               	goto	l1915
  1695  0038                     u1780:
  1696  0038                     l1913:
  1697  0038  143D               	bsf	___flmul@bexp,0
  1698  0039                     l1915:
  1699  0039  083D               	movf	___flmul@bexp,w
  1700  003A  1903               	btfsc	3,2
  1701  003B  283D               	goto	u1791
  1702  003C  283E               	goto	u1790
  1703  003D                     u1791:
  1704  003D  284D               	goto	l1923
  1705  003E                     u1790:
  1706  003E                     l1917:
  1707  003E  0A3D               	incf	___flmul@bexp,w
  1708  003F  1D03               	btfss	3,2
  1709  0040  2842               	goto	u1801
  1710  0041  2843               	goto	u1800
  1711  0042                     u1801:
  1712  0042  284B               	goto	l1921
  1713  0043                     u1800:
  1714  0043                     l1919:
  1715  0043  3000               	movlw	0
  1716  0044  00AD               	movwf	___flmul@b+3
  1717  0045  3000               	movlw	0
  1718  0046  00AC               	movwf	___flmul@b+2
  1719  0047  3000               	movlw	0
  1720  0048  00AB               	movwf	___flmul@b+1
  1721  0049  3000               	movlw	0
  1722  004A  00AA               	movwf	___flmul@b
  1723  004B                     l1921:
  1724  004B  17AC               	bsf	___flmul@b+2,7
  1725  004C  2855               	goto	l1925
  1726  004D                     l1923:
  1727  004D  3000               	movlw	0
  1728  004E  00AD               	movwf	___flmul@b+3
  1729  004F  3000               	movlw	0
  1730  0050  00AC               	movwf	___flmul@b+2
  1731  0051  3000               	movlw	0
  1732  0052  00AB               	movwf	___flmul@b+1
  1733  0053  3000               	movlw	0
  1734  0054  00AA               	movwf	___flmul@b
  1735  0055                     l1925:
  1736  0055  0831               	movf	___flmul@a+3,w
  1737  0056  3980               	andlw	128
  1738  0057  00B2               	movwf	??___flmul
  1739  0058  0832               	movf	??___flmul,w
  1740  0059  06B7               	xorwf	___flmul@sign,f
  1741  005A                     l1927:
  1742  005A  0831               	movf	___flmul@a+3,w
  1743  005B  00B2               	movwf	??___flmul
  1744  005C  0732               	addwf	??___flmul,w
  1745  005D  00B3               	movwf	??___flmul+1
  1746  005E  0833               	movf	??___flmul+1,w
  1747  005F  00BC               	movwf	___flmul@aexp
  1748  0060                     l1929:
  1749  0060  1FB0               	btfss	___flmul@a+2,7
  1750  0061  2863               	goto	u1811
  1751  0062  2864               	goto	u1810
  1752  0063                     u1811:
  1753  0063  2865               	goto	l1933
  1754  0064                     u1810:
  1755  0064                     l1931:
  1756  0064  143C               	bsf	___flmul@aexp,0
  1757  0065                     l1933:
  1758  0065  083C               	movf	___flmul@aexp,w
  1759  0066  1903               	btfsc	3,2
  1760  0067  2869               	goto	u1821
  1761  0068  286A               	goto	u1820
  1762  0069                     u1821:
  1763  0069  2879               	goto	l1941
  1764  006A                     u1820:
  1765  006A                     l1935:
  1766  006A  0A3C               	incf	___flmul@aexp,w
  1767  006B  1D03               	btfss	3,2
  1768  006C  286E               	goto	u1831
  1769  006D  286F               	goto	u1830
  1770  006E                     u1831:
  1771  006E  2877               	goto	l1939
  1772  006F                     u1830:
  1773  006F                     l1937:
  1774  006F  3000               	movlw	0
  1775  0070  00B1               	movwf	___flmul@a+3
  1776  0071  3000               	movlw	0
  1777  0072  00B0               	movwf	___flmul@a+2
  1778  0073  3000               	movlw	0
  1779  0074  00AF               	movwf	___flmul@a+1
  1780  0075  3000               	movlw	0
  1781  0076  00AE               	movwf	___flmul@a
  1782  0077                     l1939:
  1783  0077  17B0               	bsf	___flmul@a+2,7
  1784  0078  2881               	goto	l1943
  1785  0079                     l1941:
  1786  0079  3000               	movlw	0
  1787  007A  00B1               	movwf	___flmul@a+3
  1788  007B  3000               	movlw	0
  1789  007C  00B0               	movwf	___flmul@a+2
  1790  007D  3000               	movlw	0
  1791  007E  00AF               	movwf	___flmul@a+1
  1792  007F  3000               	movlw	0
  1793  0080  00AE               	movwf	___flmul@a
  1794  0081                     l1943:
  1795  0081  083C               	movf	___flmul@aexp,w
  1796  0082  1903               	btfsc	3,2
  1797  0083  2885               	goto	u1841
  1798  0084  2886               	goto	u1840
  1799  0085                     u1841:
  1800  0085  288B               	goto	l1947
  1801  0086                     u1840:
  1802  0086                     l1945:
  1803  0086  083D               	movf	___flmul@bexp,w
  1804  0087  1D03               	btfss	3,2
  1805  0088  288A               	goto	u1851
  1806  0089  288B               	goto	u1850
  1807  008A                     u1851:
  1808  008A  2894               	goto	l1951
  1809  008B                     u1850:
  1810  008B                     l1947:
  1811  008B  3000               	movlw	0
  1812  008C  00AD               	movwf	?___flmul+3
  1813  008D  3000               	movlw	0
  1814  008E  00AC               	movwf	?___flmul+2
  1815  008F  3000               	movlw	0
  1816  0090  00AB               	movwf	?___flmul+1
  1817  0091  3000               	movlw	0
  1818  0092  00AA               	movwf	?___flmul
  1819  0093  2B87               	goto	l752
  1820  0094                     l1951:
  1821  0094  082A               	movf	___flmul@b,w
  1822  0095  00B2               	movwf	??___flmul
  1823  0096  0832               	movf	??___flmul,w
  1824  0097  00F3               	movwf	__Umul8_16@multiplicand
  1825  0098  0830               	movf	___flmul@a+2,w
  1826  0099  120A  158A  26D0  120A  118A  	fcall	__Umul8_16
  1827  009E  0874               	movf	?__Umul8_16+1,w
  1828  009F  1283               	bcf	3,5	;RP0=0, select bank0
  1829  00A0  1303               	bcf	3,6	;RP1=0, select bank0
  1830  00A1  00C3               	movwf	___flmul@temp+1
  1831  00A2  0873               	movf	?__Umul8_16,w
  1832  00A3  00C2               	movwf	___flmul@temp
  1833  00A4                     l1953:
  1834  00A4  0842               	movf	___flmul@temp,w
  1835  00A5  00B2               	movwf	??___flmul
  1836  00A6  01B3               	clrf	??___flmul+1
  1837  00A7  01B4               	clrf	??___flmul+2
  1838  00A8  01B5               	clrf	??___flmul+3
  1839  00A9  0835               	movf	??___flmul+3,w
  1840  00AA  00BB               	movwf	___flmul@grs+3
  1841  00AB  0834               	movf	??___flmul+2,w
  1842  00AC  00BA               	movwf	___flmul@grs+2
  1843  00AD  0833               	movf	??___flmul+1,w
  1844  00AE  00B9               	movwf	___flmul@grs+1
  1845  00AF  0832               	movf	??___flmul,w
  1846  00B0  00B8               	movwf	___flmul@grs
  1847  00B1                     l1955:
  1848  00B1  0843               	movf	___flmul@temp+1,w
  1849  00B2  00B2               	movwf	??___flmul
  1850  00B3  01B3               	clrf	??___flmul+1
  1851  00B4  01B4               	clrf	??___flmul+2
  1852  00B5  01B5               	clrf	??___flmul+3
  1853  00B6  0835               	movf	??___flmul+3,w
  1854  00B7  00C1               	movwf	___flmul@prod+3
  1855  00B8  0834               	movf	??___flmul+2,w
  1856  00B9  00C0               	movwf	___flmul@prod+2
  1857  00BA  0833               	movf	??___flmul+1,w
  1858  00BB  00BF               	movwf	___flmul@prod+1
  1859  00BC  0832               	movf	??___flmul,w
  1860  00BD  00BE               	movwf	___flmul@prod
  1861  00BE  082B               	movf	___flmul@b+1,w
  1862  00BF  00B2               	movwf	??___flmul
  1863  00C0  0832               	movf	??___flmul,w
  1864  00C1  00F3               	movwf	__Umul8_16@multiplicand
  1865  00C2  082F               	movf	___flmul@a+1,w
  1866  00C3  120A  158A  26D0  120A  118A  	fcall	__Umul8_16
  1867  00C8  0874               	movf	?__Umul8_16+1,w
  1868  00C9  1283               	bcf	3,5	;RP0=0, select bank0
  1869  00CA  1303               	bcf	3,6	;RP1=0, select bank0
  1870  00CB  00C3               	movwf	___flmul@temp+1
  1871  00CC  0873               	movf	?__Umul8_16,w
  1872  00CD  00C2               	movwf	___flmul@temp
  1873  00CE                     l1957:
  1874  00CE  0842               	movf	___flmul@temp,w
  1875  00CF  00B2               	movwf	??___flmul
  1876  00D0  01B3               	clrf	??___flmul+1
  1877  00D1  01B4               	clrf	??___flmul+2
  1878  00D2  01B5               	clrf	??___flmul+3
  1879  00D3  0832               	movf	??___flmul,w
  1880  00D4  07B8               	addwf	___flmul@grs,f
  1881  00D5  0833               	movf	??___flmul+1,w
  1882  00D6  1103               	clrz
  1883  00D7  1803               	skipnc
  1884  00D8  3E01               	addlw	1
  1885  00D9  1903               	skipnz
  1886  00DA  28DC               	goto	u1861
  1887  00DB  07B9               	addwf	___flmul@grs+1,f
  1888  00DC                     u1861:
  1889  00DC  0834               	movf	??___flmul+2,w
  1890  00DD  1103               	clrz
  1891  00DE  1803               	skipnc
  1892  00DF  3E01               	addlw	1
  1893  00E0  1903               	skipnz
  1894  00E1  28E3               	goto	u1862
  1895  00E2  07BA               	addwf	___flmul@grs+2,f
  1896  00E3                     u1862:
  1897  00E3  0835               	movf	??___flmul+3,w
  1898  00E4  1103               	clrz
  1899  00E5  1803               	skipnc
  1900  00E6  3E01               	addlw	1
  1901  00E7  1903               	skipnz
  1902  00E8  28EA               	goto	u1863
  1903  00E9  07BB               	addwf	___flmul@grs+3,f
  1904  00EA                     u1863:
  1905  00EA                     l1959:
  1906  00EA  0843               	movf	___flmul@temp+1,w
  1907  00EB  00B2               	movwf	??___flmul
  1908  00EC  01B3               	clrf	??___flmul+1
  1909  00ED  01B4               	clrf	??___flmul+2
  1910  00EE  01B5               	clrf	??___flmul+3
  1911  00EF  0832               	movf	??___flmul,w
  1912  00F0  07BE               	addwf	___flmul@prod,f
  1913  00F1  0833               	movf	??___flmul+1,w
  1914  00F2  1103               	clrz
  1915  00F3  1803               	skipnc
  1916  00F4  3E01               	addlw	1
  1917  00F5  1903               	skipnz
  1918  00F6  28F8               	goto	u1871
  1919  00F7  07BF               	addwf	___flmul@prod+1,f
  1920  00F8                     u1871:
  1921  00F8  0834               	movf	??___flmul+2,w
  1922  00F9  1103               	clrz
  1923  00FA  1803               	skipnc
  1924  00FB  3E01               	addlw	1
  1925  00FC  1903               	skipnz
  1926  00FD  28FF               	goto	u1872
  1927  00FE  07C0               	addwf	___flmul@prod+2,f
  1928  00FF                     u1872:
  1929  00FF  0835               	movf	??___flmul+3,w
  1930  0100  1103               	clrz
  1931  0101  1803               	skipnc
  1932  0102  3E01               	addlw	1
  1933  0103  1903               	skipnz
  1934  0104  2906               	goto	u1873
  1935  0105  07C1               	addwf	___flmul@prod+3,f
  1936  0106                     u1873:
  1937  0106  082C               	movf	___flmul@b+2,w
  1938  0107  00B2               	movwf	??___flmul
  1939  0108  0832               	movf	??___flmul,w
  1940  0109  00F3               	movwf	__Umul8_16@multiplicand
  1941  010A  082E               	movf	___flmul@a,w
  1942  010B  120A  158A  26D0  120A  118A  	fcall	__Umul8_16
  1943  0110  0874               	movf	?__Umul8_16+1,w
  1944  0111  1283               	bcf	3,5	;RP0=0, select bank0
  1945  0112  1303               	bcf	3,6	;RP1=0, select bank0
  1946  0113  00C3               	movwf	___flmul@temp+1
  1947  0114  0873               	movf	?__Umul8_16,w
  1948  0115  00C2               	movwf	___flmul@temp
  1949  0116                     l1961:
  1950  0116  0842               	movf	___flmul@temp,w
  1951  0117  00B2               	movwf	??___flmul
  1952  0118  01B3               	clrf	??___flmul+1
  1953  0119  01B4               	clrf	??___flmul+2
  1954  011A  01B5               	clrf	??___flmul+3
  1955  011B  0832               	movf	??___flmul,w
  1956  011C  07B8               	addwf	___flmul@grs,f
  1957  011D  0833               	movf	??___flmul+1,w
  1958  011E  1103               	clrz
  1959  011F  1803               	skipnc
  1960  0120  3E01               	addlw	1
  1961  0121  1903               	skipnz
  1962  0122  2924               	goto	u1881
  1963  0123  07B9               	addwf	___flmul@grs+1,f
  1964  0124                     u1881:
  1965  0124  0834               	movf	??___flmul+2,w
  1966  0125  1103               	clrz
  1967  0126  1803               	skipnc
  1968  0127  3E01               	addlw	1
  1969  0128  1903               	skipnz
  1970  0129  292B               	goto	u1882
  1971  012A  07BA               	addwf	___flmul@grs+2,f
  1972  012B                     u1882:
  1973  012B  0835               	movf	??___flmul+3,w
  1974  012C  1103               	clrz
  1975  012D  1803               	skipnc
  1976  012E  3E01               	addlw	1
  1977  012F  1903               	skipnz
  1978  0130  2932               	goto	u1883
  1979  0131  07BB               	addwf	___flmul@grs+3,f
  1980  0132                     u1883:
  1981  0132                     l1963:
  1982  0132  0843               	movf	___flmul@temp+1,w
  1983  0133  00B2               	movwf	??___flmul
  1984  0134  01B3               	clrf	??___flmul+1
  1985  0135  01B4               	clrf	??___flmul+2
  1986  0136  01B5               	clrf	??___flmul+3
  1987  0137  0832               	movf	??___flmul,w
  1988  0138  07BE               	addwf	___flmul@prod,f
  1989  0139  0833               	movf	??___flmul+1,w
  1990  013A  1103               	clrz
  1991  013B  1803               	skipnc
  1992  013C  3E01               	addlw	1
  1993  013D  1903               	skipnz
  1994  013E  2940               	goto	u1891
  1995  013F  07BF               	addwf	___flmul@prod+1,f
  1996  0140                     u1891:
  1997  0140  0834               	movf	??___flmul+2,w
  1998  0141  1103               	clrz
  1999  0142  1803               	skipnc
  2000  0143  3E01               	addlw	1
  2001  0144  1903               	skipnz
  2002  0145  2947               	goto	u1892
  2003  0146  07C0               	addwf	___flmul@prod+2,f
  2004  0147                     u1892:
  2005  0147  0835               	movf	??___flmul+3,w
  2006  0148  1103               	clrz
  2007  0149  1803               	skipnc
  2008  014A  3E01               	addlw	1
  2009  014B  1903               	skipnz
  2010  014C  294E               	goto	u1893
  2011  014D  07C1               	addwf	___flmul@prod+3,f
  2012  014E                     u1893:
  2013  014E                     l1965:
  2014  014E  3008               	movlw	8
  2015  014F  00B2               	movwf	??___flmul
  2016  0150                     u1905:
  2017  0150  1003               	clrc
  2018  0151  0DB8               	rlf	___flmul@grs,f
  2019  0152  0DB9               	rlf	___flmul@grs+1,f
  2020  0153  0DBA               	rlf	___flmul@grs+2,f
  2021  0154  0DBB               	rlf	___flmul@grs+3,f
  2022  0155  0BB2               	decfsz	??___flmul,f
  2023  0156  2950               	goto	u1905
  2024  0157                     l1967:
  2025  0157  082B               	movf	___flmul@b+1,w
  2026  0158  00B2               	movwf	??___flmul
  2027  0159  0832               	movf	??___flmul,w
  2028  015A  00F3               	movwf	__Umul8_16@multiplicand
  2029  015B  082E               	movf	___flmul@a,w
  2030  015C  120A  158A  26D0  120A  118A  	fcall	__Umul8_16
  2031  0161  0874               	movf	?__Umul8_16+1,w
  2032  0162  1283               	bcf	3,5	;RP0=0, select bank0
  2033  0163  1303               	bcf	3,6	;RP1=0, select bank0
  2034  0164  00C3               	movwf	___flmul@temp+1
  2035  0165  0873               	movf	?__Umul8_16,w
  2036  0166  00C2               	movwf	___flmul@temp
  2037  0167                     l1969:
  2038  0167  0842               	movf	___flmul@temp,w
  2039  0168  00B2               	movwf	??___flmul
  2040  0169  0843               	movf	___flmul@temp+1,w
  2041  016A  00B3               	movwf	??___flmul+1
  2042  016B  01B4               	clrf	??___flmul+2
  2043  016C  01B5               	clrf	??___flmul+3
  2044  016D  0832               	movf	??___flmul,w
  2045  016E  07B8               	addwf	___flmul@grs,f
  2046  016F  0833               	movf	??___flmul+1,w
  2047  0170  1103               	clrz
  2048  0171  1803               	skipnc
  2049  0172  3E01               	addlw	1
  2050  0173  1903               	skipnz
  2051  0174  2976               	goto	u1911
  2052  0175  07B9               	addwf	___flmul@grs+1,f
  2053  0176                     u1911:
  2054  0176  0834               	movf	??___flmul+2,w
  2055  0177  1103               	clrz
  2056  0178  1803               	skipnc
  2057  0179  3E01               	addlw	1
  2058  017A  1903               	skipnz
  2059  017B  297D               	goto	u1912
  2060  017C  07BA               	addwf	___flmul@grs+2,f
  2061  017D                     u1912:
  2062  017D  0835               	movf	??___flmul+3,w
  2063  017E  1103               	clrz
  2064  017F  1803               	skipnc
  2065  0180  3E01               	addlw	1
  2066  0181  1903               	skipnz
  2067  0182  2984               	goto	u1913
  2068  0183  07BB               	addwf	___flmul@grs+3,f
  2069  0184                     u1913:
  2070  0184                     l1971:
  2071  0184  082A               	movf	___flmul@b,w
  2072  0185  00B2               	movwf	??___flmul
  2073  0186  0832               	movf	??___flmul,w
  2074  0187  00F3               	movwf	__Umul8_16@multiplicand
  2075  0188  082F               	movf	___flmul@a+1,w
  2076  0189  120A  158A  26D0  120A  118A  	fcall	__Umul8_16
  2077  018E  0874               	movf	?__Umul8_16+1,w
  2078  018F  1283               	bcf	3,5	;RP0=0, select bank0
  2079  0190  1303               	bcf	3,6	;RP1=0, select bank0
  2080  0191  00C3               	movwf	___flmul@temp+1
  2081  0192  0873               	movf	?__Umul8_16,w
  2082  0193  00C2               	movwf	___flmul@temp
  2083  0194                     l1973:
  2084  0194  0842               	movf	___flmul@temp,w
  2085  0195  00B2               	movwf	??___flmul
  2086  0196  0843               	movf	___flmul@temp+1,w
  2087  0197  00B3               	movwf	??___flmul+1
  2088  0198  01B4               	clrf	??___flmul+2
  2089  0199  01B5               	clrf	??___flmul+3
  2090  019A  0832               	movf	??___flmul,w
  2091  019B  07B8               	addwf	___flmul@grs,f
  2092  019C  0833               	movf	??___flmul+1,w
  2093  019D  1103               	clrz
  2094  019E  1803               	skipnc
  2095  019F  3E01               	addlw	1
  2096  01A0  1903               	skipnz
  2097  01A1  29A3               	goto	u1921
  2098  01A2  07B9               	addwf	___flmul@grs+1,f
  2099  01A3                     u1921:
  2100  01A3  0834               	movf	??___flmul+2,w
  2101  01A4  1103               	clrz
  2102  01A5  1803               	skipnc
  2103  01A6  3E01               	addlw	1
  2104  01A7  1903               	skipnz
  2105  01A8  29AA               	goto	u1922
  2106  01A9  07BA               	addwf	___flmul@grs+2,f
  2107  01AA                     u1922:
  2108  01AA  0835               	movf	??___flmul+3,w
  2109  01AB  1103               	clrz
  2110  01AC  1803               	skipnc
  2111  01AD  3E01               	addlw	1
  2112  01AE  1903               	skipnz
  2113  01AF  29B1               	goto	u1923
  2114  01B0  07BB               	addwf	___flmul@grs+3,f
  2115  01B1                     u1923:
  2116  01B1                     l1975:
  2117  01B1  3008               	movlw	8
  2118  01B2  00B2               	movwf	??___flmul
  2119  01B3                     u1935:
  2120  01B3  1003               	clrc
  2121  01B4  0DB8               	rlf	___flmul@grs,f
  2122  01B5  0DB9               	rlf	___flmul@grs+1,f
  2123  01B6  0DBA               	rlf	___flmul@grs+2,f
  2124  01B7  0DBB               	rlf	___flmul@grs+3,f
  2125  01B8  0BB2               	decfsz	??___flmul,f
  2126  01B9  29B3               	goto	u1935
  2127  01BA  082A               	movf	___flmul@b,w
  2128  01BB  00B2               	movwf	??___flmul
  2129  01BC  0832               	movf	??___flmul,w
  2130  01BD  00F3               	movwf	__Umul8_16@multiplicand
  2131  01BE  082E               	movf	___flmul@a,w
  2132  01BF  120A  158A  26D0  120A  118A  	fcall	__Umul8_16
  2133  01C4  0874               	movf	?__Umul8_16+1,w
  2134  01C5  1283               	bcf	3,5	;RP0=0, select bank0
  2135  01C6  1303               	bcf	3,6	;RP1=0, select bank0
  2136  01C7  00C3               	movwf	___flmul@temp+1
  2137  01C8  0873               	movf	?__Umul8_16,w
  2138  01C9  00C2               	movwf	___flmul@temp
  2139  01CA                     l1977:
  2140  01CA  0842               	movf	___flmul@temp,w
  2141  01CB  00B2               	movwf	??___flmul
  2142  01CC  0843               	movf	___flmul@temp+1,w
  2143  01CD  00B3               	movwf	??___flmul+1
  2144  01CE  01B4               	clrf	??___flmul+2
  2145  01CF  01B5               	clrf	??___flmul+3
  2146  01D0  0832               	movf	??___flmul,w
  2147  01D1  07B8               	addwf	___flmul@grs,f
  2148  01D2  0833               	movf	??___flmul+1,w
  2149  01D3  1103               	clrz
  2150  01D4  1803               	skipnc
  2151  01D5  3E01               	addlw	1
  2152  01D6  1903               	skipnz
  2153  01D7  29D9               	goto	u1941
  2154  01D8  07B9               	addwf	___flmul@grs+1,f
  2155  01D9                     u1941:
  2156  01D9  0834               	movf	??___flmul+2,w
  2157  01DA  1103               	clrz
  2158  01DB  1803               	skipnc
  2159  01DC  3E01               	addlw	1
  2160  01DD  1903               	skipnz
  2161  01DE  29E0               	goto	u1942
  2162  01DF  07BA               	addwf	___flmul@grs+2,f
  2163  01E0                     u1942:
  2164  01E0  0835               	movf	??___flmul+3,w
  2165  01E1  1103               	clrz
  2166  01E2  1803               	skipnc
  2167  01E3  3E01               	addlw	1
  2168  01E4  1903               	skipnz
  2169  01E5  29E7               	goto	u1943
  2170  01E6  07BB               	addwf	___flmul@grs+3,f
  2171  01E7                     u1943:
  2172  01E7                     l1979:
  2173  01E7  082B               	movf	___flmul@b+1,w
  2174  01E8  00B2               	movwf	??___flmul
  2175  01E9  0832               	movf	??___flmul,w
  2176  01EA  00F3               	movwf	__Umul8_16@multiplicand
  2177  01EB  0830               	movf	___flmul@a+2,w
  2178  01EC  120A  158A  26D0  120A  118A  	fcall	__Umul8_16
  2179  01F1  0874               	movf	?__Umul8_16+1,w
  2180  01F2  1283               	bcf	3,5	;RP0=0, select bank0
  2181  01F3  1303               	bcf	3,6	;RP1=0, select bank0
  2182  01F4  00C3               	movwf	___flmul@temp+1
  2183  01F5  0873               	movf	?__Umul8_16,w
  2184  01F6  00C2               	movwf	___flmul@temp
  2185  01F7  0842               	movf	___flmul@temp,w
  2186  01F8  00B2               	movwf	??___flmul
  2187  01F9  0843               	movf	___flmul@temp+1,w
  2188  01FA  00B3               	movwf	??___flmul+1
  2189  01FB  01B4               	clrf	??___flmul+2
  2190  01FC  01B5               	clrf	??___flmul+3
  2191  01FD  0832               	movf	??___flmul,w
  2192  01FE  07BE               	addwf	___flmul@prod,f
  2193  01FF  0833               	movf	??___flmul+1,w
  2194  0200  1103               	clrz
  2195  0201  1803               	skipnc
  2196  0202  3E01               	addlw	1
  2197  0203  1903               	skipnz
  2198  0204  2A06               	goto	u1951
  2199  0205  07BF               	addwf	___flmul@prod+1,f
  2200  0206                     u1951:
  2201  0206  0834               	movf	??___flmul+2,w
  2202  0207  1103               	clrz
  2203  0208  1803               	skipnc
  2204  0209  3E01               	addlw	1
  2205  020A  1903               	skipnz
  2206  020B  2A0D               	goto	u1952
  2207  020C  07C0               	addwf	___flmul@prod+2,f
  2208  020D                     u1952:
  2209  020D  0835               	movf	??___flmul+3,w
  2210  020E  1103               	clrz
  2211  020F  1803               	skipnc
  2212  0210  3E01               	addlw	1
  2213  0211  1903               	skipnz
  2214  0212  2A14               	goto	u1953
  2215  0213  07C1               	addwf	___flmul@prod+3,f
  2216  0214                     u1953:
  2217  0214                     l1981:
  2218  0214  082C               	movf	___flmul@b+2,w
  2219  0215  00B2               	movwf	??___flmul
  2220  0216  0832               	movf	??___flmul,w
  2221  0217  00F3               	movwf	__Umul8_16@multiplicand
  2222  0218  082F               	movf	___flmul@a+1,w
  2223  0219  120A  158A  26D0  120A  118A  	fcall	__Umul8_16
  2224  021E  0874               	movf	?__Umul8_16+1,w
  2225  021F  1283               	bcf	3,5	;RP0=0, select bank0
  2226  0220  1303               	bcf	3,6	;RP1=0, select bank0
  2227  0221  00C3               	movwf	___flmul@temp+1
  2228  0222  0873               	movf	?__Umul8_16,w
  2229  0223  00C2               	movwf	___flmul@temp
  2230  0224                     l1983:
  2231  0224  0842               	movf	___flmul@temp,w
  2232  0225  00B2               	movwf	??___flmul
  2233  0226  0843               	movf	___flmul@temp+1,w
  2234  0227  00B3               	movwf	??___flmul+1
  2235  0228  01B4               	clrf	??___flmul+2
  2236  0229  01B5               	clrf	??___flmul+3
  2237  022A  0832               	movf	??___flmul,w
  2238  022B  07BE               	addwf	___flmul@prod,f
  2239  022C  0833               	movf	??___flmul+1,w
  2240  022D  1103               	clrz
  2241  022E  1803               	skipnc
  2242  022F  3E01               	addlw	1
  2243  0230  1903               	skipnz
  2244  0231  2A33               	goto	u1961
  2245  0232  07BF               	addwf	___flmul@prod+1,f
  2246  0233                     u1961:
  2247  0233  0834               	movf	??___flmul+2,w
  2248  0234  1103               	clrz
  2249  0235  1803               	skipnc
  2250  0236  3E01               	addlw	1
  2251  0237  1903               	skipnz
  2252  0238  2A3A               	goto	u1962
  2253  0239  07C0               	addwf	___flmul@prod+2,f
  2254  023A                     u1962:
  2255  023A  0835               	movf	??___flmul+3,w
  2256  023B  1103               	clrz
  2257  023C  1803               	skipnc
  2258  023D  3E01               	addlw	1
  2259  023E  1903               	skipnz
  2260  023F  2A41               	goto	u1963
  2261  0240  07C1               	addwf	___flmul@prod+3,f
  2262  0241                     u1963:
  2263  0241  082C               	movf	___flmul@b+2,w
  2264  0242  00B2               	movwf	??___flmul
  2265  0243  0832               	movf	??___flmul,w
  2266  0244  00F3               	movwf	__Umul8_16@multiplicand
  2267  0245  0830               	movf	___flmul@a+2,w
  2268  0246  120A  158A  26D0  120A  118A  	fcall	__Umul8_16
  2269  024B  0874               	movf	?__Umul8_16+1,w
  2270  024C  1283               	bcf	3,5	;RP0=0, select bank0
  2271  024D  1303               	bcf	3,6	;RP1=0, select bank0
  2272  024E  00C3               	movwf	___flmul@temp+1
  2273  024F  0873               	movf	?__Umul8_16,w
  2274  0250  00C2               	movwf	___flmul@temp
  2275  0251                     l1985:
  2276  0251  0842               	movf	___flmul@temp,w
  2277  0252  00B2               	movwf	??___flmul
  2278  0253  0843               	movf	___flmul@temp+1,w
  2279  0254  00B3               	movwf	??___flmul+1
  2280  0255  01B4               	clrf	??___flmul+2
  2281  0256  01B5               	clrf	??___flmul+3
  2282  0257  3008               	movlw	8
  2283  0258                     u1975:
  2284  0258  1003               	clrc
  2285  0259  0DB2               	rlf	??___flmul,f
  2286  025A  0DB3               	rlf	??___flmul+1,f
  2287  025B  0DB4               	rlf	??___flmul+2,f
  2288  025C  0DB5               	rlf	??___flmul+3,f
  2289  025D                     u1970:
  2290  025D  3EFF               	addlw	-1
  2291  025E  1D03               	skipz
  2292  025F  2A58               	goto	u1975
  2293  0260  0832               	movf	??___flmul,w
  2294  0261  07BE               	addwf	___flmul@prod,f
  2295  0262  0833               	movf	??___flmul+1,w
  2296  0263  1103               	clrz
  2297  0264  1803               	skipnc
  2298  0265  3E01               	addlw	1
  2299  0266  1903               	skipnz
  2300  0267  2A69               	goto	u1981
  2301  0268  07BF               	addwf	___flmul@prod+1,f
  2302  0269                     u1981:
  2303  0269  0834               	movf	??___flmul+2,w
  2304  026A  1103               	clrz
  2305  026B  1803               	skipnc
  2306  026C  3E01               	addlw	1
  2307  026D  1903               	skipnz
  2308  026E  2A70               	goto	u1982
  2309  026F  07C0               	addwf	___flmul@prod+2,f
  2310  0270                     u1982:
  2311  0270  0835               	movf	??___flmul+3,w
  2312  0271  1103               	clrz
  2313  0272  1803               	skipnc
  2314  0273  3E01               	addlw	1
  2315  0274  1903               	skipnz
  2316  0275  2A77               	goto	u1983
  2317  0276  07C1               	addwf	___flmul@prod+3,f
  2318  0277                     u1983:
  2319  0277                     l1987:
  2320  0277  0838               	movf	___flmul@grs,w
  2321  0278  00B2               	movwf	??___flmul
  2322  0279  0839               	movf	___flmul@grs+1,w
  2323  027A  00B3               	movwf	??___flmul+1
  2324  027B  083A               	movf	___flmul@grs+2,w
  2325  027C  00B4               	movwf	??___flmul+2
  2326  027D  083B               	movf	___flmul@grs+3,w
  2327  027E  00B5               	movwf	??___flmul+3
  2328  027F  3018               	movlw	24
  2329  0280                     u1995:
  2330  0280  1003               	clrc
  2331  0281  0CB5               	rrf	??___flmul+3,f
  2332  0282  0CB4               	rrf	??___flmul+2,f
  2333  0283  0CB3               	rrf	??___flmul+1,f
  2334  0284  0CB2               	rrf	??___flmul,f
  2335  0285                     u1990:
  2336  0285  3EFF               	addlw	-1
  2337  0286  1D03               	skipz
  2338  0287  2A80               	goto	u1995
  2339  0288  0832               	movf	??___flmul,w
  2340  0289  07BE               	addwf	___flmul@prod,f
  2341  028A  0833               	movf	??___flmul+1,w
  2342  028B  1103               	clrz
  2343  028C  1803               	skipnc
  2344  028D  3E01               	addlw	1
  2345  028E  1903               	skipnz
  2346  028F  2A91               	goto	u2001
  2347  0290  07BF               	addwf	___flmul@prod+1,f
  2348  0291                     u2001:
  2349  0291  0834               	movf	??___flmul+2,w
  2350  0292  1103               	clrz
  2351  0293  1803               	skipnc
  2352  0294  3E01               	addlw	1
  2353  0295  1903               	skipnz
  2354  0296  2A98               	goto	u2002
  2355  0297  07C0               	addwf	___flmul@prod+2,f
  2356  0298                     u2002:
  2357  0298  0835               	movf	??___flmul+3,w
  2358  0299  1103               	clrz
  2359  029A  1803               	skipnc
  2360  029B  3E01               	addlw	1
  2361  029C  1903               	skipnz
  2362  029D  2A9F               	goto	u2003
  2363  029E  07C1               	addwf	___flmul@prod+3,f
  2364  029F                     u2003:
  2365  029F                     l1989:
  2366  029F  3008               	movlw	8
  2367  02A0  00B2               	movwf	??___flmul
  2368  02A1                     u2015:
  2369  02A1  1003               	clrc
  2370  02A2  0DB8               	rlf	___flmul@grs,f
  2371  02A3  0DB9               	rlf	___flmul@grs+1,f
  2372  02A4  0DBA               	rlf	___flmul@grs+2,f
  2373  02A5  0DBB               	rlf	___flmul@grs+3,f
  2374  02A6  0BB2               	decfsz	??___flmul,f
  2375  02A7  2AA1               	goto	u2015
  2376  02A8                     l1991:
  2377  02A8  083D               	movf	___flmul@bexp,w
  2378  02A9  073C               	addwf	___flmul@aexp,w
  2379  02AA  00B2               	movwf	??___flmul
  2380  02AB  01B3               	clrf	??___flmul+1
  2381  02AC  0DB3               	rlf	??___flmul+1,f
  2382  02AD  0832               	movf	??___flmul,w
  2383  02AE  3E82               	addlw	130
  2384  02AF  00C2               	movwf	___flmul@temp
  2385  02B0  0833               	movf	??___flmul+1,w
  2386  02B1  1803               	skipnc
  2387  02B2  3E01               	addlw	1
  2388  02B3  3EFF               	addlw	255
  2389  02B4  00C3               	movwf	___flmul@temp+1
  2390  02B5  2AD3               	goto	l2003
  2391  02B6                     l1993:
  2392  02B6  3001               	movlw	1
  2393  02B7  00B2               	movwf	??___flmul
  2394  02B8                     u2025:
  2395  02B8  1003               	clrc
  2396  02B9  0DBE               	rlf	___flmul@prod,f
  2397  02BA  0DBF               	rlf	___flmul@prod+1,f
  2398  02BB  0DC0               	rlf	___flmul@prod+2,f
  2399  02BC  0DC1               	rlf	___flmul@prod+3,f
  2400  02BD  0BB2               	decfsz	??___flmul,f
  2401  02BE  2AB8               	goto	u2025
  2402  02BF                     l1995:
  2403  02BF  1FBB               	btfss	___flmul@grs+3,7
  2404  02C0  2AC2               	goto	u2031
  2405  02C1  2AC3               	goto	u2030
  2406  02C2                     u2031:
  2407  02C2  2AC4               	goto	l1999
  2408  02C3                     u2030:
  2409  02C3                     l1997:
  2410  02C3  143E               	bsf	___flmul@prod,0
  2411  02C4                     l1999:
  2412  02C4  3001               	movlw	1
  2413  02C5  00B2               	movwf	??___flmul
  2414  02C6                     u2045:
  2415  02C6  1003               	clrc
  2416  02C7  0DB8               	rlf	___flmul@grs,f
  2417  02C8  0DB9               	rlf	___flmul@grs+1,f
  2418  02C9  0DBA               	rlf	___flmul@grs+2,f
  2419  02CA  0DBB               	rlf	___flmul@grs+3,f
  2420  02CB  0BB2               	decfsz	??___flmul,f
  2421  02CC  2AC6               	goto	u2045
  2422  02CD                     l2001:
  2423  02CD  30FF               	movlw	255
  2424  02CE  07C2               	addwf	___flmul@temp,f
  2425  02CF  1803               	skipnc
  2426  02D0  0AC3               	incf	___flmul@temp+1,f
  2427  02D1  30FF               	movlw	255
  2428  02D2  07C3               	addwf	___flmul@temp+1,f
  2429  02D3                     l2003:
  2430  02D3  1FC0               	btfss	___flmul@prod+2,7
  2431  02D4  2AD6               	goto	u2051
  2432  02D5  2AD7               	goto	u2050
  2433  02D6                     u2051:
  2434  02D6  2AB6               	goto	l1993
  2435  02D7                     u2050:
  2436  02D7                     l2005:
  2437  02D7  01BC               	clrf	___flmul@aexp
  2438  02D8                     l2007:
  2439  02D8  1FBB               	btfss	___flmul@grs+3,7
  2440  02D9  2ADB               	goto	u2061
  2441  02DA  2ADC               	goto	u2060
  2442  02DB                     u2061:
  2443  02DB  2AF8               	goto	l2015
  2444  02DC                     u2060:
  2445  02DC                     l2009:
  2446  02DC  30FF               	movlw	255
  2447  02DD  0538               	andwf	___flmul@grs,w
  2448  02DE  00B2               	movwf	??___flmul
  2449  02DF  30FF               	movlw	255
  2450  02E0  0539               	andwf	___flmul@grs+1,w
  2451  02E1  00B3               	movwf	??___flmul+1
  2452  02E2  30FF               	movlw	255
  2453  02E3  053A               	andwf	___flmul@grs+2,w
  2454  02E4  00B4               	movwf	??___flmul+2
  2455  02E5  307F               	movlw	127
  2456  02E6  053B               	andwf	___flmul@grs+3,w
  2457  02E7  00B5               	movwf	??___flmul+3
  2458  02E8  0835               	movf	??___flmul+3,w
  2459  02E9  0434               	iorwf	??___flmul+2,w
  2460  02EA  0433               	iorwf	??___flmul+1,w
  2461  02EB  0432               	iorwf	??___flmul,w
  2462  02EC  1903               	skipnz
  2463  02ED  2AEF               	goto	u2071
  2464  02EE  2AF0               	goto	u2070
  2465  02EF                     u2071:
  2466  02EF  2AF3               	goto	l758
  2467  02F0                     u2070:
  2468  02F0                     l2011:
  2469  02F0  01BC               	clrf	___flmul@aexp
  2470  02F1  0ABC               	incf	___flmul@aexp,f
  2471  02F2  2AF8               	goto	l2015
  2472  02F3                     l758:
  2473  02F3  1C3E               	btfss	___flmul@prod,0
  2474  02F4  2AF6               	goto	u2081
  2475  02F5  2AF7               	goto	u2080
  2476  02F6                     u2081:
  2477  02F6  2AF8               	goto	l2015
  2478  02F7                     u2080:
  2479  02F7  2AF0               	goto	l2011
  2480  02F8                     l2015:
  2481  02F8  083C               	movf	___flmul@aexp,w
  2482  02F9  1903               	btfsc	3,2
  2483  02FA  2AFC               	goto	u2091
  2484  02FB  2AFD               	goto	u2090
  2485  02FC                     u2091:
  2486  02FC  2B2E               	goto	l2025
  2487  02FD                     u2090:
  2488  02FD                     l2017:
  2489  02FD  3001               	movlw	1
  2490  02FE  07BE               	addwf	___flmul@prod,f
  2491  02FF  3000               	movlw	0
  2492  0300  1803               	skipnc
  2493  0301  3001               	movlw	1
  2494  0302  07BF               	addwf	___flmul@prod+1,f
  2495  0303  3000               	movlw	0
  2496  0304  1803               	skipnc
  2497  0305  3001               	movlw	1
  2498  0306  07C0               	addwf	___flmul@prod+2,f
  2499  0307  3000               	movlw	0
  2500  0308  1803               	skipnc
  2501  0309  3001               	movlw	1
  2502  030A  07C1               	addwf	___flmul@prod+3,f
  2503  030B                     l2019:
  2504  030B  1C41               	btfss	___flmul@prod+3,0
  2505  030C  2B0E               	goto	u2101
  2506  030D  2B0F               	goto	u2100
  2507  030E                     u2101:
  2508  030E  2B2E               	goto	l2025
  2509  030F                     u2100:
  2510  030F                     l2021:
  2511  030F  083E               	movf	___flmul@prod,w
  2512  0310  00B2               	movwf	??___flmul
  2513  0311  083F               	movf	___flmul@prod+1,w
  2514  0312  00B3               	movwf	??___flmul+1
  2515  0313  0840               	movf	___flmul@prod+2,w
  2516  0314  00B4               	movwf	??___flmul+2
  2517  0315  0841               	movf	___flmul@prod+3,w
  2518  0316  00B5               	movwf	??___flmul+3
  2519  0317  3001               	movlw	1
  2520  0318  00B6               	movwf	??___flmul+4
  2521  0319                     u2115:
  2522  0319  0D35               	rlf	??___flmul+3,w
  2523  031A  0CB5               	rrf	??___flmul+3,f
  2524  031B  0CB4               	rrf	??___flmul+2,f
  2525  031C  0CB3               	rrf	??___flmul+1,f
  2526  031D  0CB2               	rrf	??___flmul,f
  2527  031E                     u2110:
  2528  031E  0BB6               	decfsz	??___flmul+4,f
  2529  031F  2B19               	goto	u2115
  2530  0320  0835               	movf	??___flmul+3,w
  2531  0321  00C1               	movwf	___flmul@prod+3
  2532  0322  0834               	movf	??___flmul+2,w
  2533  0323  00C0               	movwf	___flmul@prod+2
  2534  0324  0833               	movf	??___flmul+1,w
  2535  0325  00BF               	movwf	___flmul@prod+1
  2536  0326  0832               	movf	??___flmul,w
  2537  0327  00BE               	movwf	___flmul@prod
  2538  0328                     l2023:
  2539  0328  3001               	movlw	1
  2540  0329  07C2               	addwf	___flmul@temp,f
  2541  032A  1803               	skipnc
  2542  032B  0AC3               	incf	___flmul@temp+1,f
  2543  032C  3000               	movlw	0
  2544  032D  07C3               	addwf	___flmul@temp+1,f
  2545  032E                     l2025:
  2546  032E  0843               	movf	___flmul@temp+1,w
  2547  032F  3A80               	xorlw	128
  2548  0330  00FF               	movwf	btemp+1
  2549  0331  3080               	movlw	128
  2550  0332  027F               	subwf	btemp+1,w
  2551  0333  1D03               	skipz
  2552  0334  2B37               	goto	u2125
  2553  0335  30FF               	movlw	255
  2554  0336  0242               	subwf	___flmul@temp,w
  2555  0337                     u2125:
  2556  0337  1C03               	skipc
  2557  0338  2B3A               	goto	u2121
  2558  0339  2B3B               	goto	u2120
  2559  033A                     u2121:
  2560  033A  2B46               	goto	l2029
  2561  033B                     u2120:
  2562  033B                     l2027:
  2563  033B  307F               	movlw	127
  2564  033C  1283               	bcf	3,5	;RP0=0, select bank0
  2565  033D  1303               	bcf	3,6	;RP1=0, select bank0
  2566  033E  00C1               	movwf	___flmul@prod+3
  2567  033F  3080               	movlw	128
  2568  0340  00C0               	movwf	___flmul@prod+2
  2569  0341  3000               	movlw	0
  2570  0342  00BF               	movwf	___flmul@prod+1
  2571  0343  3000               	movlw	0
  2572  0344  00BE               	movwf	___flmul@prod
  2573  0345  2B7B               	goto	l764
  2574  0346                     l2029:
  2575  0346  1283               	bcf	3,5	;RP0=0, select bank0
  2576  0347  1303               	bcf	3,6	;RP1=0, select bank0
  2577  0348  0843               	movf	___flmul@temp+1,w
  2578  0349  3A80               	xorlw	128
  2579  034A  00FF               	movwf	btemp+1
  2580  034B  3080               	movlw	128
  2581  034C  027F               	subwf	btemp+1,w
  2582  034D  1D03               	skipz
  2583  034E  2B51               	goto	u2135
  2584  034F  3001               	movlw	1
  2585  0350  0242               	subwf	___flmul@temp,w
  2586  0351                     u2135:
  2587  0351  1803               	skipnc
  2588  0352  2B54               	goto	u2131
  2589  0353  2B55               	goto	u2130
  2590  0354                     u2131:
  2591  0354  2B61               	goto	l2035
  2592  0355                     u2130:
  2593  0355                     l2031:
  2594  0355  3000               	movlw	0
  2595  0356  1283               	bcf	3,5	;RP0=0, select bank0
  2596  0357  1303               	bcf	3,6	;RP1=0, select bank0
  2597  0358  00C1               	movwf	___flmul@prod+3
  2598  0359  3000               	movlw	0
  2599  035A  00C0               	movwf	___flmul@prod+2
  2600  035B  3000               	movlw	0
  2601  035C  00BF               	movwf	___flmul@prod+1
  2602  035D  3000               	movlw	0
  2603  035E  00BE               	movwf	___flmul@prod
  2604  035F                     l2033:
  2605  035F  01B7               	clrf	___flmul@sign
  2606  0360  2B7B               	goto	l764
  2607  0361                     l2035:
  2608  0361  1283               	bcf	3,5	;RP0=0, select bank0
  2609  0362  1303               	bcf	3,6	;RP1=0, select bank0
  2610  0363  0842               	movf	___flmul@temp,w
  2611  0364  00B2               	movwf	??___flmul
  2612  0365  0832               	movf	??___flmul,w
  2613  0366  00BD               	movwf	___flmul@bexp
  2614  0367  30FF               	movlw	255
  2615  0368  05BE               	andwf	___flmul@prod,f
  2616  0369  30FF               	movlw	255
  2617  036A  05BF               	andwf	___flmul@prod+1,f
  2618  036B  307F               	movlw	127
  2619  036C  05C0               	andwf	___flmul@prod+2,f
  2620  036D  3000               	movlw	0
  2621  036E  05C1               	andwf	___flmul@prod+3,f
  2622  036F                     l2037:
  2623  036F  1C3D               	btfss	___flmul@bexp,0
  2624  0370  2B72               	goto	u2141
  2625  0371  2B73               	goto	u2140
  2626  0372                     u2141:
  2627  0372  2B74               	goto	l2041
  2628  0373                     u2140:
  2629  0373                     l2039:
  2630  0373  17C0               	bsf	___flmul@prod+2,7
  2631  0374                     l2041:
  2632  0374  083D               	movf	___flmul@bexp,w
  2633  0375  00B2               	movwf	??___flmul
  2634  0376  1003               	clrc
  2635  0377  0C32               	rrf	??___flmul,w
  2636  0378  00B3               	movwf	??___flmul+1
  2637  0379  0833               	movf	??___flmul+1,w
  2638  037A  00C1               	movwf	___flmul@prod+3
  2639  037B                     l764:
  2640  037B  0837               	movf	___flmul@sign,w
  2641  037C  00B2               	movwf	??___flmul
  2642  037D  0832               	movf	??___flmul,w
  2643  037E  04C1               	iorwf	___flmul@prod+3,f
  2644  037F                     l2043:
  2645  037F  0841               	movf	___flmul@prod+3,w
  2646  0380  00AD               	movwf	?___flmul+3
  2647  0381  0840               	movf	___flmul@prod+2,w
  2648  0382  00AC               	movwf	?___flmul+2
  2649  0383  083F               	movf	___flmul@prod+1,w
  2650  0384  00AB               	movwf	?___flmul+1
  2651  0385  083E               	movf	___flmul@prod,w
  2652  0386  00AA               	movwf	?___flmul
  2653  0387                     l752:
  2654  0387  0008               	return
  2655  0388                     __end_of___flmul:
  2656                           
  2657                           	psect	text5
  2658  0ED0                     __ptext5:	
  2659 ;; *************** function __Umul8_16 *****************
  2660 ;; Defined at:
  2661 ;;		line 4 in file "C:\Program Files\Microchip\xc8\v2.31\pic\sources\c90\common\Umul8_16.c"
  2662 ;; Parameters:    Size  Location     Type
  2663 ;;  multiplier      1    wreg     unsigned char 
  2664 ;;  multiplicand    1    3[COMMON] unsigned char 
  2665 ;; Auto vars:     Size  Location     Type
  2666 ;;  multiplier      1    4[BANK0 ] unsigned char 
  2667 ;;  word_mpld       2    2[BANK0 ] unsigned int 
  2668 ;;  product         2    0[BANK0 ] unsigned int 
  2669 ;; Return value:  Size  Location     Type
  2670 ;;                  2    3[COMMON] unsigned int 
  2671 ;; Registers used:
  2672 ;;		wreg, status,2, status,0
  2673 ;; Tracked objects:
  2674 ;;		On entry : 0/0
  2675 ;;		On exit  : 0/0
  2676 ;;		Unchanged: 0/0
  2677 ;; Data sizes:     COMMON   BANK0   BANK1   BANK3   BANK2
  2678 ;;      Params:         2       0       0       0       0
  2679 ;;      Locals:         0       5       0       0       0
  2680 ;;      Temps:          2       0       0       0       0
  2681 ;;      Totals:         4       5       0       0       0
  2682 ;;Total ram usage:        9 bytes
  2683 ;; Hardware stack levels used:    1
  2684 ;; Hardware stack levels required when called:    1
  2685 ;; This function calls:
  2686 ;;		Nothing
  2687 ;; This function is called by:
  2688 ;;		___flmul
  2689 ;; This function uses a non-reentrant model
  2690 ;;
  2691                           
  2692                           
  2693                           ;psect for function __Umul8_16
  2694  0ED0                     __Umul8_16:
  2695                           
  2696                           ;incstack = 0
  2697                           ; Regs used in __Umul8_16: [wreg+status,2+status,0]
  2698                           ;__Umul8_16@multiplier stored from wreg
  2699  0ED0  1283               	bcf	3,5	;RP0=0, select bank0
  2700  0ED1  1303               	bcf	3,6	;RP1=0, select bank0
  2701  0ED2  00A4               	movwf	__Umul8_16@multiplier
  2702  0ED3                     l1651:
  2703  0ED3  01A0               	clrf	__Umul8_16@product
  2704  0ED4  01A1               	clrf	__Umul8_16@product+1
  2705  0ED5                     l1653:
  2706  0ED5  0873               	movf	__Umul8_16@multiplicand,w
  2707  0ED6  00F5               	movwf	??__Umul8_16
  2708  0ED7  01F6               	clrf	??__Umul8_16+1
  2709  0ED8  0875               	movf	??__Umul8_16,w
  2710  0ED9  00A2               	movwf	__Umul8_16@word_mpld
  2711  0EDA  0876               	movf	??__Umul8_16+1,w
  2712  0EDB  00A3               	movwf	__Umul8_16@word_mpld+1
  2713  0EDC                     l1655:
  2714  0EDC  1C24               	btfss	__Umul8_16@multiplier,0
  2715  0EDD  2EDF               	goto	u1381
  2716  0EDE  2EE0               	goto	u1380
  2717  0EDF                     u1381:
  2718  0EDF  2EE6               	goto	l771
  2719  0EE0                     u1380:
  2720  0EE0                     l1657:
  2721  0EE0  0822               	movf	__Umul8_16@word_mpld,w
  2722  0EE1  07A0               	addwf	__Umul8_16@product,f
  2723  0EE2  1803               	skipnc
  2724  0EE3  0AA1               	incf	__Umul8_16@product+1,f
  2725  0EE4  0823               	movf	__Umul8_16@word_mpld+1,w
  2726  0EE5  07A1               	addwf	__Umul8_16@product+1,f
  2727  0EE6                     l771:
  2728  0EE6  3001               	movlw	1
  2729  0EE7                     u1395:
  2730  0EE7  1003               	clrc
  2731  0EE8  0DA2               	rlf	__Umul8_16@word_mpld,f
  2732  0EE9  0DA3               	rlf	__Umul8_16@word_mpld+1,f
  2733  0EEA  3EFF               	addlw	-1
  2734  0EEB  1D03               	skipz
  2735  0EEC  2EE7               	goto	u1395
  2736  0EED  1003               	clrc
  2737  0EEE  0CA4               	rrf	__Umul8_16@multiplier,f
  2738  0EEF                     l1659:
  2739  0EEF  0824               	movf	__Umul8_16@multiplier,w
  2740  0EF0  1D03               	btfss	3,2
  2741  0EF1  2EF3               	goto	u1401
  2742  0EF2  2EF4               	goto	u1400
  2743  0EF3                     u1401:
  2744  0EF3  2EDC               	goto	l1655
  2745  0EF4                     u1400:
  2746  0EF4                     l1661:
  2747  0EF4  0821               	movf	__Umul8_16@product+1,w
  2748  0EF5  00F4               	movwf	?__Umul8_16+1
  2749  0EF6  0820               	movf	__Umul8_16@product,w
  2750  0EF7  00F3               	movwf	?__Umul8_16
  2751  0EF8                     l773:
  2752  0EF8  0008               	return
  2753  0EF9                     __end_of__Umul8_16:
  2754                           
  2755                           	psect	text6
  2756  074C                     __ptext6:	
  2757 ;; *************** function ___flge *****************
  2758 ;; Defined at:
  2759 ;;		line 4 in file "C:\Program Files\Microchip\xc8\v2.31\pic\sources\c90\common\flge.c"
  2760 ;; Parameters:    Size  Location     Type
  2761 ;;  ff1             4    0[BANK0 ] unsigned int 
  2762 ;;  ff2             4    4[BANK0 ] unsigned int 
  2763 ;; Auto vars:     Size  Location     Type
  2764 ;;		None
  2765 ;; Return value:  Size  Location     Type
  2766 ;;		None               void
  2767 ;; Registers used:
  2768 ;;		wreg, status,2, status,0
  2769 ;; Tracked objects:
  2770 ;;		On entry : 0/0
  2771 ;;		On exit  : 0/0
  2772 ;;		Unchanged: 0/0
  2773 ;; Data sizes:     COMMON   BANK0   BANK1   BANK3   BANK2
  2774 ;;      Params:         0       8       0       0       0
  2775 ;;      Locals:         0       0       0       0       0
  2776 ;;      Temps:          4       0       0       0       0
  2777 ;;      Totals:         4       8       0       0       0
  2778 ;;Total ram usage:       12 bytes
  2779 ;; Hardware stack levels used:    1
  2780 ;; Hardware stack levels required when called:    1
  2781 ;; This function calls:
  2782 ;;		Nothing
  2783 ;; This function is called by:
  2784 ;;		_main
  2785 ;;		_floattostr_
  2786 ;; This function uses a non-reentrant model
  2787 ;;
  2788                           
  2789                           
  2790                           ;psect for function ___flge
  2791  074C                     ___flge:
  2792  074C                     l2301:	
  2793                           ;incstack = 0
  2794                           ; Regs used in ___flge: [wreg+status,2+status,0]
  2795                           
  2796  074C  3000               	movlw	0
  2797  074D  1283               	bcf	3,5	;RP0=0, select bank0
  2798  074E  1303               	bcf	3,6	;RP1=0, select bank0
  2799  074F  0520               	andwf	___flge@ff1,w
  2800  0750  00F3               	movwf	??___flge
  2801  0751  3000               	movlw	0
  2802  0752  0521               	andwf	___flge@ff1+1,w
  2803  0753  00F4               	movwf	??___flge+1
  2804  0754  3080               	movlw	128
  2805  0755  0522               	andwf	___flge@ff1+2,w
  2806  0756  00F5               	movwf	??___flge+2
  2807  0757  307F               	movlw	127
  2808  0758  0523               	andwf	___flge@ff1+3,w
  2809  0759  00F6               	movwf	??___flge+3
  2810  075A  0876               	movf	??___flge+3,w
  2811  075B  0475               	iorwf	??___flge+2,w
  2812  075C  0474               	iorwf	??___flge+1,w
  2813  075D  0473               	iorwf	??___flge,w
  2814  075E  1D03               	skipz
  2815  075F  2F61               	goto	u2631
  2816  0760  2F62               	goto	u2630
  2817  0761                     u2631:
  2818  0761  2F6A               	goto	l537
  2819  0762                     u2630:
  2820  0762                     l2303:
  2821  0762  3000               	movlw	0
  2822  0763  00A3               	movwf	___flge@ff1+3
  2823  0764  3000               	movlw	0
  2824  0765  00A2               	movwf	___flge@ff1+2
  2825  0766  3000               	movlw	0
  2826  0767  00A1               	movwf	___flge@ff1+1
  2827  0768  3000               	movlw	0
  2828  0769  00A0               	movwf	___flge@ff1
  2829  076A                     l537:
  2830  076A  3000               	movlw	0
  2831  076B  0524               	andwf	___flge@ff2,w
  2832  076C  00F3               	movwf	??___flge
  2833  076D  3000               	movlw	0
  2834  076E  0525               	andwf	___flge@ff2+1,w
  2835  076F  00F4               	movwf	??___flge+1
  2836  0770  3080               	movlw	128
  2837  0771  0526               	andwf	___flge@ff2+2,w
  2838  0772  00F5               	movwf	??___flge+2
  2839  0773  307F               	movlw	127
  2840  0774  0527               	andwf	___flge@ff2+3,w
  2841  0775  00F6               	movwf	??___flge+3
  2842  0776  0876               	movf	??___flge+3,w
  2843  0777  0475               	iorwf	??___flge+2,w
  2844  0778  0474               	iorwf	??___flge+1,w
  2845  0779  0473               	iorwf	??___flge,w
  2846  077A  1D03               	skipz
  2847  077B  2F7D               	goto	u2641
  2848  077C  2F7E               	goto	u2640
  2849  077D                     u2641:
  2850  077D  2F86               	goto	l2307
  2851  077E                     u2640:
  2852  077E                     l2305:
  2853  077E  3000               	movlw	0
  2854  077F  00A7               	movwf	___flge@ff2+3
  2855  0780  3000               	movlw	0
  2856  0781  00A6               	movwf	___flge@ff2+2
  2857  0782  3000               	movlw	0
  2858  0783  00A5               	movwf	___flge@ff2+1
  2859  0784  3000               	movlw	0
  2860  0785  00A4               	movwf	___flge@ff2
  2861  0786                     l2307:
  2862  0786  1FA3               	btfss	___flge@ff1+3,7
  2863  0787  2F89               	goto	u2651
  2864  0788  2F8A               	goto	u2650
  2865  0789                     u2651:
  2866  0789  2FAE               	goto	l2311
  2867  078A                     u2650:
  2868  078A                     l2309:
  2869  078A  3000               	movlw	0
  2870  078B  00F3               	movwf	??___flge
  2871  078C  3000               	movlw	0
  2872  078D  00F4               	movwf	??___flge+1
  2873  078E  3000               	movlw	0
  2874  078F  00F5               	movwf	??___flge+2
  2875  0790  3080               	movlw	128
  2876  0791  00F6               	movwf	??___flge+3
  2877  0792  0820               	movf	___flge@ff1,w
  2878  0793  02F3               	subwf	??___flge,f
  2879  0794  0821               	movf	___flge@ff1+1,w
  2880  0795  1C03               	skipc
  2881  0796  0F21               	incfsz	___flge@ff1+1,w
  2882  0797  2F99               	goto	u2661
  2883  0798  2F9A               	goto	u2662
  2884  0799                     u2661:
  2885  0799  02F4               	subwf	??___flge+1,f
  2886  079A                     u2662:
  2887  079A  0822               	movf	___flge@ff1+2,w
  2888  079B  1C03               	skipc
  2889  079C  0F22               	incfsz	___flge@ff1+2,w
  2890  079D  2F9F               	goto	u2663
  2891  079E  2FA0               	goto	u2664
  2892  079F                     u2663:
  2893  079F  02F5               	subwf	??___flge+2,f
  2894  07A0                     u2664:
  2895  07A0  0823               	movf	___flge@ff1+3,w
  2896  07A1  1C03               	skipc
  2897  07A2  0F23               	incfsz	___flge@ff1+3,w
  2898  07A3  2FA5               	goto	u2665
  2899  07A4  2FA6               	goto	u2666
  2900  07A5                     u2665:
  2901  07A5  02F6               	subwf	??___flge+3,f
  2902  07A6                     u2666:
  2903  07A6  0876               	movf	??___flge+3,w
  2904  07A7  00A3               	movwf	___flge@ff1+3
  2905  07A8  0875               	movf	??___flge+2,w
  2906  07A9  00A2               	movwf	___flge@ff1+2
  2907  07AA  0874               	movf	??___flge+1,w
  2908  07AB  00A1               	movwf	___flge@ff1+1
  2909  07AC  0873               	movf	??___flge,w
  2910  07AD  00A0               	movwf	___flge@ff1
  2911  07AE                     l2311:
  2912  07AE  1FA7               	btfss	___flge@ff2+3,7
  2913  07AF  2FB1               	goto	u2671
  2914  07B0  2FB2               	goto	u2670
  2915  07B1                     u2671:
  2916  07B1  2FD6               	goto	l540
  2917  07B2                     u2670:
  2918  07B2                     l2313:
  2919  07B2  3000               	movlw	0
  2920  07B3  00F3               	movwf	??___flge
  2921  07B4  3000               	movlw	0
  2922  07B5  00F4               	movwf	??___flge+1
  2923  07B6  3000               	movlw	0
  2924  07B7  00F5               	movwf	??___flge+2
  2925  07B8  3080               	movlw	128
  2926  07B9  00F6               	movwf	??___flge+3
  2927  07BA  0824               	movf	___flge@ff2,w
  2928  07BB  02F3               	subwf	??___flge,f
  2929  07BC  0825               	movf	___flge@ff2+1,w
  2930  07BD  1C03               	skipc
  2931  07BE  0F25               	incfsz	___flge@ff2+1,w
  2932  07BF  2FC1               	goto	u2681
  2933  07C0  2FC2               	goto	u2682
  2934  07C1                     u2681:
  2935  07C1  02F4               	subwf	??___flge+1,f
  2936  07C2                     u2682:
  2937  07C2  0826               	movf	___flge@ff2+2,w
  2938  07C3  1C03               	skipc
  2939  07C4  0F26               	incfsz	___flge@ff2+2,w
  2940  07C5  2FC7               	goto	u2683
  2941  07C6  2FC8               	goto	u2684
  2942  07C7                     u2683:
  2943  07C7  02F5               	subwf	??___flge+2,f
  2944  07C8                     u2684:
  2945  07C8  0827               	movf	___flge@ff2+3,w
  2946  07C9  1C03               	skipc
  2947  07CA  0F27               	incfsz	___flge@ff2+3,w
  2948  07CB  2FCD               	goto	u2685
  2949  07CC  2FCE               	goto	u2686
  2950  07CD                     u2685:
  2951  07CD  02F6               	subwf	??___flge+3,f
  2952  07CE                     u2686:
  2953  07CE  0876               	movf	??___flge+3,w
  2954  07CF  00A7               	movwf	___flge@ff2+3
  2955  07D0  0875               	movf	??___flge+2,w
  2956  07D1  00A6               	movwf	___flge@ff2+2
  2957  07D2  0874               	movf	??___flge+1,w
  2958  07D3  00A5               	movwf	___flge@ff2+1
  2959  07D4  0873               	movf	??___flge,w
  2960  07D5  00A4               	movwf	___flge@ff2
  2961  07D6                     l540:
  2962  07D6  3080               	movlw	128
  2963  07D7  06A3               	xorwf	___flge@ff1+3,f
  2964  07D8  3080               	movlw	128
  2965  07D9  06A7               	xorwf	___flge@ff2+3,f
  2966  07DA  0827               	movf	___flge@ff2+3,w
  2967  07DB  0223               	subwf	___flge@ff1+3,w
  2968  07DC  1D03               	skipz
  2969  07DD  2FE8               	goto	u2695
  2970  07DE  0826               	movf	___flge@ff2+2,w
  2971  07DF  0222               	subwf	___flge@ff1+2,w
  2972  07E0  1D03               	skipz
  2973  07E1  2FE8               	goto	u2695
  2974  07E2  0825               	movf	___flge@ff2+1,w
  2975  07E3  0221               	subwf	___flge@ff1+1,w
  2976  07E4  1D03               	skipz
  2977  07E5  2FE8               	goto	u2695
  2978  07E6  0824               	movf	___flge@ff2,w
  2979  07E7  0220               	subwf	___flge@ff1,w
  2980  07E8                     u2695:
  2981  07E8  1803               	skipnc
  2982  07E9  2FEB               	goto	u2691
  2983  07EA  2FEC               	goto	u2690
  2984  07EB                     u2691:
  2985  07EB  2FEE               	goto	l2317
  2986  07EC                     u2690:
  2987  07EC                     l2315:
  2988  07EC  1003               	clrc
  2989  07ED  2FEF               	goto	l541
  2990  07EE                     l2317:
  2991  07EE  1403               	setc
  2992  07EF                     l541:
  2993  07EF  0008               	return
  2994  07F0                     __end_of___flge:
  2995                           
  2996                           	psect	text7
  2997  0388                     __ptext7:	
  2998 ;; *************** function ___fldiv *****************
  2999 ;; Defined at:
  3000 ;;		line 8 in file "C:\Program Files\Microchip\xc8\v2.31\pic\sources\c90\common\sprcdiv.c"
  3001 ;; Parameters:    Size  Location     Type
  3002 ;;  a               4   36[BANK0 ] unsigned int 
  3003 ;;  b               4   40[BANK0 ] unsigned int 
  3004 ;; Auto vars:     Size  Location     Type
  3005 ;;  grs             4   56[BANK0 ] unsigned long 
  3006 ;;  rem             4   49[BANK0 ] unsigned long 
  3007 ;;  new_exp         2   54[BANK0 ] int 
  3008 ;;  aexp            1   61[BANK0 ] unsigned char 
  3009 ;;  bexp            1   60[BANK0 ] unsigned char 
  3010 ;;  sign            1   53[BANK0 ] unsigned char 
  3011 ;; Return value:  Size  Location     Type
  3012 ;;                  4   36[BANK0 ] unsigned char 
  3013 ;; Registers used:
  3014 ;;		wreg, status,2, status,0, btemp+1
  3015 ;; Tracked objects:
  3016 ;;		On entry : 0/0
  3017 ;;		On exit  : 0/0
  3018 ;;		Unchanged: 0/0
  3019 ;; Data sizes:     COMMON   BANK0   BANK1   BANK3   BANK2
  3020 ;;      Params:         0       8       0       0       0
  3021 ;;      Locals:         0      13       0       0       0
  3022 ;;      Temps:          0       5       0       0       0
  3023 ;;      Totals:         0      26       0       0       0
  3024 ;;Total ram usage:       26 bytes
  3025 ;; Hardware stack levels used:    1
  3026 ;; Hardware stack levels required when called:    1
  3027 ;; This function calls:
  3028 ;;		Nothing
  3029 ;; This function is called by:
  3030 ;;		_main
  3031 ;;		_floattostr_
  3032 ;; This function uses a non-reentrant model
  3033 ;;
  3034                           
  3035                           
  3036                           ;psect for function ___fldiv
  3037  0388                     ___fldiv:
  3038  0388                     l1765:	
  3039                           ;incstack = 0
  3040                           ; Regs used in ___fldiv: [wreg+status,2+status,0+btemp+1]
  3041                           
  3042  0388  1283               	bcf	3,5	;RP0=0, select bank0
  3043  0389  1303               	bcf	3,6	;RP1=0, select bank0
  3044  038A  084B               	movf	___fldiv@b+3,w
  3045  038B  3980               	andlw	128
  3046  038C  00CC               	movwf	??___fldiv
  3047  038D  084C               	movf	??___fldiv,w
  3048  038E  00D5               	movwf	___fldiv@sign
  3049  038F                     l1767:
  3050  038F  084B               	movf	___fldiv@b+3,w
  3051  0390  00CC               	movwf	??___fldiv
  3052  0391  074C               	addwf	??___fldiv,w
  3053  0392  00CD               	movwf	??___fldiv+1
  3054  0393  084D               	movf	??___fldiv+1,w
  3055  0394  00DC               	movwf	___fldiv@bexp
  3056  0395                     l1769:
  3057  0395  1FCA               	btfss	___fldiv@b+2,7
  3058  0396  2B98               	goto	u1491
  3059  0397  2B99               	goto	u1490
  3060  0398                     u1491:
  3061  0398  2B9A               	goto	l1773
  3062  0399                     u1490:
  3063  0399                     l1771:
  3064  0399  145C               	bsf	___fldiv@bexp,0
  3065  039A                     l1773:
  3066  039A  085C               	movf	___fldiv@bexp,w
  3067  039B  1903               	btfsc	3,2
  3068  039C  2B9E               	goto	u1501
  3069  039D  2B9F               	goto	u1500
  3070  039E                     u1501:
  3071  039E  2BAF               	goto	l1783
  3072  039F                     u1500:
  3073  039F                     l1775:
  3074  039F  0A5C               	incf	___fldiv@bexp,w
  3075  03A0  1D03               	btfss	3,2
  3076  03A1  2BA3               	goto	u1511
  3077  03A2  2BA4               	goto	u1510
  3078  03A3                     u1511:
  3079  03A3  2BAC               	goto	l1779
  3080  03A4                     u1510:
  3081  03A4                     l1777:
  3082  03A4  3000               	movlw	0
  3083  03A5  00CB               	movwf	___fldiv@b+3
  3084  03A6  3000               	movlw	0
  3085  03A7  00CA               	movwf	___fldiv@b+2
  3086  03A8  3000               	movlw	0
  3087  03A9  00C9               	movwf	___fldiv@b+1
  3088  03AA  3000               	movlw	0
  3089  03AB  00C8               	movwf	___fldiv@b
  3090  03AC                     l1779:
  3091  03AC  17CA               	bsf	___fldiv@b+2,7
  3092  03AD                     l1781:
  3093  03AD  01CB               	clrf	___fldiv@b+3
  3094  03AE  2BB7               	goto	l1785
  3095  03AF                     l1783:
  3096  03AF  3000               	movlw	0
  3097  03B0  00CB               	movwf	___fldiv@b+3
  3098  03B1  3000               	movlw	0
  3099  03B2  00CA               	movwf	___fldiv@b+2
  3100  03B3  3000               	movlw	0
  3101  03B4  00C9               	movwf	___fldiv@b+1
  3102  03B5  3000               	movlw	0
  3103  03B6  00C8               	movwf	___fldiv@b
  3104  03B7                     l1785:
  3105  03B7  0847               	movf	___fldiv@a+3,w
  3106  03B8  3980               	andlw	128
  3107  03B9  00CC               	movwf	??___fldiv
  3108  03BA  084C               	movf	??___fldiv,w
  3109  03BB  06D5               	xorwf	___fldiv@sign,f
  3110  03BC                     l1787:
  3111  03BC  0847               	movf	___fldiv@a+3,w
  3112  03BD  00CC               	movwf	??___fldiv
  3113  03BE  074C               	addwf	??___fldiv,w
  3114  03BF  00CD               	movwf	??___fldiv+1
  3115  03C0  084D               	movf	??___fldiv+1,w
  3116  03C1  00DD               	movwf	___fldiv@aexp
  3117  03C2                     l1789:
  3118  03C2  1FC6               	btfss	___fldiv@a+2,7
  3119  03C3  2BC5               	goto	u1521
  3120  03C4  2BC6               	goto	u1520
  3121  03C5                     u1521:
  3122  03C5  2BC7               	goto	l1793
  3123  03C6                     u1520:
  3124  03C6                     l1791:
  3125  03C6  145D               	bsf	___fldiv@aexp,0
  3126  03C7                     l1793:
  3127  03C7  085D               	movf	___fldiv@aexp,w
  3128  03C8  1903               	btfsc	3,2
  3129  03C9  2BCB               	goto	u1531
  3130  03CA  2BCC               	goto	u1530
  3131  03CB                     u1531:
  3132  03CB  2BDC               	goto	l1803
  3133  03CC                     u1530:
  3134  03CC                     l1795:
  3135  03CC  0A5D               	incf	___fldiv@aexp,w
  3136  03CD  1D03               	btfss	3,2
  3137  03CE  2BD0               	goto	u1541
  3138  03CF  2BD1               	goto	u1540
  3139  03D0                     u1541:
  3140  03D0  2BD9               	goto	l1799
  3141  03D1                     u1540:
  3142  03D1                     l1797:
  3143  03D1  3000               	movlw	0
  3144  03D2  00C7               	movwf	___fldiv@a+3
  3145  03D3  3000               	movlw	0
  3146  03D4  00C6               	movwf	___fldiv@a+2
  3147  03D5  3000               	movlw	0
  3148  03D6  00C5               	movwf	___fldiv@a+1
  3149  03D7  3000               	movlw	0
  3150  03D8  00C4               	movwf	___fldiv@a
  3151  03D9                     l1799:
  3152  03D9  17C6               	bsf	___fldiv@a+2,7
  3153  03DA                     l1801:
  3154  03DA  01C7               	clrf	___fldiv@a+3
  3155  03DB  2BE4               	goto	l712
  3156  03DC                     l1803:
  3157  03DC  3000               	movlw	0
  3158  03DD  00C7               	movwf	___fldiv@a+3
  3159  03DE  3000               	movlw	0
  3160  03DF  00C6               	movwf	___fldiv@a+2
  3161  03E0  3000               	movlw	0
  3162  03E1  00C5               	movwf	___fldiv@a+1
  3163  03E2  3000               	movlw	0
  3164  03E3  00C4               	movwf	___fldiv@a
  3165  03E4                     l712:
  3166  03E4  0847               	movf	___fldiv@a+3,w
  3167  03E5  0446               	iorwf	___fldiv@a+2,w
  3168  03E6  0445               	iorwf	___fldiv@a+1,w
  3169  03E7  0444               	iorwf	___fldiv@a,w
  3170  03E8  1D03               	skipz
  3171  03E9  2BEB               	goto	u1551
  3172  03EA  2BEC               	goto	u1550
  3173  03EB                     u1551:
  3174  03EB  2C05               	goto	l1813
  3175  03EC                     u1550:
  3176  03EC                     l1805:
  3177  03EC  3000               	movlw	0
  3178  03ED  00CB               	movwf	___fldiv@b+3
  3179  03EE  3000               	movlw	0
  3180  03EF  00CA               	movwf	___fldiv@b+2
  3181  03F0  3000               	movlw	0
  3182  03F1  00C9               	movwf	___fldiv@b+1
  3183  03F2  3000               	movlw	0
  3184  03F3  00C8               	movwf	___fldiv@b
  3185  03F4  3080               	movlw	128
  3186  03F5  04CA               	iorwf	___fldiv@b+2,f
  3187  03F6  307F               	movlw	127
  3188  03F7  04CB               	iorwf	___fldiv@b+3,f
  3189  03F8                     l1807:
  3190  03F8  0855               	movf	___fldiv@sign,w
  3191  03F9  00CC               	movwf	??___fldiv
  3192  03FA  084C               	movf	??___fldiv,w
  3193  03FB  04CB               	iorwf	___fldiv@b+3,f
  3194  03FC                     l1809:
  3195  03FC  084B               	movf	___fldiv@b+3,w
  3196  03FD  00C7               	movwf	?___fldiv+3
  3197  03FE  084A               	movf	___fldiv@b+2,w
  3198  03FF  00C6               	movwf	?___fldiv+2
  3199  0400  0849               	movf	___fldiv@b+1,w
  3200  0401  00C5               	movwf	?___fldiv+1
  3201  0402  0848               	movf	___fldiv@b,w
  3202  0403  00C4               	movwf	?___fldiv
  3203  0404  2D64               	goto	l714
  3204  0405                     l1813:
  3205  0405  085C               	movf	___fldiv@bexp,w
  3206  0406  1D03               	btfss	3,2
  3207  0407  2C09               	goto	u1561
  3208  0408  2C0A               	goto	u1560
  3209  0409                     u1561:
  3210  0409  2C13               	goto	l1819
  3211  040A                     u1560:
  3212  040A                     l1815:
  3213  040A  3000               	movlw	0
  3214  040B  00C7               	movwf	?___fldiv+3
  3215  040C  3000               	movlw	0
  3216  040D  00C6               	movwf	?___fldiv+2
  3217  040E  3000               	movlw	0
  3218  040F  00C5               	movwf	?___fldiv+1
  3219  0410  3000               	movlw	0
  3220  0411  00C4               	movwf	?___fldiv
  3221  0412  2D64               	goto	l714
  3222  0413                     l1819:
  3223  0413  085C               	movf	___fldiv@bexp,w
  3224  0414  00CC               	movwf	??___fldiv
  3225  0415  01CD               	clrf	??___fldiv+1
  3226  0416  084D               	movf	??___fldiv+1,w
  3227  0417  00CF               	movwf	??___fldiv+3
  3228  0418  085D               	movf	___fldiv@aexp,w
  3229  0419  024C               	subwf	??___fldiv,w
  3230  041A  00CE               	movwf	??___fldiv+2
  3231  041B  1C03               	skipc
  3232  041C  03CF               	decf	??___fldiv+3,f
  3233  041D  084E               	movf	??___fldiv+2,w
  3234  041E  3E7F               	addlw	127
  3235  041F  00D6               	movwf	___fldiv@new_exp
  3236  0420  084F               	movf	??___fldiv+3,w
  3237  0421  1803               	skipnc
  3238  0422  3E01               	addlw	1
  3239  0423  3E00               	addlw	0
  3240  0424  00D7               	movwf	___fldiv@new_exp+1
  3241  0425                     l1821:
  3242  0425  084B               	movf	___fldiv@b+3,w
  3243  0426  00D4               	movwf	___fldiv@rem+3
  3244  0427  084A               	movf	___fldiv@b+2,w
  3245  0428  00D3               	movwf	___fldiv@rem+2
  3246  0429  0849               	movf	___fldiv@b+1,w
  3247  042A  00D2               	movwf	___fldiv@rem+1
  3248  042B  0848               	movf	___fldiv@b,w
  3249  042C  00D1               	movwf	___fldiv@rem
  3250  042D                     l1823:
  3251  042D  3000               	movlw	0
  3252  042E  00CB               	movwf	___fldiv@b+3
  3253  042F  3000               	movlw	0
  3254  0430  00CA               	movwf	___fldiv@b+2
  3255  0431  3000               	movlw	0
  3256  0432  00C9               	movwf	___fldiv@b+1
  3257  0433  3000               	movlw	0
  3258  0434  00C8               	movwf	___fldiv@b
  3259  0435                     l1825:
  3260  0435  3000               	movlw	0
  3261  0436  00DB               	movwf	___fldiv@grs+3
  3262  0437  3000               	movlw	0
  3263  0438  00DA               	movwf	___fldiv@grs+2
  3264  0439  3000               	movlw	0
  3265  043A  00D9               	movwf	___fldiv@grs+1
  3266  043B  3000               	movlw	0
  3267  043C  00D8               	movwf	___fldiv@grs
  3268  043D                     l1827:
  3269  043D  01DD               	clrf	___fldiv@aexp
  3270  043E  2C89               	goto	l1847
  3271  043F                     l1829:
  3272  043F  085D               	movf	___fldiv@aexp,w
  3273  0440  1903               	btfsc	3,2
  3274  0441  2C43               	goto	u1571
  3275  0442  2C44               	goto	u1570
  3276  0443                     u1571:
  3277  0443  2C64               	goto	l1839
  3278  0444                     u1570:
  3279  0444                     l1831:
  3280  0444  3001               	movlw	1
  3281  0445  00CC               	movwf	??___fldiv
  3282  0446                     u1585:
  3283  0446  1003               	clrc
  3284  0447  0DD1               	rlf	___fldiv@rem,f
  3285  0448  0DD2               	rlf	___fldiv@rem+1,f
  3286  0449  0DD3               	rlf	___fldiv@rem+2,f
  3287  044A  0DD4               	rlf	___fldiv@rem+3,f
  3288  044B  0BCC               	decfsz	??___fldiv,f
  3289  044C  2C46               	goto	u1585
  3290  044D  3001               	movlw	1
  3291  044E  00CC               	movwf	??___fldiv
  3292  044F                     u1595:
  3293  044F  1003               	clrc
  3294  0450  0DC8               	rlf	___fldiv@b,f
  3295  0451  0DC9               	rlf	___fldiv@b+1,f
  3296  0452  0DCA               	rlf	___fldiv@b+2,f
  3297  0453  0DCB               	rlf	___fldiv@b+3,f
  3298  0454  0BCC               	decfsz	??___fldiv,f
  3299  0455  2C4F               	goto	u1595
  3300  0456                     l1833:
  3301  0456  1FDB               	btfss	___fldiv@grs+3,7
  3302  0457  2C59               	goto	u1601
  3303  0458  2C5A               	goto	u1600
  3304  0459                     u1601:
  3305  0459  2C5B               	goto	l1837
  3306  045A                     u1600:
  3307  045A                     l1835:
  3308  045A  1448               	bsf	___fldiv@b,0
  3309  045B                     l1837:
  3310  045B  3001               	movlw	1
  3311  045C  00CC               	movwf	??___fldiv
  3312  045D                     u1615:
  3313  045D  1003               	clrc
  3314  045E  0DD8               	rlf	___fldiv@grs,f
  3315  045F  0DD9               	rlf	___fldiv@grs+1,f
  3316  0460  0DDA               	rlf	___fldiv@grs+2,f
  3317  0461  0DDB               	rlf	___fldiv@grs+3,f
  3318  0462  0BCC               	decfsz	??___fldiv,f
  3319  0463  2C5D               	goto	u1615
  3320  0464                     l1839:
  3321  0464  0847               	movf	___fldiv@a+3,w
  3322  0465  0254               	subwf	___fldiv@rem+3,w
  3323  0466  1D03               	skipz
  3324  0467  2C72               	goto	u1625
  3325  0468  0846               	movf	___fldiv@a+2,w
  3326  0469  0253               	subwf	___fldiv@rem+2,w
  3327  046A  1D03               	skipz
  3328  046B  2C72               	goto	u1625
  3329  046C  0845               	movf	___fldiv@a+1,w
  3330  046D  0252               	subwf	___fldiv@rem+1,w
  3331  046E  1D03               	skipz
  3332  046F  2C72               	goto	u1625
  3333  0470  0844               	movf	___fldiv@a,w
  3334  0471  0251               	subwf	___fldiv@rem,w
  3335  0472                     u1625:
  3336  0472  1C03               	skipc
  3337  0473  2C75               	goto	u1621
  3338  0474  2C76               	goto	u1620
  3339  0475                     u1621:
  3340  0475  2C85               	goto	l1845
  3341  0476                     u1620:
  3342  0476                     l1841:
  3343  0476  175B               	bsf	___fldiv@grs+3,6
  3344  0477                     l1843:
  3345  0477  0844               	movf	___fldiv@a,w
  3346  0478  02D1               	subwf	___fldiv@rem,f
  3347  0479  0845               	movf	___fldiv@a+1,w
  3348  047A  1C03               	skipc
  3349  047B  0F45               	incfsz	___fldiv@a+1,w
  3350  047C  02D2               	subwf	___fldiv@rem+1,f
  3351  047D  0846               	movf	___fldiv@a+2,w
  3352  047E  1C03               	skipc
  3353  047F  0F46               	incfsz	___fldiv@a+2,w
  3354  0480  02D3               	subwf	___fldiv@rem+2,f
  3355  0481  0847               	movf	___fldiv@a+3,w
  3356  0482  1C03               	skipc
  3357  0483  0F47               	incfsz	___fldiv@a+3,w
  3358  0484  02D4               	subwf	___fldiv@rem+3,f
  3359  0485                     l1845:
  3360  0485  3001               	movlw	1
  3361  0486  00CC               	movwf	??___fldiv
  3362  0487  084C               	movf	??___fldiv,w
  3363  0488  07DD               	addwf	___fldiv@aexp,f
  3364  0489                     l1847:
  3365  0489  301A               	movlw	26
  3366  048A  025D               	subwf	___fldiv@aexp,w
  3367  048B  1C03               	skipc
  3368  048C  2C8E               	goto	u1631
  3369  048D  2C8F               	goto	u1630
  3370  048E                     u1631:
  3371  048E  2C3F               	goto	l1829
  3372  048F                     u1630:
  3373  048F                     l1849:
  3374  048F  0854               	movf	___fldiv@rem+3,w
  3375  0490  0453               	iorwf	___fldiv@rem+2,w
  3376  0491  0452               	iorwf	___fldiv@rem+1,w
  3377  0492  0451               	iorwf	___fldiv@rem,w
  3378  0493  1903               	skipnz
  3379  0494  2C96               	goto	u1641
  3380  0495  2C97               	goto	u1640
  3381  0496                     u1641:
  3382  0496  2CB6               	goto	l1863
  3383  0497                     u1640:
  3384  0497                     l1851:
  3385  0497  1458               	bsf	___fldiv@grs,0
  3386  0498  2CB6               	goto	l1863
  3387  0499                     l1853:
  3388  0499  3001               	movlw	1
  3389  049A  00CC               	movwf	??___fldiv
  3390  049B                     u1655:
  3391  049B  1003               	clrc
  3392  049C  0DC8               	rlf	___fldiv@b,f
  3393  049D  0DC9               	rlf	___fldiv@b+1,f
  3394  049E  0DCA               	rlf	___fldiv@b+2,f
  3395  049F  0DCB               	rlf	___fldiv@b+3,f
  3396  04A0  0BCC               	decfsz	??___fldiv,f
  3397  04A1  2C9B               	goto	u1655
  3398  04A2                     l1855:
  3399  04A2  1FDB               	btfss	___fldiv@grs+3,7
  3400  04A3  2CA5               	goto	u1661
  3401  04A4  2CA6               	goto	u1660
  3402  04A5                     u1661:
  3403  04A5  2CA7               	goto	l1859
  3404  04A6                     u1660:
  3405  04A6                     l1857:
  3406  04A6  1448               	bsf	___fldiv@b,0
  3407  04A7                     l1859:
  3408  04A7  3001               	movlw	1
  3409  04A8  00CC               	movwf	??___fldiv
  3410  04A9                     u1675:
  3411  04A9  1003               	clrc
  3412  04AA  0DD8               	rlf	___fldiv@grs,f
  3413  04AB  0DD9               	rlf	___fldiv@grs+1,f
  3414  04AC  0DDA               	rlf	___fldiv@grs+2,f
  3415  04AD  0DDB               	rlf	___fldiv@grs+3,f
  3416  04AE  0BCC               	decfsz	??___fldiv,f
  3417  04AF  2CA9               	goto	u1675
  3418  04B0                     l1861:
  3419  04B0  30FF               	movlw	255
  3420  04B1  07D6               	addwf	___fldiv@new_exp,f
  3421  04B2  1803               	skipnc
  3422  04B3  0AD7               	incf	___fldiv@new_exp+1,f
  3423  04B4  30FF               	movlw	255
  3424  04B5  07D7               	addwf	___fldiv@new_exp+1,f
  3425  04B6                     l1863:
  3426  04B6  1FCA               	btfss	___fldiv@b+2,7
  3427  04B7  2CB9               	goto	u1681
  3428  04B8  2CBA               	goto	u1680
  3429  04B9                     u1681:
  3430  04B9  2C99               	goto	l1853
  3431  04BA                     u1680:
  3432  04BA                     l1865:
  3433  04BA  01DD               	clrf	___fldiv@aexp
  3434  04BB                     l1867:
  3435  04BB  1FDB               	btfss	___fldiv@grs+3,7
  3436  04BC  2CBE               	goto	u1691
  3437  04BD  2CBF               	goto	u1690
  3438  04BE                     u1691:
  3439  04BE  2CDB               	goto	l1875
  3440  04BF                     u1690:
  3441  04BF                     l1869:
  3442  04BF  30FF               	movlw	255
  3443  04C0  0558               	andwf	___fldiv@grs,w
  3444  04C1  00CC               	movwf	??___fldiv
  3445  04C2  30FF               	movlw	255
  3446  04C3  0559               	andwf	___fldiv@grs+1,w
  3447  04C4  00CD               	movwf	??___fldiv+1
  3448  04C5  30FF               	movlw	255
  3449  04C6  055A               	andwf	___fldiv@grs+2,w
  3450  04C7  00CE               	movwf	??___fldiv+2
  3451  04C8  307F               	movlw	127
  3452  04C9  055B               	andwf	___fldiv@grs+3,w
  3453  04CA  00CF               	movwf	??___fldiv+3
  3454  04CB  084F               	movf	??___fldiv+3,w
  3455  04CC  044E               	iorwf	??___fldiv+2,w
  3456  04CD  044D               	iorwf	??___fldiv+1,w
  3457  04CE  044C               	iorwf	??___fldiv,w
  3458  04CF  1903               	skipnz
  3459  04D0  2CD2               	goto	u1701
  3460  04D1  2CD3               	goto	u1700
  3461  04D2                     u1701:
  3462  04D2  2CD6               	goto	l728
  3463  04D3                     u1700:
  3464  04D3                     l1871:
  3465  04D3  01DD               	clrf	___fldiv@aexp
  3466  04D4  0ADD               	incf	___fldiv@aexp,f
  3467  04D5  2CDB               	goto	l1875
  3468  04D6                     l728:
  3469  04D6  1C48               	btfss	___fldiv@b,0
  3470  04D7  2CD9               	goto	u1711
  3471  04D8  2CDA               	goto	u1710
  3472  04D9                     u1711:
  3473  04D9  2CDB               	goto	l1875
  3474  04DA                     u1710:
  3475  04DA  2CD3               	goto	l1871
  3476  04DB                     l1875:
  3477  04DB  085D               	movf	___fldiv@aexp,w
  3478  04DC  1903               	btfsc	3,2
  3479  04DD  2CDF               	goto	u1721
  3480  04DE  2CE0               	goto	u1720
  3481  04DF                     u1721:
  3482  04DF  2D11               	goto	l1885
  3483  04E0                     u1720:
  3484  04E0                     l1877:
  3485  04E0  3001               	movlw	1
  3486  04E1  07C8               	addwf	___fldiv@b,f
  3487  04E2  3000               	movlw	0
  3488  04E3  1803               	skipnc
  3489  04E4  3001               	movlw	1
  3490  04E5  07C9               	addwf	___fldiv@b+1,f
  3491  04E6  3000               	movlw	0
  3492  04E7  1803               	skipnc
  3493  04E8  3001               	movlw	1
  3494  04E9  07CA               	addwf	___fldiv@b+2,f
  3495  04EA  3000               	movlw	0
  3496  04EB  1803               	skipnc
  3497  04EC  3001               	movlw	1
  3498  04ED  07CB               	addwf	___fldiv@b+3,f
  3499  04EE                     l1879:
  3500  04EE  1C4B               	btfss	___fldiv@b+3,0
  3501  04EF  2CF1               	goto	u1731
  3502  04F0  2CF2               	goto	u1730
  3503  04F1                     u1731:
  3504  04F1  2D11               	goto	l1885
  3505  04F2                     u1730:
  3506  04F2                     l1881:
  3507  04F2  0848               	movf	___fldiv@b,w
  3508  04F3  00CC               	movwf	??___fldiv
  3509  04F4  0849               	movf	___fldiv@b+1,w
  3510  04F5  00CD               	movwf	??___fldiv+1
  3511  04F6  084A               	movf	___fldiv@b+2,w
  3512  04F7  00CE               	movwf	??___fldiv+2
  3513  04F8  084B               	movf	___fldiv@b+3,w
  3514  04F9  00CF               	movwf	??___fldiv+3
  3515  04FA  3001               	movlw	1
  3516  04FB  00D0               	movwf	??___fldiv+4
  3517  04FC                     u1745:
  3518  04FC  0D4F               	rlf	??___fldiv+3,w
  3519  04FD  0CCF               	rrf	??___fldiv+3,f
  3520  04FE  0CCE               	rrf	??___fldiv+2,f
  3521  04FF  0CCD               	rrf	??___fldiv+1,f
  3522  0500  0CCC               	rrf	??___fldiv,f
  3523  0501                     u1740:
  3524  0501  0BD0               	decfsz	??___fldiv+4,f
  3525  0502  2CFC               	goto	u1745
  3526  0503  084F               	movf	??___fldiv+3,w
  3527  0504  00CB               	movwf	___fldiv@b+3
  3528  0505  084E               	movf	??___fldiv+2,w
  3529  0506  00CA               	movwf	___fldiv@b+2
  3530  0507  084D               	movf	??___fldiv+1,w
  3531  0508  00C9               	movwf	___fldiv@b+1
  3532  0509  084C               	movf	??___fldiv,w
  3533  050A  00C8               	movwf	___fldiv@b
  3534  050B                     l1883:
  3535  050B  3001               	movlw	1
  3536  050C  07D6               	addwf	___fldiv@new_exp,f
  3537  050D  1803               	skipnc
  3538  050E  0AD7               	incf	___fldiv@new_exp+1,f
  3539  050F  3000               	movlw	0
  3540  0510  07D7               	addwf	___fldiv@new_exp+1,f
  3541  0511                     l1885:
  3542  0511  0857               	movf	___fldiv@new_exp+1,w
  3543  0512  3A80               	xorlw	128
  3544  0513  00FF               	movwf	btemp+1
  3545  0514  3080               	movlw	128
  3546  0515  027F               	subwf	btemp+1,w
  3547  0516  1D03               	skipz
  3548  0517  2D1A               	goto	u1755
  3549  0518  30FF               	movlw	255
  3550  0519  0256               	subwf	___fldiv@new_exp,w
  3551  051A                     u1755:
  3552  051A  1C03               	skipc
  3553  051B  2D1D               	goto	u1751
  3554  051C  2D1E               	goto	u1750
  3555  051D                     u1751:
  3556  051D  2D2C               	goto	l1889
  3557  051E                     u1750:
  3558  051E                     l1887:
  3559  051E  30FF               	movlw	255
  3560  051F  1283               	bcf	3,5	;RP0=0, select bank0
  3561  0520  1303               	bcf	3,6	;RP1=0, select bank0
  3562  0521  00D6               	movwf	___fldiv@new_exp
  3563  0522  3000               	movlw	0
  3564  0523  00D7               	movwf	___fldiv@new_exp+1
  3565  0524  3000               	movlw	0
  3566  0525  00CB               	movwf	___fldiv@b+3
  3567  0526  3000               	movlw	0
  3568  0527  00CA               	movwf	___fldiv@b+2
  3569  0528  3000               	movlw	0
  3570  0529  00C9               	movwf	___fldiv@b+1
  3571  052A  3000               	movlw	0
  3572  052B  00C8               	movwf	___fldiv@b
  3573  052C                     l1889:
  3574  052C  1283               	bcf	3,5	;RP0=0, select bank0
  3575  052D  1303               	bcf	3,6	;RP1=0, select bank0
  3576  052E  0857               	movf	___fldiv@new_exp+1,w
  3577  052F  3A80               	xorlw	128
  3578  0530  00FF               	movwf	btemp+1
  3579  0531  3080               	movlw	128
  3580  0532  027F               	subwf	btemp+1,w
  3581  0533  1D03               	skipz
  3582  0534  2D37               	goto	u1765
  3583  0535  3001               	movlw	1
  3584  0536  0256               	subwf	___fldiv@new_exp,w
  3585  0537                     u1765:
  3586  0537  1803               	skipnc
  3587  0538  2D3A               	goto	u1761
  3588  0539  2D3B               	goto	u1760
  3589  053A                     u1761:
  3590  053A  2D48               	goto	l734
  3591  053B                     u1760:
  3592  053B                     l1891:
  3593  053B  1283               	bcf	3,5	;RP0=0, select bank0
  3594  053C  1303               	bcf	3,6	;RP1=0, select bank0
  3595  053D  01D6               	clrf	___fldiv@new_exp
  3596  053E  01D7               	clrf	___fldiv@new_exp+1
  3597  053F                     l1893:
  3598  053F  3000               	movlw	0
  3599  0540  00CB               	movwf	___fldiv@b+3
  3600  0541  3000               	movlw	0
  3601  0542  00CA               	movwf	___fldiv@b+2
  3602  0543  3000               	movlw	0
  3603  0544  00C9               	movwf	___fldiv@b+1
  3604  0545  3000               	movlw	0
  3605  0546  00C8               	movwf	___fldiv@b
  3606  0547                     l1895:
  3607  0547  01D5               	clrf	___fldiv@sign
  3608  0548                     l734:
  3609  0548  1283               	bcf	3,5	;RP0=0, select bank0
  3610  0549  1303               	bcf	3,6	;RP1=0, select bank0
  3611  054A  0856               	movf	___fldiv@new_exp,w
  3612  054B  00CC               	movwf	??___fldiv
  3613  054C  084C               	movf	??___fldiv,w
  3614  054D  00DC               	movwf	___fldiv@bexp
  3615  054E                     l1897:
  3616  054E  1C5C               	btfss	___fldiv@bexp,0
  3617  054F  2D51               	goto	u1771
  3618  0550  2D52               	goto	u1770
  3619  0551                     u1771:
  3620  0551  2D54               	goto	l1901
  3621  0552                     u1770:
  3622  0552                     l1899:
  3623  0552  17CA               	bsf	___fldiv@b+2,7
  3624  0553  2D58               	goto	l736
  3625  0554                     l1901:
  3626  0554  307F               	movlw	127
  3627  0555  00CC               	movwf	??___fldiv
  3628  0556  084C               	movf	??___fldiv,w
  3629  0557  05CA               	andwf	___fldiv@b+2,f
  3630  0558                     l736:
  3631  0558  085C               	movf	___fldiv@bexp,w
  3632  0559  00CC               	movwf	??___fldiv
  3633  055A  1003               	clrc
  3634  055B  0C4C               	rrf	??___fldiv,w
  3635  055C  00CD               	movwf	??___fldiv+1
  3636  055D  084D               	movf	??___fldiv+1,w
  3637  055E  00CB               	movwf	___fldiv@b+3
  3638  055F  0855               	movf	___fldiv@sign,w
  3639  0560  00CC               	movwf	??___fldiv
  3640  0561  084C               	movf	??___fldiv,w
  3641  0562  04CB               	iorwf	___fldiv@b+3,f
  3642  0563  2BFC               	goto	l1809
  3643  0564                     l714:
  3644  0564  0008               	return
  3645  0565                     __end_of___fldiv:
  3646                           
  3647                           	psect	text8
  3648  0F2E                     __ptext8:	
  3649 ;; *************** function _Lcd_Init *****************
  3650 ;; Defined at:
  3651 ;;		line 65 in file "LCD.c"
  3652 ;; Parameters:    Size  Location     Type
  3653 ;;		None
  3654 ;; Auto vars:     Size  Location     Type
  3655 ;;		None
  3656 ;; Return value:  Size  Location     Type
  3657 ;;                  1    wreg      void 
  3658 ;; Registers used:
  3659 ;;		wreg, status,2, status,0, pclath, cstack
  3660 ;; Tracked objects:
  3661 ;;		On entry : 0/0
  3662 ;;		On exit  : 0/0
  3663 ;;		Unchanged: 0/0
  3664 ;; Data sizes:     COMMON   BANK0   BANK1   BANK3   BANK2
  3665 ;;      Params:         0       0       0       0       0
  3666 ;;      Locals:         0       0       0       0       0
  3667 ;;      Temps:          0       2       0       0       0
  3668 ;;      Totals:         0       2       0       0       0
  3669 ;;Total ram usage:        2 bytes
  3670 ;; Hardware stack levels used:    1
  3671 ;; Hardware stack levels required when called:    3
  3672 ;; This function calls:
  3673 ;;		_Lcd_Cmd
  3674 ;;		_Lcd_Port
  3675 ;; This function is called by:
  3676 ;;		_main
  3677 ;; This function uses a non-reentrant model
  3678 ;;
  3679                           
  3680                           
  3681                           ;psect for function _Lcd_Init
  3682  0F2E                     _Lcd_Init:
  3683  0F2E                     l2291:	
  3684                           ;incstack = 0
  3685                           ; Regs used in _Lcd_Init: [wreg+status,2+status,0+pclath+cstack]
  3686                           
  3687                           
  3688                           ;LCD.c: 66:     Lcd_Port(0x00);
  3689  0F2E  3000               	movlw	0
  3690  0F2F  120A  158A  26AE  120A  158A  	fcall	_Lcd_Port
  3691  0F34                     l2293:
  3692                           
  3693                           ;LCD.c: 67:     _delay((unsigned long)((20)*(8000000/4000.0)));
  3694  0F34  3034               	movlw	52
  3695  0F35  1283               	bcf	3,5	;RP0=0, select bank0
  3696  0F36  1303               	bcf	3,6	;RP1=0, select bank0
  3697  0F37  00A1               	movwf	??_Lcd_Init+1
  3698  0F38  30F1               	movlw	241
  3699  0F39  00A0               	movwf	??_Lcd_Init
  3700  0F3A                     u3047:
  3701  0F3A  0BA0               	decfsz	??_Lcd_Init,f
  3702  0F3B  2F3A               	goto	u3047
  3703  0F3C  0BA1               	decfsz	??_Lcd_Init+1,f
  3704  0F3D  2F3A               	goto	u3047
  3705  0F3E                     l2295:
  3706                           
  3707                           ;LCD.c: 68:     Lcd_Cmd(0x03);
  3708  0F3E  3003               	movlw	3
  3709  0F3F  120A  158A  267A  120A  158A  	fcall	_Lcd_Cmd
  3710                           
  3711                           ;LCD.c: 69:     _delay((unsigned long)((5)*(8000000/4000.0)));
  3712  0F44  300D               	movlw	13
  3713  0F45  1283               	bcf	3,5	;RP0=0, select bank0
  3714  0F46  1303               	bcf	3,6	;RP1=0, select bank0
  3715  0F47  00A1               	movwf	??_Lcd_Init+1
  3716  0F48  30FB               	movlw	251
  3717  0F49  00A0               	movwf	??_Lcd_Init
  3718  0F4A                     u3057:
  3719  0F4A  0BA0               	decfsz	??_Lcd_Init,f
  3720  0F4B  2F4A               	goto	u3057
  3721  0F4C  0BA1               	decfsz	??_Lcd_Init+1,f
  3722  0F4D  2F4A               	goto	u3057
  3723  0F4E                     l2297:
  3724                           
  3725                           ;LCD.c: 70:     Lcd_Cmd(0x03);
  3726  0F4E  3003               	movlw	3
  3727  0F4F  120A  158A  267A  120A  158A  	fcall	_Lcd_Cmd
  3728  0F54                     l2299:
  3729                           
  3730                           ;LCD.c: 71:     _delay((unsigned long)((11)*(8000000/4000.0)));
  3731  0F54  301D               	movlw	29
  3732  0F55  1283               	bcf	3,5	;RP0=0, select bank0
  3733  0F56  1303               	bcf	3,6	;RP1=0, select bank0
  3734  0F57  00A1               	movwf	??_Lcd_Init+1
  3735  0F58  3090               	movlw	144
  3736  0F59  00A0               	movwf	??_Lcd_Init
  3737  0F5A                     u3067:
  3738  0F5A  0BA0               	decfsz	??_Lcd_Init,f
  3739  0F5B  2F5A               	goto	u3067
  3740  0F5C  0BA1               	decfsz	??_Lcd_Init+1,f
  3741  0F5D  2F5A               	goto	u3067
  3742  0F5E  0000               	nop
  3743                           
  3744                           ;LCD.c: 72:     Lcd_Cmd(0x03);
  3745  0F5F  3003               	movlw	3
  3746  0F60  120A  158A  267A  120A  158A  	fcall	_Lcd_Cmd
  3747                           
  3748                           ;LCD.c: 74:     Lcd_Cmd(0x02);
  3749  0F65  3002               	movlw	2
  3750  0F66  120A  158A  267A  120A  158A  	fcall	_Lcd_Cmd
  3751                           
  3752                           ;LCD.c: 75:     Lcd_Cmd(0x02);
  3753  0F6B  3002               	movlw	2
  3754  0F6C  120A  158A  267A  120A  158A  	fcall	_Lcd_Cmd
  3755                           
  3756                           ;LCD.c: 76:     Lcd_Cmd(0x08);
  3757  0F71  3008               	movlw	8
  3758  0F72  120A  158A  267A  120A  158A  	fcall	_Lcd_Cmd
  3759                           
  3760                           ;LCD.c: 77:     Lcd_Cmd(0x00);
  3761  0F77  3000               	movlw	0
  3762  0F78  120A  158A  267A  120A  158A  	fcall	_Lcd_Cmd
  3763                           
  3764                           ;LCD.c: 78:     Lcd_Cmd(0x0C);
  3765  0F7D  300C               	movlw	12
  3766  0F7E  120A  158A  267A  120A  158A  	fcall	_Lcd_Cmd
  3767                           
  3768                           ;LCD.c: 79:     Lcd_Cmd(0x00);
  3769  0F83  3000               	movlw	0
  3770  0F84  120A  158A  267A  120A  158A  	fcall	_Lcd_Cmd
  3771                           
  3772                           ;LCD.c: 80:     Lcd_Cmd(0x06);
  3773  0F89  3006               	movlw	6
  3774  0F8A  120A  158A  267A  120A  158A  	fcall	_Lcd_Cmd
  3775  0F8F                     l262:
  3776  0F8F  0008               	return
  3777  0F90                     __end_of_Lcd_Init:
  3778                           
  3779                           	psect	text9
  3780  0E7A                     __ptext9:	
  3781 ;; *************** function _Lcd_Cmd *****************
  3782 ;; Defined at:
  3783 ;;		line 35 in file "LCD.c"
  3784 ;; Parameters:    Size  Location     Type
  3785 ;;  a               1    wreg     unsigned char 
  3786 ;; Auto vars:     Size  Location     Type
  3787 ;;  a               1    6[COMMON] unsigned char 
  3788 ;; Return value:  Size  Location     Type
  3789 ;;                  1    wreg      void 
  3790 ;; Registers used:
  3791 ;;		wreg, status,2, status,0, pclath, cstack
  3792 ;; Tracked objects:
  3793 ;;		On entry : 0/0
  3794 ;;		On exit  : 0/0
  3795 ;;		Unchanged: 0/0
  3796 ;; Data sizes:     COMMON   BANK0   BANK1   BANK3   BANK2
  3797 ;;      Params:         0       0       0       0       0
  3798 ;;      Locals:         1       0       0       0       0
  3799 ;;      Temps:          2       0       0       0       0
  3800 ;;      Totals:         3       0       0       0       0
  3801 ;;Total ram usage:        3 bytes
  3802 ;; Hardware stack levels used:    1
  3803 ;; Hardware stack levels required when called:    2
  3804 ;; This function calls:
  3805 ;;		_Lcd_Port
  3806 ;; This function is called by:
  3807 ;;		_Lcd_Init
  3808 ;;		_Lcd_Clear
  3809 ;;		_Lcd_Set_Cursor
  3810 ;;		_Lcd_Shift_Right
  3811 ;;		_Lcd_Shift_Left
  3812 ;; This function uses a non-reentrant model
  3813 ;;
  3814                           
  3815                           
  3816                           ;psect for function _Lcd_Cmd
  3817  0E7A                     _Lcd_Cmd:
  3818                           
  3819                           ;incstack = 0
  3820                           ; Regs used in _Lcd_Cmd: [wreg+status,2+status,0+pclath+cstack]
  3821                           ;Lcd_Cmd@a stored from wreg
  3822  0E7A  00F6               	movwf	Lcd_Cmd@a
  3823  0E7B                     l1641:
  3824                           
  3825                           ;LCD.c: 36:     PORTBbits.RB4 = 0;
  3826  0E7B  1283               	bcf	3,5	;RP0=0, select bank0
  3827  0E7C  1303               	bcf	3,6	;RP1=0, select bank0
  3828  0E7D  1206               	bcf	6,4	;volatile
  3829  0E7E                     l1643:
  3830                           
  3831                           ;LCD.c: 37:     Lcd_Port(a);
  3832  0E7E  0876               	movf	Lcd_Cmd@a,w
  3833  0E7F  120A  158A  26AE  120A  158A  	fcall	_Lcd_Port
  3834  0E84                     l1645:
  3835                           
  3836                           ;LCD.c: 38:     RB5 = 1;
  3837  0E84  1283               	bcf	3,5	;RP0=0, select bank0
  3838  0E85  1303               	bcf	3,6	;RP1=0, select bank0
  3839  0E86  1686               	bsf	6,5	;volatile
  3840  0E87                     l1647:
  3841                           
  3842                           ;LCD.c: 39:     _delay((unsigned long)((4)*(8000000/4000.0)));
  3843  0E87  300B               	movlw	11
  3844  0E88  00F5               	movwf	??_Lcd_Cmd+1
  3845  0E89  3062               	movlw	98
  3846  0E8A  00F4               	movwf	??_Lcd_Cmd
  3847  0E8B                     u3077:
  3848  0E8B  0BF4               	decfsz	??_Lcd_Cmd,f
  3849  0E8C  2E8B               	goto	u3077
  3850  0E8D  0BF5               	decfsz	??_Lcd_Cmd+1,f
  3851  0E8E  2E8B               	goto	u3077
  3852  0E8F  0000               	nop
  3853  0E90                     l1649:
  3854                           
  3855                           ;LCD.c: 40:     RB5 = 0;
  3856  0E90  1283               	bcf	3,5	;RP0=0, select bank0
  3857  0E91  1303               	bcf	3,6	;RP1=0, select bank0
  3858  0E92  1286               	bcf	6,5	;volatile
  3859  0E93                     l250:
  3860  0E93  0008               	return
  3861  0E94                     __end_of_Lcd_Cmd:
  3862                           
  3863                           	psect	text10
  3864  0EAE                     __ptext10:	
  3865 ;; *************** function _Lcd_Port *****************
  3866 ;; Defined at:
  3867 ;;		line 13 in file "LCD.c"
  3868 ;; Parameters:    Size  Location     Type
  3869 ;;  a               1    wreg     unsigned char 
  3870 ;; Auto vars:     Size  Location     Type
  3871 ;;  a               1    3[COMMON] unsigned char 
  3872 ;; Return value:  Size  Location     Type
  3873 ;;                  1    wreg      void 
  3874 ;; Registers used:
  3875 ;;		wreg
  3876 ;; Tracked objects:
  3877 ;;		On entry : 0/0
  3878 ;;		On exit  : 0/0
  3879 ;;		Unchanged: 0/0
  3880 ;; Data sizes:     COMMON   BANK0   BANK1   BANK3   BANK2
  3881 ;;      Params:         0       0       0       0       0
  3882 ;;      Locals:         1       0       0       0       0
  3883 ;;      Temps:          0       0       0       0       0
  3884 ;;      Totals:         1       0       0       0       0
  3885 ;;Total ram usage:        1 bytes
  3886 ;; Hardware stack levels used:    1
  3887 ;; Hardware stack levels required when called:    1
  3888 ;; This function calls:
  3889 ;;		Nothing
  3890 ;; This function is called by:
  3891 ;;		_Lcd_Cmd
  3892 ;;		_Lcd_Init
  3893 ;;		_Lcd_Write_Char
  3894 ;; This function uses a non-reentrant model
  3895 ;;
  3896                           
  3897                           
  3898                           ;psect for function _Lcd_Port
  3899  0EAE                     _Lcd_Port:
  3900                           
  3901                           ;incstack = 0
  3902                           ; Regs used in _Lcd_Port: [wreg]
  3903                           ;Lcd_Port@a stored from wreg
  3904  0EAE  00F3               	movwf	Lcd_Port@a
  3905  0EAF                     l1617:
  3906                           
  3907                           ;LCD.c: 14:     if (a & 1)
  3908  0EAF  1C73               	btfss	Lcd_Port@a,0
  3909  0EB0  2EB2               	goto	u1341
  3910  0EB1  2EB3               	goto	u1340
  3911  0EB2                     u1341:
  3912  0EB2  2EB7               	goto	l239
  3913  0EB3                     u1340:
  3914  0EB3                     l1619:
  3915                           
  3916                           ;LCD.c: 15:         RB0 = 1;
  3917  0EB3  1283               	bcf	3,5	;RP0=0, select bank0
  3918  0EB4  1303               	bcf	3,6	;RP1=0, select bank0
  3919  0EB5  1406               	bsf	6,0	;volatile
  3920  0EB6  2EBA               	goto	l240
  3921  0EB7                     l239:	
  3922                           ;LCD.c: 16:     else
  3923                           
  3924                           
  3925                           ;LCD.c: 17:         RB0 = 0;
  3926  0EB7  1283               	bcf	3,5	;RP0=0, select bank0
  3927  0EB8  1303               	bcf	3,6	;RP1=0, select bank0
  3928  0EB9  1006               	bcf	6,0	;volatile
  3929  0EBA                     l240:
  3930                           
  3931                           ;LCD.c: 19:     if (a & 2)
  3932  0EBA  1CF3               	btfss	Lcd_Port@a,1
  3933  0EBB  2EBD               	goto	u1351
  3934  0EBC  2EBE               	goto	u1350
  3935  0EBD                     u1351:
  3936  0EBD  2EC0               	goto	l241
  3937  0EBE                     u1350:
  3938  0EBE                     l1621:
  3939                           
  3940                           ;LCD.c: 20:         RB1 = 1;
  3941  0EBE  1486               	bsf	6,1	;volatile
  3942  0EBF  2EC1               	goto	l242
  3943  0EC0                     l241:	
  3944                           ;LCD.c: 21:     else
  3945                           
  3946                           
  3947                           ;LCD.c: 22:         RB1 = 0;
  3948  0EC0  1086               	bcf	6,1	;volatile
  3949  0EC1                     l242:
  3950                           
  3951                           ;LCD.c: 24:     if (a & 4)
  3952  0EC1  1D73               	btfss	Lcd_Port@a,2
  3953  0EC2  2EC4               	goto	u1361
  3954  0EC3  2EC5               	goto	u1360
  3955  0EC4                     u1361:
  3956  0EC4  2EC7               	goto	l243
  3957  0EC5                     u1360:
  3958  0EC5                     l1623:
  3959                           
  3960                           ;LCD.c: 25:         RB2 = 1;
  3961  0EC5  1506               	bsf	6,2	;volatile
  3962  0EC6  2EC8               	goto	l244
  3963  0EC7                     l243:	
  3964                           ;LCD.c: 26:     else
  3965                           
  3966                           
  3967                           ;LCD.c: 27:         RB2 = 0;
  3968  0EC7  1106               	bcf	6,2	;volatile
  3969  0EC8                     l244:
  3970                           
  3971                           ;LCD.c: 29:     if (a & 8)
  3972  0EC8  1DF3               	btfss	Lcd_Port@a,3
  3973  0EC9  2ECB               	goto	u1371
  3974  0ECA  2ECC               	goto	u1370
  3975  0ECB                     u1371:
  3976  0ECB  2ECE               	goto	l245
  3977  0ECC                     u1370:
  3978  0ECC                     l1625:
  3979                           
  3980                           ;LCD.c: 30:         RB3 = 1;
  3981  0ECC  1586               	bsf	6,3	;volatile
  3982  0ECD  2ECF               	goto	l247
  3983  0ECE                     l245:	
  3984                           ;LCD.c: 31:     else
  3985                           
  3986                           
  3987                           ;LCD.c: 32:         RB3 = 0;
  3988  0ECE  1186               	bcf	6,3	;volatile
  3989  0ECF                     l247:
  3990  0ECF  0008               	return
  3991  0ED0                     __end_of_Lcd_Port:
  3992                           
  3993                           	psect	text11
  3994  0F90                     __ptext11:	
  3995 ;; *************** function _isr *****************
  3996 ;; Defined at:
  3997 ;;		line 63 in file "main.c"
  3998 ;; Parameters:    Size  Location     Type
  3999 ;;		None
  4000 ;; Auto vars:     Size  Location     Type
  4001 ;;		None
  4002 ;; Return value:  Size  Location     Type
  4003 ;;                  1    wreg      void 
  4004 ;; Registers used:
  4005 ;;		wreg, status,2
  4006 ;; Tracked objects:
  4007 ;;		On entry : 0/0
  4008 ;;		On exit  : 0/0
  4009 ;;		Unchanged: 0/0
  4010 ;; Data sizes:     COMMON   BANK0   BANK1   BANK3   BANK2
  4011 ;;      Params:         0       0       0       0       0
  4012 ;;      Locals:         0       0       0       0       0
  4013 ;;      Temps:          3       0       0       0       0
  4014 ;;      Totals:         3       0       0       0       0
  4015 ;;Total ram usage:        3 bytes
  4016 ;; Hardware stack levels used:    1
  4017 ;; This function calls:
  4018 ;;		Nothing
  4019 ;; This function is called by:
  4020 ;;		Interrupt level 1
  4021 ;; This function uses a non-reentrant model
  4022 ;;
  4023                           
  4024                           
  4025                           ;psect for function _isr
  4026  0F90                     _isr:
  4027  0F90                     i1l2091:
  4028                           
  4029                           ;main.c: 64:     (INTCONbits.GIE = 0);
  4030  0F90  138B               	bcf	11,7	;volatile
  4031                           
  4032                           ;main.c: 65:     if (PIR2bits.CCP2IF == 1){
  4033  0F91  1283               	bcf	3,5	;RP0=0, select bank0
  4034  0F92  1303               	bcf	3,6	;RP1=0, select bank0
  4035  0F93  1C0D               	btfss	13,0	;volatile
  4036  0F94  2F96               	goto	u229_21
  4037  0F95  2F97               	goto	u229_20
  4038  0F96                     u229_21:
  4039  0F96  2FA2               	goto	i1l2107
  4040  0F97                     u229_20:
  4041  0F97                     i1l2093:
  4042                           
  4043                           ;main.c: 67:         TMR1ON = 0;
  4044  0F97  1010               	bcf	16,0	;volatile
  4045  0F98                     i1l2095:
  4046                           
  4047                           ;main.c: 68:         frecu=(CCPR2H << 8 ) | CCPR2L;
  4048  0F98  081C               	movf	28,w	;volatile
  4049  0F99  00ED               	movwf	_frecu+1
  4050  0F9A  081B               	movf	27,w	;volatile
  4051  0F9B  00EC               	movwf	_frecu
  4052  0F9C                     i1l2097:
  4053                           
  4054                           ;main.c: 69:         flag_frec=1;
  4055  0F9C  01E6               	clrf	_flag_frec
  4056  0F9D  0AE6               	incf	_flag_frec,f
  4057  0F9E                     i1l2099:
  4058                           
  4059                           ;main.c: 70:         TMR1L = 0X00;
  4060  0F9E  018E               	clrf	14	;volatile
  4061  0F9F                     i1l2101:
  4062                           
  4063                           ;main.c: 71:         TMR1H = 0X00;
  4064  0F9F  018F               	clrf	15	;volatile
  4065  0FA0                     i1l2103:
  4066                           
  4067                           ;main.c: 72:         PIR2bits.CCP2IF = 0;
  4068  0FA0  100D               	bcf	13,0	;volatile
  4069  0FA1                     i1l2105:
  4070                           
  4071                           ;main.c: 73:         TMR1ON = 1;
  4072  0FA1  1410               	bsf	16,0	;volatile
  4073  0FA2                     i1l2107:
  4074                           
  4075                           ;main.c: 76:      if(PIR1bits.SSPIF == 1){
  4076  0FA2  1D8C               	btfss	12,3	;volatile
  4077  0FA3  2FA5               	goto	u230_21
  4078  0FA4  2FA6               	goto	u230_20
  4079  0FA5                     u230_21:
  4080  0FA5  2FF8               	goto	i1l108
  4081  0FA6                     u230_20:
  4082  0FA6                     i1l2109:
  4083                           
  4084                           ;main.c: 78:         SSPCONbits.CKP = 0;
  4085  0FA6  1214               	bcf	20,4	;volatile
  4086                           
  4087                           ;main.c: 80:         if ((SSPCONbits.SSPOV) || (SSPCONbits.WCOL)){
  4088  0FA7  1B14               	btfsc	20,6	;volatile
  4089  0FA8  2FAA               	goto	u231_21
  4090  0FA9  2FAB               	goto	u231_20
  4091  0FAA                     u231_21:
  4092  0FAA  2FAF               	goto	i1l2113
  4093  0FAB                     u231_20:
  4094  0FAB                     i1l2111:
  4095  0FAB  1F94               	btfss	20,7	;volatile
  4096  0FAC  2FAE               	goto	u232_21
  4097  0FAD  2FAF               	goto	u232_20
  4098  0FAE                     u232_21:
  4099  0FAE  2FB6               	goto	i1l2121
  4100  0FAF                     u232_20:
  4101  0FAF                     i1l2113:
  4102                           
  4103                           ;main.c: 81:             z = SSPBUF;
  4104  0FAF  0813               	movf	19,w	;volatile
  4105  0FB0  00F0               	movwf	??_isr
  4106  0FB1  0870               	movf	??_isr,w
  4107  0FB2  00E5               	movwf	_z
  4108  0FB3                     i1l2115:
  4109                           
  4110                           ;main.c: 82:             SSPCONbits.SSPOV = 0;
  4111  0FB3  1314               	bcf	20,6	;volatile
  4112  0FB4                     i1l2117:
  4113                           
  4114                           ;main.c: 83:             SSPCONbits.WCOL = 0;
  4115  0FB4  1394               	bcf	20,7	;volatile
  4116  0FB5                     i1l2119:
  4117                           
  4118                           ;main.c: 84:             SSPCONbits.CKP = 1;
  4119  0FB5  1614               	bsf	20,4	;volatile
  4120  0FB6                     i1l2121:
  4121                           
  4122                           ;main.c: 87:         if(!SSPSTATbits.D_nA && !SSPSTATbits.R_nW) {
  4123  0FB6  1683               	bsf	3,5	;RP0=1, select bank1
  4124  0FB7  1303               	bcf	3,6	;RP1=0, select bank1
  4125  0FB8  1A94               	btfsc	20,5	;volatile
  4126  0FB9  2FBB               	goto	u233_21
  4127  0FBA  2FBC               	goto	u233_20
  4128  0FBB                     u233_21:
  4129  0FBB  2FD4               	goto	i1l112
  4130  0FBC                     u233_20:
  4131  0FBC                     i1l2123:
  4132  0FBC  1914               	btfsc	20,2	;volatile
  4133  0FBD  2FBF               	goto	u234_21
  4134  0FBE  2FC0               	goto	u234_20
  4135  0FBF                     u234_21:
  4136  0FBF  2FD4               	goto	i1l112
  4137  0FC0                     u234_20:
  4138  0FC0                     i1l2125:
  4139                           
  4140                           ;main.c: 89:             z = SSPBUF;
  4141  0FC0  1283               	bcf	3,5	;RP0=0, select bank0
  4142  0FC1  1303               	bcf	3,6	;RP1=0, select bank0
  4143  0FC2  0813               	movf	19,w	;volatile
  4144  0FC3  00F0               	movwf	??_isr
  4145  0FC4  0870               	movf	??_isr,w
  4146  0FC5  00E5               	movwf	_z
  4147  0FC6                     i1l2127:
  4148                           
  4149                           ;main.c: 91:             PIR1bits.SSPIF = 0;
  4150  0FC6  118C               	bcf	12,3	;volatile
  4151  0FC7                     i1l2129:
  4152                           
  4153                           ;main.c: 92:             SSPCONbits.CKP = 1;
  4154  0FC7  1614               	bsf	20,4	;volatile
  4155  0FC8                     i1l113:	
  4156                           ;main.c: 93:             while(!SSPSTATbits.BF);
  4157                           
  4158  0FC8  1683               	bsf	3,5	;RP0=1, select bank1
  4159  0FC9  1303               	bcf	3,6	;RP1=0, select bank1
  4160  0FCA  1C14               	btfss	20,0	;volatile
  4161  0FCB  2FCD               	goto	u235_21
  4162  0FCC  2FCE               	goto	u235_20
  4163  0FCD                     u235_21:
  4164  0FCD  2FC8               	goto	i1l113
  4165  0FCE                     u235_20:
  4166  0FCE                     i1l2131:
  4167                           
  4168                           ;main.c: 95:             _delay((unsigned long)((250)*(8000000/4000000.0)));
  4169  0FCE  30A6               	movlw	166
  4170  0FCF  00F0               	movwf	??_isr
  4171  0FD0                     u308_27:
  4172  0FD0  0BF0               	decfsz	??_isr,f
  4173  0FD1  2FD0               	goto	u308_27
  4174  0FD2  0000               	nop
  4175                           
  4176                           ;main.c: 97:         }else if(!SSPSTATbits.D_nA && SSPSTATbits.R_nW){
  4177  0FD3  2FF5               	goto	i1l116
  4178  0FD4                     i1l112:
  4179  0FD4  1A94               	btfsc	20,5	;volatile
  4180  0FD5  2FD7               	goto	u236_21
  4181  0FD6  2FD8               	goto	u236_20
  4182  0FD7                     u236_21:
  4183  0FD7  2FF5               	goto	i1l116
  4184  0FD8                     u236_20:
  4185  0FD8                     i1l2133:
  4186  0FD8  1D14               	btfss	20,2	;volatile
  4187  0FD9  2FDB               	goto	u237_21
  4188  0FDA  2FDC               	goto	u237_20
  4189  0FDB                     u237_21:
  4190  0FDB  2FF5               	goto	i1l116
  4191  0FDC                     u237_20:
  4192  0FDC                     i1l2135:
  4193                           
  4194                           ;main.c: 98:             z = SSPBUF;
  4195  0FDC  1283               	bcf	3,5	;RP0=0, select bank0
  4196  0FDD  1303               	bcf	3,6	;RP1=0, select bank0
  4197  0FDE  0813               	movf	19,w	;volatile
  4198  0FDF  00F0               	movwf	??_isr
  4199  0FE0  0870               	movf	??_isr,w
  4200  0FE1  00E5               	movwf	_z
  4201  0FE2                     i1l2137:
  4202                           
  4203                           ;main.c: 99:             BF = 0;
  4204  0FE2  1683               	bsf	3,5	;RP0=1, select bank1
  4205  0FE3  1303               	bcf	3,6	;RP1=0, select bank1
  4206  0FE4  1014               	bcf	20,0	;volatile
  4207                           
  4208                           ;main.c: 100:             SSPBUF = COLOR;
  4209  0FE5  1283               	bcf	3,5	;RP0=0, select bank0
  4210  0FE6  1303               	bcf	3,6	;RP1=0, select bank0
  4211  0FE7  0868               	movf	_COLOR,w
  4212  0FE8  0093               	movwf	19	;volatile
  4213  0FE9                     i1l2139:
  4214                           
  4215                           ;main.c: 101:             SSPCONbits.CKP = 1;
  4216  0FE9  1614               	bsf	20,4	;volatile
  4217                           
  4218                           ;main.c: 102:             _delay((unsigned long)((250)*(8000000/4000000.0)));
  4219  0FEA  30A6               	movlw	166
  4220  0FEB  00F0               	movwf	??_isr
  4221  0FEC                     u309_27:
  4222  0FEC  0BF0               	decfsz	??_isr,f
  4223  0FED  2FEC               	goto	u309_27
  4224  0FEE  0000               	nop
  4225  0FEF                     i1l118:	
  4226                           ;main.c: 103:             while(SSPSTATbits.BF);
  4227                           
  4228  0FEF  1683               	bsf	3,5	;RP0=1, select bank1
  4229  0FF0  1303               	bcf	3,6	;RP1=0, select bank1
  4230  0FF1  1814               	btfsc	20,0	;volatile
  4231  0FF2  2FF4               	goto	u238_21
  4232  0FF3  2FF5               	goto	u238_20
  4233  0FF4                     u238_21:
  4234  0FF4  2FEF               	goto	i1l118
  4235  0FF5                     u238_20:
  4236  0FF5                     i1l116:
  4237                           
  4238                           ;main.c: 106:         PIR1bits.SSPIF = 0;
  4239  0FF5  1283               	bcf	3,5	;RP0=0, select bank0
  4240  0FF6  1303               	bcf	3,6	;RP1=0, select bank0
  4241  0FF7  118C               	bcf	12,3	;volatile
  4242  0FF8                     i1l108:	
  4243                           ;main.c: 107:     }
  4244                           
  4245                           
  4246                           ;main.c: 108:     (INTCONbits.GIE = 1);
  4247  0FF8  178B               	bsf	11,7	;volatile
  4248  0FF9                     i1l121:
  4249  0FF9  0872               	movf	??_isr+2,w
  4250  0FFA  008A               	movwf	10
  4251  0FFB  0E71               	swapf	??_isr+1,w
  4252  0FFC  0083               	movwf	3
  4253  0FFD  0EFE               	swapf	btemp,f
  4254  0FFE  0E7E               	swapf	btemp,w
  4255  0FFF  0009               	retfie
  4256  1000                     __end_of_isr:
  4257  007E                     btemp	set	126	;btemp
  4258  007E                     wtemp0	set	126
  4259                           
  4260                           	psect	intentry
  4261  0004                     __pintentry:	
  4262                           ;incstack = 0
  4263                           ; Regs used in _isr: [wreg+status,2]
  4264                           
  4265  0004                     interrupt_function:
  4266  007E                     saved_w	set	btemp
  4267  0004  00FE               	movwf	btemp
  4268  0005  0E03               	swapf	3,w
  4269  0006  00F1               	movwf	??_isr+1
  4270  0007  080A               	movf	10,w
  4271  0008  00F2               	movwf	??_isr+2
  4272  0009  120A  158A  2F90   	ljmp	_isr
  4273                           
  4274                           	psect	config
  4275                           
  4276                           ;Config register CONFIG1 @ 0x2007
  4277                           ;	Oscillator Selection bits
  4278                           ;	FOSC = INTRC_CLKOUT, INTOSC oscillator: CLKOUT function on RA6/OSC2/CLKOUT pin, I/O fu
      +                          nction on RA7/OSC1/CLKIN
  4279                           ;	Watchdog Timer Enable bit
  4280                           ;	WDTE = OFF, WDT disabled and can be enabled by SWDTEN bit of the WDTCON register
  4281                           ;	Power-up Timer Enable bit
  4282                           ;	PWRTE = OFF, PWRT disabled
  4283                           ;	RE3/MCLR pin function select bit
  4284                           ;	MCLRE = OFF, RE3/MCLR pin function is digital input, MCLR internally tied to VDD
  4285                           ;	Code Protection bit
  4286                           ;	CP = OFF, Program memory code protection is disabled
  4287                           ;	Data Code Protection bit
  4288                           ;	CPD = OFF, Data memory code protection is disabled
  4289                           ;	Brown Out Reset Selection bits
  4290                           ;	BOREN = OFF, BOR disabled
  4291                           ;	Internal External Switchover bit
  4292                           ;	IESO = OFF, Internal/External Switchover mode is disabled
  4293                           ;	Fail-Safe Clock Monitor Enabled bit
  4294                           ;	FCMEN = OFF, Fail-Safe Clock Monitor is disabled
  4295                           ;	Low Voltage Programming Enable bit
  4296                           ;	LVP = OFF, RB3 pin has digital I/O, HV on MCLR must be used for programming
  4297                           ;	In-Circuit Debugger Mode bit
  4298                           ;	DEBUG = 0x1, unprogrammed default
  4299  2007                     	org	8199
  4300  2007  20D5               	dw	8405
  4301                           
  4302                           ;Config register CONFIG2 @ 0x2008
  4303                           ;	Brown-out Reset Selection bit
  4304                           ;	BOR4V = BOR40V, Brown-out Reset set to 4.0V
  4305                           ;	Flash Program Memory Self Write Enable bits
  4306                           ;	WRT = OFF, Write protection off
  4307  2008                     	org	8200
  4308  2008  3FFF               	dw	16383

Data Sizes:
    Strings     0
    Constant    0
    Data        0
    BSS         36
    Persistent  0
    Stack       0

Auto Spaces:
    Space          Size  Autos    Used
    COMMON           14      7      10
    BANK0            80     65      78
    BANK1            80      0      20
    BANK3            96      0       0
    BANK2            96      0       0

Pointer List with Targets:

    None.

Critical Paths under _main in COMMON

    _main->___flge
    _main->___xxtofl
    _setup->_I2C_Slave_Init
    ___flmul->__Umul8_16
    ___flmul->___xxtofl
    ___fldiv->___xxtofl
    _Lcd_Init->_Lcd_Cmd
    _Lcd_Cmd->_Lcd_Port

Critical Paths under _isr in COMMON

    None.

Critical Paths under _main in BANK0

    _main->___fldiv
    ___flmul->___xxtofl
    ___fldiv->___flmul

Critical Paths under _isr in BANK0

    None.

Critical Paths under _main in BANK1

    None.

Critical Paths under _isr in BANK1

    None.

Critical Paths under _main in BANK3

    None.

Critical Paths under _isr in BANK3

    None.

Critical Paths under _main in BANK2

    None.

Critical Paths under _isr in BANK2

    None.

Call Graph Tables:

 ---------------------------------------------------------------------------------
 (Depth) Function   	        Calls       Base Space   Used Autos Params    Refs
 ---------------------------------------------------------------------------------
 (0) _main                                                 3     3      0    7662
                                             62 BANK0      3     3      0
                           _Lcd_Init
                            ___fldiv
                             ___flge
                            ___flmul
                           ___xxtofl
                              _setup
 ---------------------------------------------------------------------------------
 (1) _setup                                                0     0      0      22
                     _I2C_Slave_Init
 ---------------------------------------------------------------------------------
 (2) _I2C_Slave_Init                                       1     1      0      22
                                              3 COMMON     1     1      0
 ---------------------------------------------------------------------------------
 (1) ___xxtofl                                            14    10      4     746
                                              3 COMMON     4     0      4
                                              0 BANK0     10    10      0
 ---------------------------------------------------------------------------------
 (1) ___flmul                                             26    18      8    2721
                                             10 BANK0     26    18      8
                          __Umul8_16
                           ___xxtofl (ARG)
 ---------------------------------------------------------------------------------
 (2) __Umul8_16                                            9     7      2     799
                                              3 COMMON     4     2      2
                                              0 BANK0      5     5      0
 ---------------------------------------------------------------------------------
 (1) ___flge                                              12     4      8    2246
                                              3 COMMON     4     4      0
                                              0 BANK0      8     0      8
 ---------------------------------------------------------------------------------
 (1) ___fldiv                                             26    18      8    1729
                                             36 BANK0     26    18      8
                            ___flmul (ARG)
                           ___xxtofl (ARG)
 ---------------------------------------------------------------------------------
 (1) _Lcd_Init                                             2     2      0     198
                                              0 BANK0      2     2      0
                            _Lcd_Cmd
                           _Lcd_Port
 ---------------------------------------------------------------------------------
 (2) _Lcd_Cmd                                              3     3      0     110
                                              4 COMMON     3     3      0
                           _Lcd_Port
 ---------------------------------------------------------------------------------
 (2) _Lcd_Port                                             1     1      0      88
                                              3 COMMON     1     1      0
 ---------------------------------------------------------------------------------
 Estimated maximum stack depth 2
 ---------------------------------------------------------------------------------
 (Depth) Function   	        Calls       Base Space   Used Autos Params    Refs
 ---------------------------------------------------------------------------------
 (4) _isr                                                  3     3      0       0
                                              0 COMMON     3     3      0
 ---------------------------------------------------------------------------------
 Estimated maximum stack depth 4
 ---------------------------------------------------------------------------------

 Call Graph Graphs:

 _main (ROOT)
   _Lcd_Init
     _Lcd_Cmd
       _Lcd_Port
     _Lcd_Port
   ___fldiv
     ___flmul (ARG)
       __Umul8_16
       ___xxtofl (ARG)
     ___xxtofl (ARG)
   ___flge
   ___flmul
     __Umul8_16
     ___xxtofl (ARG)
   ___xxtofl
   _setup
     _I2C_Slave_Init

 _isr (ROOT)

 Address spaces:
Name               Size   Autos  Total    Cost      Usage
BITCOMMON            E      0       0       0        0.0%
EEDATA             100      0       0       0        0.0%
NULL                 0      0       0       0        0.0%
CODE                 0      0       0       0        0.0%
COMMON               E      7       A       1       71.4%
BITSFR0              0      0       0       1        0.0%
SFR0                 0      0       0       1        0.0%
BITSFR1              0      0       0       2        0.0%
SFR1                 0      0       0       2        0.0%
STACK                0      0       0       2        0.0%
ABS                  0      0      6C       3        0.0%
BITBANK0            50      0       0       4        0.0%
BITSFR3              0      0       0       4        0.0%
SFR3                 0      0       0       4        0.0%
BANK0               50     41      4E       5       97.5%
BITSFR2              0      0       0       5        0.0%
SFR2                 0      0       0       5        0.0%
BITBANK1            50      0       0       6        0.0%
BANK1               50      0      14       7       25.0%
BITBANK3            60      0       0       8        0.0%
BANK3               60      0       0       9        0.0%
BITBANK2            60      0       0      10        0.0%
BANK2               60      0       0      11        0.0%
DATA                 0      0      6C      12        0.0%


Microchip Technology PIC Macro Assembler V2.31 build 20201012212115 
Symbol Table                                                                                   Mon Sep 06 10:38:29 2021

           ___fldiv@aexp 005D             ___fldiv@bexp 005C                        _z 0065  
           ___fldiv@sign 0055              _SSPSTATbits 0094                       _BF 04A0  
                     fsr 0004      __Umul8_16@word_mpld 0022                      l131 067D  
                    l222 0EAD                      l240 0EBA                      l241 0EC0  
                    l137 0F2D                      l242 0EC1                      l250 0E93  
                    l243 0EC7                      l244 0EC8                      l245 0ECE  
                    l262 0F8F                      l247 0ECF                      l239 0EB7  
                    l540 07D6                      l541 07EF                      l712 03E4  
                    l537 076A                      l714 0564                      l810 0721  
                    l802 06F9                      l734 0548                      l736 0558  
                    l728 04D6                      l752 0387                      l809 0715  
                    l771 0EE6                      l764 037B                      l773 0EF8  
                    l758 02F3                      l796 06B4                      l798 074B  
                    _GIE 005F                      _RB0 0030                      _RB1 0031  
                    _RB2 0032                      _RB3 0033                      _RB5 0035  
                    _PR2 0092                      _isr 0F90                      indf 0000  
           ___flmul@aexp 003C             ___flmul@bexp 003D             ___flmul@sign 0037  
           ___flmul@temp 0042             ___flmul@prod 003E                     l2001 02CD  
                   l2011 02F0                     l2003 02D3                     l2021 030F  
                   l2005 02D7                     l2031 0355                     l2023 0328  
                   l2015 02F8                     l2007 02D8                     l2041 0374  
                   l2033 035F                     l2017 02FD                     l2025 032E  
                   l2009 02DC                     l2043 037F                     l2035 0361  
                   l2027 033B                     l2019 030B                     l2301 074C  
                   l2037 036F                     l2029 0346                     l2311 07AE  
                   l2303 0762                     l2039 0373                     l2313 07B2  
                   l2305 077E                     l2321 0693                     l2315 07EC  
                   l2307 0786                     l2323 0698                     l1621 0EBE  
                   l2317 07EE                     l2309 078A                     l2341 06E2  
                   l2333 06C5                     l2325 069C                     l1701 0F1B  
                   l1623 0EC5                     l2351 0719                     l2343 06F0  
                   l2335 06CA                     l2327 06AC                     l1631 0EA4  
                   l1711 0F23                     l1703 0F1C                     l1625 0ECC  
                   l1617 0EAF                     l1641 0E7B                     l1801 03DA  
                   l2361 0743                     l2353 0723                     l2345 0700  
                   l2337 06D7                     l2329 06BC                     l1633 0EA5  
                   l1713 0F27                     l1705 0F1D                     l1619 0EB3  
                   l1643 0E7E                     l2291 0F2E                     l1803 03DC  
                   l1651 0ED3                     l2355 0739                     l2347 070B  
                   l2339 06DE                     l1635 0EA6                     l1627 0E95  
                   l1707 0F1F                     l2371 0573                     l1645 0E84  
                   l2293 0F34                     l1901 0554                     l1821 0425  
                   l1805 03EC                     l1813 0405                     l1661 0EF4  
                   l1653 0ED5                     l2357 073E                     l2349 070F  
                   l1637 0EA7                     l1629 0EA3                     l1709 0F21  
                   l2373 057A                     l2381 05C7                     l2365 0565  
                   l1647 0E87                     l2295 0F3E                     l1831 0444  
                   l1823 042D                     l1815 040A                     l1807 03F8  
                   l1655 0EDC                     l1911 0034                     l2359 0742  
                   l1639 0EAA                     l1671 0F08                     l2391 061C  
                   l2383 05E0                     l2375 0580                     l2367 056F  
                   l1649 0E90                     l2297 0F4E                     l1841 0476  
                   l1833 0456                     l1825 0435                     l1809 03FC  
                   l1657 0EE0                     l1921 004B                     l1913 0038  
                   l1681 0F0F                     l1673 0F09                     l1665 0EF9  
                   l2393 0637                     l2385 05FB                     l2377 05C4  
                   l2369 0572                     l2299 0F54                     l1851 0497  
                   l1843 0477                     l1835 045A                     l1827 043D  
                   l1819 0413                     l1771 0399                     l1659 0EEF  
                   l1931 0064                     l1923 004D                     l1915 0039  
                   l1907 0027                     l1691 0F14                     l1683 0F10  
                   l1675 0F0A                     l1667 0F03                     l2395 063F  
                   l2387 05FF                     l2379 05C6                     l1861 04B0  
                   l1853 0499                     l1845 0485                     l1837 045B  
                   l1829 043F                     l1781 03AD                     l1773 039A  
                   l1765 0388                     l1941 0079                     l1933 0065  
                   l1925 0055                     l1917 003E                     l1909 002E  
                   l1693 0F15                     l1685 0F11                     l1677 0F0B  
                   l1669 0F05                     l2397 065A                     l2389 0601  
                   l1871 04D3                     l1855 04A2                     l1863 04B6  
                   l1839 0464                     l1847 0489                     l1791 03C6  
                   l1775 039F                     l1783 03AF                     l1767 038F  
                   l1951 0094                     l1943 0081                     l1935 006A  
                   l1927 005A                     l1919 0043                     l1695 0F18  
                   l1687 0F12                     l1679 0F0C                     l2399 0675  
                   l1881 04F2                     l1865 04BA                     l1857 04A6  
                   l1849 048F                     l1793 03C7                     l1785 03B7  
                   l1777 03A4                     l1769 0395                     l1961 0116  
                   l1953 00A4                     l1945 0086                     l1937 006F  
                   l1929 0060                     l1697 0F19                     l1689 0F13  
                   l1891 053B                     l1883 050B                     l1875 04DB  
                   l1867 04BB                     l1859 04A7                     l1795 03CC  
                   l1787 03BC                     l1779 03AC                     l1971 0184  
                   l1963 0132                     l1955 00B1                     l1947 008B  
                   l1939 0077                     l1699 0F1A                     l1893 053F  
                   l1877 04E0                     l1885 0511                     l1869 04BF  
                   l1797 03D1                     l1789 03C2                     l1981 0214  
                   l1973 0194                     l1965 014E                     l1957 00CE  
                   l1895 0547                     l1887 051E                     l1879 04EE  
                   l1799 03D9                     l1991 02A8                     l1983 0224  
                   l1975 01B1                     l1967 0157                     l1959 00EA  
                   l1897 054E                     l1889 052C                     l1993 02B6  
                   l1985 0251                     l1977 01CA                     l1969 0167  
                   l1899 0552                     l1995 02BF                     l1987 0277  
                   l1979 01E7                     l1997 02C3                     l1989 029F  
                   l1999 02C4                     ?_isr 0070                     u2001 0291  
                   u2002 0298                     u2003 029F                     u2100 030F  
                   u2101 030E                     u2110 031E                     u2030 02C3  
                   u2031 02C2                     u2015 02A1                     u1400 0EF4  
                   u2120 033B                     u1401 0EF3                     u2121 033A  
                   u2025 02B8                     u2130 0355                     u2050 02D7  
                   u2131 0354                     u2115 0319                     u2051 02D6  
                   u1340 0EB3                     u1500 039F                     u2140 0373  
                   u2060 02DC                     u1341 0EB2                     u1501 039E  
                   u2141 0372                     u2125 0337                     u2061 02DB  
                   u2045 02C6                     u1350 0EBE                     u1510 03A4  
                   u2070 02F0                     u1351 0EBD                     u1511 03A3  
                   u2135 0351                     u2071 02EF                     u1360 0EC5  
                   u1600 045A                     u1520 03C6                     u2080 02F7  
                   u1361 0EC4                     u1601 0459                     u1521 03C5  
                   u2081 02F6                     u1370 0ECC                     u1530 03CC  
                   u2090 02FD                     u1371 0ECB                     u1531 03CB  
                   u2091 02FC                     u1700 04D3                     u1620 0476  
                   u1540 03D1                     u1380 0EE0                     u1701 04D2  
                   u1621 0475                     u1541 03D0                     u1381 0EDF  
                   u3037 0685                     u1710 04DA                     u1630 048F  
                   u1550 03EC                     u3047 0F3A                     u1711 04D9  
                   u1631 048E                     u1615 045D                     u1551 03EB  
                   u1720 04E0                     u1640 0497                     u1560 040A  
                   u1800 0043                     u3057 0F4A                     u1721 04DF  
                   u1641 0496                     u1625 0472                     u1561 0409  
                   u1801 0042                     u1730 04F2                     u1570 0444  
                   u1490 0399                     u1810 0064                     u3067 0F5A  
                   u1731 04F1                     u1571 0443                     u1491 0398  
                   u1395 0EE7                     u1811 0063                     u1740 0501  
                   u1660 04A6                     u1820 006A                     u2700 0698  
                   u3077 0E8B                     u1661 04A5                     u1821 0069  
                   u2701 0697                     u1750 051E                     u2630 0762  
                   u1830 006F                     u2710 069C                     u1751 051D  
                   u1655 049B                     u2631 0761                     u1911 0176  
                   u1831 006E                     u2711 069B                     u1760 053B  
                   u1680 04BA                     u2640 077E                     u1912 017D  
                   u1840 0086                     u2800 0719                     u2720 06BC  
                   u1761 053A                     u1745 04FC                     u1681 04B9  
                   u1585 0446                     u2641 077D                     u1921 01A3  
                   u1913 0184                     u1905 0150                     u1841 0085  
                   u2801 0718                     u2721 06BB                     u1770 0552  
                   u1690 04BF                     u2650 078A                     u1922 01AA  
                   u1850 008B                     u2810 072E                     u1771 0551  
                   u1755 051A                     u1691 04BE                     u1675 04A9  
                   u1595 044F                     u2651 0789                     u1923 01B1  
                   u1851 008A                     u1780 0038                     u2820 073E  
                   u2740 06DD                     u2900 065A                     u1765 0537  
                   u2661 0799                     u1941 01D9                     u1861 00DC  
                   u1781 0037                     u2821 073D                     u2741 06DC  
                   u2901 0659                     u2670 07B2                     u2662 079A  
                   u1942 01E0                     u1862 00E3                     u1790 003E  
                   u2830 0742                     u2910 0675                     _AZUL 006A  
                   u2671 07B1                     u2663 079F                     u1951 0206  
                   u1943 01E7                     u1935 01B3                     u1871 00F8  
                   u1863 00EA                     u1791 003D                     u2831 0741  
                   u2815 0729                     u2735 06CF                     u2911 0674  
                   u2664 07A0                     u1952 020D                     u1872 00FF  
                   u2760 06FF                     u2840 057A                     u2681 07C1  
                   u2665 07A5                     u1961 0233                     u1953 0214  
                   u1881 0124                     u1873 0106                     u2761 06FE  
                   u2841 0579                     u2690 07EC                     u2682 07C2  
                   u2666 07A6                     u1970 025D                     u1962 023A  
                   u1882 012B                     u2850 0580                     u2691 07EB  
                   u2683 07C7                     u1963 0241                     u1891 0140  
                   u1883 0132                     u2755 06F1                     u2851 057F  
                   _PEIE 005E                     u2684 07C8                     u1892 0147  
                   u2780 070F                     u2860 05E0                     u2685 07CD  
                   u1981 0269                     u1893 014E                     u2781 070E  
                   u2861 05DF                     u2686 07CE                     u1990 0285  
                   u1982 0270                     u2790 0715                     u2870 05FB  
                   u2695 07E8                     u1983 0277                     u1975 0258  
                   u2791 0714                     u2775 0704                     u2871 05FA  
                   u2880 061C                     u2881 061B                     u2890 0637  
                   u1995 0280                     u2891 0636                     _POS1 0079  
                   _POS2 0078                     _POS3 0077                     _ROJO 006B  
                   _main 0565                     btemp 007E                     start 000C  
        ___fldiv@new_exp 0056          __end_of_Lcd_Cmd 0E94                    ??_isr 0070  
                  ?_main 0070          __end_of___fldiv 0565          __end_of___flmul 0388  
                  _ANSEL 0188                    _T1CON 0010                    _T2CON 0012  
                  _COLOR 0068                    i1l112 0FD4                    i1l121 0FF9  
                  i1l113 0FC8                    i1l116 0FF5                    i1l108 0FF8  
                  i1l118 0FEF                    _TMR1H 000F                    _VERDE 0069  
                  _TMR1L 000E                    _PORTA 0005                    _PORTB 0006  
                  _PORTC 0007                    _PORTD 0008                    _PORTE 0009  
                  _TRISA 0085                    _TRISB 0086                    _TRISC 0087  
                  _TRISD 0088                    _SSPIE 0463                    _TRISE 0089  
                  _SSPIF 0063                    _frecu 006C                    _setup 0EF9  
                  _texto 00A0                    pclath 000A                    status 0003  
                  wtemp0 007E         __end_of_Lcd_Init 0F90         __end_of_Lcd_Port 0ED0  
        __initialization 000F             __end_of_main 0690                   ??_main 005E  
                 _CCPR2H 001C                   _CCPR1L 0015                   _CCPR2L 001B  
                 ?_setup 0070                   _ANSELH 0189                   _COLORL 0067  
                 i1l2101 0F9F                   i1l2111 0FAB                   i1l2103 0FA0  
                 i1l2121 0FB6                   i1l2113 0FAF                   i1l2105 0FA1  
                 i1l2131 0FCE                   i1l2123 0FBC                   i1l2115 0FB3  
                 i1l2107 0FA2                   i1l2133 0FD8                   i1l2125 0FC0  
                 i1l2117 0FB4                   i1l2109 0FA6                   i1l2135 0FDC  
                 i1l2127 0FC6                   i1l2119 0FB5                   i1l2137 0FE2  
                 i1l2129 0FC7                   i1l2139 0FE9                   i1l2091 0F90  
                 i1l2093 0F97                   i1l2095 0F98                   i1l2097 0F9C  
                 i1l2099 0F9E                   u230_20 0FA6                   u230_21 0FA5  
                 u231_20 0FAB                   u231_21 0FAA                   u232_20 0FAF  
                 u232_21 0FAE                   u233_20 0FBC                   u233_21 0FBB  
                 u234_20 0FC0                   u234_21 0FBF                   u235_20 0FCE  
                 u235_21 0FCD                   u236_20 0FD8                   u236_21 0FD7  
                 u308_27 0FD0                   u237_20 0FDC                   u229_20 0F97  
                 u237_21 0FDB                   u229_21 0F96                   u309_27 0FEC  
                 u238_20 0FF5                   u238_21 0FF4                ??_Lcd_Cmd 0074  
                 _TMR1ON 0080                   _SSPADD 0093                   _TRISC3 043B  
                 _TRISC4 043C                   _SSPBUF 0013                   _SSPCON 0014  
       __end_of___xxtofl 074C                   ___flge 074C                ??___fldiv 004C  
              ??___flmul 0032       __size_of__Umul8_16 0029                   saved_w 007E  
             ___flge@ff1 0020               ___flge@ff2 0024             ___xxtofl@arg 0026  
           ___xxtofl@exp 0025             ___xxtofl@val 0073  __end_of__initialization 0023  
         __pcstackCOMMON 0070  __size_of_I2C_Slave_Init 001A            __end_of_setup 0F2E  
              ?_Lcd_Init 0070                ?_Lcd_Port 0070                  ??_setup 0074  
  I2C_Slave_Init@address 0073               __pbssBANK0 0061               __pbssBANK1 00A0  
      __end_of__Umul8_16 0EF9               __pmaintext 0565                  ?___flge 0020  
             __pintentry 0004                  _CCP1CON 0017                  _CCP2CON 001D  
              ?___xxtofl 0073               ??_Lcd_Init 0020               ??_Lcd_Port 0073  
                _SSPCON2 0091                  _SSPSTAT 0094                  _Lcd_Cmd 0E7A  
             _frecuencia 0061          __size_of___flge 00A4                  ___fldiv 0388  
                ___flmul 0027                  __ptext1 0EF9                  __ptext2 0E94  
                __ptext3 0690                  __ptext4 0027                  __ptext5 0ED0  
                __ptext6 074C                  __ptext7 0388                  __ptext8 0F2E  
                __ptext9 0E7A             __size_of_isr 0070               ??___xxtofl 0020  
                clrloop0 07F1     end_of_initialization 0023           _I2C_Slave_Init 0E94  
              Lcd_Port@a 0073                _PORTBbits 0006                _PORTCbits 0007  
              _PORTEbits 0009            ___xxtofl@sign 0024                _TRISCbits 0087  
            ___fldiv@grs 0058              ___fldiv@rem 0051              ___flmul@grs 0038  
 __end_of_I2C_Slave_Init 0EAE           __end_of___flge 07F0      start_initialization 000F  
            __end_of_isr 1000        __size_of_Lcd_Init 0062        __size_of_Lcd_Port 0022  
        ?_I2C_Slave_Init 0070                 ??___flge 0073                __Umul8_16 0ED0  
              ___fldiv@a 0044                ___fldiv@b 0048                ___flmul@a 002E  
              ___flmul@b 002A              __pbssCOMMON 0077                ___latbits 0002  
          __pcstackBANK0 0020        __size_of___xxtofl 00BC                 ?_Lcd_Cmd 0070  
               ?___fldiv 0044                _flag_frec 0066                 ?___flmul 002A  
             ?__Umul8_16 0073           __size_of_setup 0035        interrupt_function 0004  
              clear_ram0 07F0                 _PIE2bits 008D                 Lcd_Cmd@a 0076  
               _PIR1bits 000C                 _PIR2bits 000D                 _Lcd_Init 0F2E  
               _Lcd_Port 0EAE         __size_of_Lcd_Cmd 001A              ??__Umul8_16 0075  
       __size_of___fldiv 01DD         __size_of___flmul 0361                 ___xxtofl 0690  
               __ptext10 0EAE                 __ptext11 0F90         ??_I2C_Slave_Init 0073  
          __size_of_main 012B               _INTCONbits 000B                 intlevel1 0000  
             _OSCCONbits 008F   __Umul8_16@multiplicand 0073              _SSPCON2bits 0091  
   __Umul8_16@multiplier 0024               _SSPCONbits 0014        __Umul8_16@product 0020  
