

Microchip MPLAB XC8 Assembler V2.31 build 20201012212115 
                                                                                               Sun Aug 29 23:22:28 2021

Microchip MPLAB XC8 C Compiler v2.31 (Free license) build 20201012212115 Og1 
     1                           	processor	16F887
     2                           	pagewidth 120
     3                           	opt	flic
     4                           	psect	strings,global,class=STRING,delta=2,noexec
     5                           	psect	cinit,global,class=CODE,merge=1,delta=2
     6                           	psect	bssCOMMON,global,class=COMMON,space=1,delta=1,noexec
     7                           	psect	bssBANK1,global,class=BANK1,space=1,delta=1,noexec
     8                           	psect	clrtext,global,class=CODE,delta=2
     9                           	psect	cstackBANK1,global,class=BANK1,space=1,delta=1,noexec
    10                           	psect	cstackCOMMON,global,class=COMMON,space=1,delta=1,noexec
    11                           	psect	cstackBANK0,global,class=BANK0,space=1,delta=1,noexec
    12                           	psect	maintext,global,class=CODE,split=1,delta=2
    13                           	psect	text1,local,class=CODE,merge=1,delta=2
    14                           	psect	text2,local,class=CODE,merge=1,delta=2
    15                           	psect	text3,local,class=CODE,merge=1,delta=2,group=1
    16                           	psect	text4,local,class=CODE,merge=1,delta=2,group=1
    17                           	psect	text5,local,class=CODE,merge=1,delta=2,group=1
    18                           	psect	text6,local,class=CODE,merge=1,delta=2,group=1
    19                           	psect	text7,local,class=CODE,merge=1,delta=2,group=1
    20                           	psect	text8,local,class=CODE,merge=1,delta=2,group=1
    21                           	psect	text9,local,class=CODE,merge=1,delta=2,group=1
    22                           	psect	text10,local,class=CODE,merge=1,delta=2,group=1
    23                           	psect	text11,local,class=CODE,merge=1,delta=2,group=1
    24                           	psect	text12,local,class=CODE,merge=1,delta=2
    25                           	psect	text13,local,class=CODE,merge=1,delta=2
    26                           	psect	text14,local,class=CODE,merge=1,delta=2
    27                           	psect	text15,local,class=CODE,merge=1,delta=2
    28                           	psect	text16,local,class=CODE,merge=1,delta=2
    29                           	psect	text17,local,class=CODE,merge=1,delta=2
    30                           	psect	text18,local,class=CODE,merge=1,delta=2
    31                           	psect	text19,local,class=CODE,merge=1,delta=2
    32                           	psect	intentry,global,class=CODE,delta=2
    33                           	psect	config,global,abs,ovrld,class=CONFIG,space=4,delta=2,noexec
    34                           	dabs	1,0x7E,2
    35  0000                     
    36                           ; Version 2.20
    37                           ; Generated 12/02/2020 GMT
    38                           ; 
    39                           ; Copyright © 2020, Microchip Technology Inc. and its subsidiaries ("Microchip")
    40                           ; All rights reserved.
    41                           ; 
    42                           ; This software is developed by Microchip Technology Inc. and its subsidiaries ("Microch
      +                          ip").
    43                           ; 
    44                           ; Redistribution and use in source and binary forms, with or without modification, are
    45                           ; permitted provided that the following conditions are met:
    46                           ; 
    47                           ;     1. Redistributions of source code must retain the above copyright notice, this lis
      +                          t of
    48                           ;        conditions and the following disclaimer.
    49                           ; 
    50                           ;     2. Redistributions in binary form must reproduce the above copyright notice, this 
      +                          list
    51                           ;        of conditions and the following disclaimer in the documentation and/or other
    52                           ;        materials provided with the distribution.
    53                           ; 
    54                           ;     3. Microchip's name may not be used to endorse or promote products derived from th
      +                          is
    55                           ;        software without specific prior written permission.
    56                           ; 
    57                           ; THIS SOFTWARE IS PROVIDED BY MICROCHIP "AS IS" AND ANY EXPRESS OR IMPLIED WARRANTIES,
    58                           ; INCLUDING, BUT NOT LIMITED TO, THE IMPLIED WARRANTIES OF MERCHANTABILITY AND FITNESS F
      +                          OR
    59                           ; PURPOSE ARE DISCLAIMED.  IN NO EVENT SHALL MICROCHIP BE LIABLE FOR ANY DIRECT, INDIREC
      +                          T,
    60                           ; INCIDENTAL, SPECIAL, EXEMPLARY, OR CONSEQUENTIAL DAMAGES (INCLUDING BUT NOT LIMITED TO
    61                           ; PROCUREMENT OF SUBSTITUTE GOODS OR SERVICES; LOSS OF USE, DATA OR PROFITS; OR BUSINESS
    62                           ; INTERRUPTION) HOWSOEVER CAUSED AND ON ANY THEORY OF LIABILITY, WHETHER IN CONTRACT, ST
      +                          RICT
    63                           ; LIABILITY, OR TORT (INCLUDING NEGLIGENCE OR OTHERWISE) ARISING IN ANY WAY OUT OF THE U
      +                          SE OF
    64                           ; THIS SOFTWARE, EVEN IF ADVISED OF THE POSSIBILITY OF SUCH DAMAGE.
    65                           ; 
    66                           ; 
    67                           ; Code-generator required, PIC16F887 Definitions
    68                           ; 
    69                           ; SFR Addresses
    70  0000                     	;# 
    71  0001                     	;# 
    72  0002                     	;# 
    73  0003                     	;# 
    74  0004                     	;# 
    75  0005                     	;# 
    76  0006                     	;# 
    77  0007                     	;# 
    78  0008                     	;# 
    79  0009                     	;# 
    80  000A                     	;# 
    81  000B                     	;# 
    82  000C                     	;# 
    83  000D                     	;# 
    84  000E                     	;# 
    85  000E                     	;# 
    86  000F                     	;# 
    87  0010                     	;# 
    88  0011                     	;# 
    89  0012                     	;# 
    90  0013                     	;# 
    91  0014                     	;# 
    92  0015                     	;# 
    93  0015                     	;# 
    94  0016                     	;# 
    95  0017                     	;# 
    96  0018                     	;# 
    97  0019                     	;# 
    98  001A                     	;# 
    99  001B                     	;# 
   100  001B                     	;# 
   101  001C                     	;# 
   102  001D                     	;# 
   103  001E                     	;# 
   104  001F                     	;# 
   105  0081                     	;# 
   106  0085                     	;# 
   107  0086                     	;# 
   108  0087                     	;# 
   109  0088                     	;# 
   110  0089                     	;# 
   111  008C                     	;# 
   112  008D                     	;# 
   113  008E                     	;# 
   114  008F                     	;# 
   115  0090                     	;# 
   116  0091                     	;# 
   117  0092                     	;# 
   118  0093                     	;# 
   119  0093                     	;# 
   120  0093                     	;# 
   121  0094                     	;# 
   122  0095                     	;# 
   123  0096                     	;# 
   124  0097                     	;# 
   125  0098                     	;# 
   126  0099                     	;# 
   127  009A                     	;# 
   128  009B                     	;# 
   129  009C                     	;# 
   130  009D                     	;# 
   131  009E                     	;# 
   132  009F                     	;# 
   133  0105                     	;# 
   134  0107                     	;# 
   135  0108                     	;# 
   136  0109                     	;# 
   137  010C                     	;# 
   138  010C                     	;# 
   139  010D                     	;# 
   140  010E                     	;# 
   141  010F                     	;# 
   142  0185                     	;# 
   143  0187                     	;# 
   144  0188                     	;# 
   145  0189                     	;# 
   146  018C                     	;# 
   147  018D                     	;# 
   148  0000                     	;# 
   149  0001                     	;# 
   150  0002                     	;# 
   151  0003                     	;# 
   152  0004                     	;# 
   153  0005                     	;# 
   154  0006                     	;# 
   155  0007                     	;# 
   156  0008                     	;# 
   157  0009                     	;# 
   158  000A                     	;# 
   159  000B                     	;# 
   160  000C                     	;# 
   161  000D                     	;# 
   162  000E                     	;# 
   163  000E                     	;# 
   164  000F                     	;# 
   165  0010                     	;# 
   166  0011                     	;# 
   167  0012                     	;# 
   168  0013                     	;# 
   169  0014                     	;# 
   170  0015                     	;# 
   171  0015                     	;# 
   172  0016                     	;# 
   173  0017                     	;# 
   174  0018                     	;# 
   175  0019                     	;# 
   176  001A                     	;# 
   177  001B                     	;# 
   178  001B                     	;# 
   179  001C                     	;# 
   180  001D                     	;# 
   181  001E                     	;# 
   182  001F                     	;# 
   183  0081                     	;# 
   184  0085                     	;# 
   185  0086                     	;# 
   186  0087                     	;# 
   187  0088                     	;# 
   188  0089                     	;# 
   189  008C                     	;# 
   190  008D                     	;# 
   191  008E                     	;# 
   192  008F                     	;# 
   193  0090                     	;# 
   194  0091                     	;# 
   195  0092                     	;# 
   196  0093                     	;# 
   197  0093                     	;# 
   198  0093                     	;# 
   199  0094                     	;# 
   200  0095                     	;# 
   201  0096                     	;# 
   202  0097                     	;# 
   203  0098                     	;# 
   204  0099                     	;# 
   205  009A                     	;# 
   206  009B                     	;# 
   207  009C                     	;# 
   208  009D                     	;# 
   209  009E                     	;# 
   210  009F                     	;# 
   211  0105                     	;# 
   212  0107                     	;# 
   213  0108                     	;# 
   214  0109                     	;# 
   215  010C                     	;# 
   216  010C                     	;# 
   217  010D                     	;# 
   218  010E                     	;# 
   219  010F                     	;# 
   220  0185                     	;# 
   221  0187                     	;# 
   222  0188                     	;# 
   223  0189                     	;# 
   224  018C                     	;# 
   225  018D                     	;# 
   226  0000                     	;# 
   227  0001                     	;# 
   228  0002                     	;# 
   229  0003                     	;# 
   230  0004                     	;# 
   231  0005                     	;# 
   232  0006                     	;# 
   233  0007                     	;# 
   234  0008                     	;# 
   235  0009                     	;# 
   236  000A                     	;# 
   237  000B                     	;# 
   238  000C                     	;# 
   239  000D                     	;# 
   240  000E                     	;# 
   241  000E                     	;# 
   242  000F                     	;# 
   243  0010                     	;# 
   244  0011                     	;# 
   245  0012                     	;# 
   246  0013                     	;# 
   247  0014                     	;# 
   248  0015                     	;# 
   249  0015                     	;# 
   250  0016                     	;# 
   251  0017                     	;# 
   252  0018                     	;# 
   253  0019                     	;# 
   254  001A                     	;# 
   255  001B                     	;# 
   256  001B                     	;# 
   257  001C                     	;# 
   258  001D                     	;# 
   259  001E                     	;# 
   260  001F                     	;# 
   261  0081                     	;# 
   262  0085                     	;# 
   263  0086                     	;# 
   264  0087                     	;# 
   265  0088                     	;# 
   266  0089                     	;# 
   267  008C                     	;# 
   268  008D                     	;# 
   269  008E                     	;# 
   270  008F                     	;# 
   271  0090                     	;# 
   272  0091                     	;# 
   273  0092                     	;# 
   274  0093                     	;# 
   275  0093                     	;# 
   276  0093                     	;# 
   277  0094                     	;# 
   278  0095                     	;# 
   279  0096                     	;# 
   280  0097                     	;# 
   281  0098                     	;# 
   282  0099                     	;# 
   283  009A                     	;# 
   284  009B                     	;# 
   285  009C                     	;# 
   286  009D                     	;# 
   287  009E                     	;# 
   288  009F                     	;# 
   289  0105                     	;# 
   290  0107                     	;# 
   291  0108                     	;# 
   292  0109                     	;# 
   293  010C                     	;# 
   294  010C                     	;# 
   295  010D                     	;# 
   296  010E                     	;# 
   297  010F                     	;# 
   298  0185                     	;# 
   299  0187                     	;# 
   300  0188                     	;# 
   301  0189                     	;# 
   302  018C                     	;# 
   303  018D                     	;# 
   304  0000                     	;# 
   305  0001                     	;# 
   306  0002                     	;# 
   307  0003                     	;# 
   308  0004                     	;# 
   309  0005                     	;# 
   310  0006                     	;# 
   311  0007                     	;# 
   312  0008                     	;# 
   313  0009                     	;# 
   314  000A                     	;# 
   315  000B                     	;# 
   316  000C                     	;# 
   317  000D                     	;# 
   318  000E                     	;# 
   319  000E                     	;# 
   320  000F                     	;# 
   321  0010                     	;# 
   322  0011                     	;# 
   323  0012                     	;# 
   324  0013                     	;# 
   325  0014                     	;# 
   326  0015                     	;# 
   327  0015                     	;# 
   328  0016                     	;# 
   329  0017                     	;# 
   330  0018                     	;# 
   331  0019                     	;# 
   332  001A                     	;# 
   333  001B                     	;# 
   334  001B                     	;# 
   335  001C                     	;# 
   336  001D                     	;# 
   337  001E                     	;# 
   338  001F                     	;# 
   339  0081                     	;# 
   340  0085                     	;# 
   341  0086                     	;# 
   342  0087                     	;# 
   343  0088                     	;# 
   344  0089                     	;# 
   345  008C                     	;# 
   346  008D                     	;# 
   347  008E                     	;# 
   348  008F                     	;# 
   349  0090                     	;# 
   350  0091                     	;# 
   351  0092                     	;# 
   352  0093                     	;# 
   353  0093                     	;# 
   354  0093                     	;# 
   355  0094                     	;# 
   356  0095                     	;# 
   357  0096                     	;# 
   358  0097                     	;# 
   359  0098                     	;# 
   360  0099                     	;# 
   361  009A                     	;# 
   362  009B                     	;# 
   363  009C                     	;# 
   364  009D                     	;# 
   365  009E                     	;# 
   366  009F                     	;# 
   367  0105                     	;# 
   368  0107                     	;# 
   369  0108                     	;# 
   370  0109                     	;# 
   371  010C                     	;# 
   372  010C                     	;# 
   373  010D                     	;# 
   374  010E                     	;# 
   375  010F                     	;# 
   376  0185                     	;# 
   377  0187                     	;# 
   378  0188                     	;# 
   379  0189                     	;# 
   380  018C                     	;# 
   381  018D                     	;# 
   382  0006                     _PORTBbits	set	6
   383  0013                     _SSPBUF	set	19
   384  0014                     _SSPCON	set	20
   385  001D                     _CCP2CON	set	29
   386  0010                     _T1CON	set	16
   387  0009                     _PORTEbits	set	9
   388  0009                     _PORTE	set	9
   389  0007                     _PORTC	set	7
   390  0006                     _PORTB	set	6
   391  0008                     _PORTD	set	8
   392  0007                     _PORTCbits	set	7
   393  000F                     _TMR1H	set	15
   394  000E                     _TMR1L	set	14
   395  001B                     _CCPR2L	set	27
   396  001C                     _CCPR2H	set	28
   397  0005                     _PORTA	set	5
   398  000D                     _PIR2bits	set	13
   399  000B                     _INTCONbits	set	11
   400  0035                     _RB5	set	53
   401  0033                     _RB3	set	51
   402  0032                     _RB2	set	50
   403  0031                     _RB1	set	49
   404  0030                     _RB0	set	48
   405  0063                     _SSPIF	set	99
   406  005E                     _PEIE	set	94
   407  005F                     _GIE	set	95
   408  0080                     _TMR1ON	set	128
   409  0091                     _SSPCON2bits	set	145
   410  0087                     _TRISCbits	set	135
   411  0094                     _SSPSTAT	set	148
   412  0093                     _SSPADD	set	147
   413  0091                     _SSPCON2	set	145
   414  008D                     _PIE2bits	set	141
   415  008F                     _OSCCONbits	set	143
   416  0087                     _TRISC	set	135
   417  0086                     _TRISB	set	134
   418  0089                     _TRISE	set	137
   419  0088                     _TRISD	set	136
   420  0085                     _TRISA	set	133
   421  0463                     _SSPIE	set	1123
   422  043C                     _TRISC4	set	1084
   423  043B                     _TRISC3	set	1083
   424  0189                     _ANSELH	set	393
   425  0188                     _ANSEL	set	392
   426                           
   427                           	psect	strings
   428  1000                     __pstrings:
   429  1000                     stringtab:
   430  1000                     __stringtab:
   431                           
   432                           ;	String table - string pointers are 1 byte each
   433  1000  1BFF               	btfsc	btemp+1,7
   434  1001  280A               	ljmp	stringcode
   435  1002  1383               	bcf	3,7
   436  1003  187F               	btfsc	btemp+1,0
   437  1004  1783               	bsf	3,7
   438  1005  0800               	movf	0,w
   439  1006  0A84               	incf	4,f
   440  1007  1903               	skipnz
   441  1008  0AFF               	incf	btemp+1,f
   442  1009  0008               	return
   443  100A                     stringcode:
   444  100A                     stringdir:
   445  100A  3010               	movlw	high stringdir
   446  100B  008A               	movwf	10
   447  100C  0804               	movf	4,w
   448  100D  0A84               	incf	4,f
   449  100E  0782               	addwf	2,f
   450  100F                     __stringbase:
   451  100F  3400               	retlw	0
   452  1010                     __end_of__stringtab:
   453  1010                     STR_1:
   454  1010  3446               	retlw	70	;'F'
   455  1011  3452               	retlw	82	;'R'
   456  1012  3445               	retlw	69	;'E'
   457  1013  3443               	retlw	67	;'C'
   458  1014  3455               	retlw	85	;'U'
   459  1015  3445               	retlw	69	;'E'
   460  1016  344E               	retlw	78	;'N'
   461  1017  3443               	retlw	67	;'C'
   462  1018  3449               	retlw	73	;'I'
   463  1019  3441               	retlw	65	;'A'
   464  101A  3400               	retlw	0
   465                           
   466                           	psect	cinit
   467  000F                     start_initialization:	
   468                           ; #config settings
   469                           
   470  000F                     __initialization:
   471                           
   472                           ; Clear objects allocated to COMMON
   473  000F  01FA               	clrf	__pbssCOMMON& (0+127)
   474  0010  01FB               	clrf	(__pbssCOMMON+1)& (0+127)
   475                           
   476                           ; Clear objects allocated to BANK1
   477  0011  1383               	bcf	3,7	;select IRP bank0
   478  0012  30A0               	movlw	low __pbssBANK1
   479  0013  0084               	movwf	4
   480  0014  30C1               	movlw	low (__pbssBANK1+33)
   481  0015  120A  158A  2001  120A  118A  	fcall	clear_ram0
   482  001A                     end_of_initialization:	
   483                           ;End of C runtime variable initialization code
   484                           
   485  001A                     __end_of__initialization:
   486  001A  0183               	clrf	3
   487  001B  120A  118A  2F09   	ljmp	_main	;jump to C main() function
   488                           
   489                           	psect	bssCOMMON
   490  007A                     __pbssCOMMON:
   491  007A                     _POS2:
   492  007A                     	ds	1
   493  007B                     _POS1:
   494  007B                     	ds	1
   495                           
   496                           	psect	bssBANK1
   497  00A0                     __pbssBANK1:
   498  00A0                     _frecuencia:
   499  00A0                     	ds	4
   500  00A4                     _flag_frec:
   501  00A4                     	ds	1
   502  00A5                     _COLORL:
   503  00A5                     	ds	1
   504  00A6                     _COLORH:
   505  00A6                     	ds	1
   506  00A7                     _POS3:
   507  00A7                     	ds	1
   508  00A8                     _VERDE:
   509  00A8                     	ds	1
   510  00A9                     _AZUL:
   511  00A9                     	ds	1
   512  00AA                     _ROJO:
   513  00AA                     	ds	1
   514  00AB                     _texto:
   515  00AB                     	ds	20
   516  00BF                     _frecu:
   517  00BF                     	ds	2
   518                           
   519                           	psect	clrtext
   520  0801                     clear_ram0:	
   521                           ;	Called with FSR containing the base address, and
   522                           ;	W with the last address+1
   523                           
   524  0801  0064               	clrwdt	;clear the watchdog before getting into this loop
   525  0802                     clrloop0:
   526  0802  0180               	clrf	0	;clear RAM location pointed to by FSR
   527  0803  0A84               	incf	4,f	;increment pointer
   528  0804  0604               	xorwf	4,w	;XOR with final address
   529  0805  1903               	btfsc	3,2	;have we reached the end yet?
   530  0806  3400               	retlw	0	;all done for this memory range, return
   531  0807  0604               	xorwf	4,w	;XOR again to restore value
   532  0808  2802               	goto	clrloop0	;do the next byte
   533                           
   534                           	psect	cstackBANK1
   535  00C1                     __pcstackBANK1:
   536  00C1                     ?___flsub:
   537  00C1                     ___flsub@a:	
   538                           ; 4 bytes @ 0x0
   539                           
   540                           
   541                           ; 4 bytes @ 0x0
   542  00C1                     	ds	4
   543  00C5                     ___flsub@b:
   544                           
   545                           ; 4 bytes @ 0x4
   546  00C5                     	ds	4
   547  00C9                     ?_floattostr_:
   548  00C9                     floattostr_@numero_:	
   549                           ; 1 bytes @ 0x8
   550                           
   551                           
   552                           ; 4 bytes @ 0x8
   553  00C9                     	ds	4
   554  00CD                     floattostr_@cadena_:
   555                           
   556                           ; 1 bytes @ 0xC
   557  00CD                     	ds	1
   558  00CE                     floattostr_@decimales_:
   559                           
   560                           ; 1 bytes @ 0xD
   561  00CE                     	ds	1
   562  00CF                     floattostr_@tempo_int:
   563                           
   564                           ; 2 bytes @ 0xE
   565  00CF                     	ds	2
   566  00D1                     floattostr_@tempo_float:
   567                           
   568                           ; 4 bytes @ 0x10
   569  00D1                     	ds	4
   570  00D5                     floattostr_@largo_n:
   571                           
   572                           ; 2 bytes @ 0x14
   573  00D5                     	ds	2
   574  00D7                     floattostr_@cont_for:
   575                           
   576                           ; 2 bytes @ 0x16
   577  00D7                     	ds	2
   578  00D9                     floattostr_@largo_entera:
   579                           
   580                           ; 2 bytes @ 0x18
   581  00D9                     	ds	2
   582  00DB                     ??_main:
   583                           
   584                           ; 1 bytes @ 0x1A
   585  00DB                     	ds	2
   586                           
   587                           	psect	cstackCOMMON
   588  0070                     __pcstackCOMMON:
   589  0070                     ?_setup:
   590  0070                     ?_Lcd_Init:	
   591                           ; 1 bytes @ 0x0
   592                           
   593  0070                     ?_Lcd_Clear:	
   594                           ; 1 bytes @ 0x0
   595                           
   596  0070                     ?_isr:	
   597                           ; 1 bytes @ 0x0
   598                           
   599  0070                     ??_isr:	
   600                           ; 1 bytes @ 0x0
   601                           
   602  0070                     ?_main:	
   603                           ; 1 bytes @ 0x0
   604                           
   605  0070                     ?_Lcd_Port:	
   606                           ; 1 bytes @ 0x0
   607                           
   608  0070                     ?_Lcd_Cmd:	
   609                           ; 1 bytes @ 0x0
   610                           
   611  0070                     ?_Lcd_Write_Char:	
   612                           ; 1 bytes @ 0x0
   613                           
   614                           
   615                           ; 1 bytes @ 0x0
   616  0070                     	ds	2
   617  0072                     ?___flge:
   618  0072                     ??_setup:	
   619                           ; 1 bit 
   620                           
   621  0072                     ??_Lcd_Port:	
   622                           ; 1 bytes @ 0x2
   623                           
   624  0072                     ?__Umul8_16:	
   625                           ; 1 bytes @ 0x2
   626                           
   627  0072                     ?___flneg:	
   628                           ; 2 bytes @ 0x2
   629                           
   630  0072                     ?___fltol:	
   631                           ; 4 bytes @ 0x2
   632                           
   633  0072                     ?___xxtofl:	
   634                           ; 4 bytes @ 0x2
   635                           
   636  0072                     Lcd_Port@a:	
   637                           ; 4 bytes @ 0x2
   638                           
   639  0072                     __Umul8_16@multiplicand:	
   640                           ; 1 bytes @ 0x2
   641                           
   642  0072                     ___flge@ff1:	
   643                           ; 1 bytes @ 0x2
   644                           
   645  0072                     ___flneg@f1:	
   646                           ; 4 bytes @ 0x2
   647                           
   648  0072                     ___fltol@f1:	
   649                           ; 4 bytes @ 0x2
   650                           
   651  0072                     ___xxtofl@val:	
   652                           ; 4 bytes @ 0x2
   653                           
   654                           
   655                           ; 4 bytes @ 0x2
   656  0072                     	ds	1
   657  0073                     ??_Lcd_Cmd:
   658  0073                     ??_Lcd_Write_Char:	
   659                           ; 1 bytes @ 0x3
   660                           
   661                           
   662                           ; 1 bytes @ 0x3
   663  0073                     	ds	1
   664  0074                     ??__Umul8_16:
   665  0074                     Lcd_Write_Char@temp:	
   666                           ; 1 bytes @ 0x4
   667                           
   668                           
   669                           ; 1 bytes @ 0x4
   670  0074                     	ds	1
   671  0075                     Lcd_Cmd@a:
   672  0075                     Lcd_Write_Char@y:	
   673                           ; 1 bytes @ 0x5
   674                           
   675                           
   676                           ; 1 bytes @ 0x5
   677  0075                     	ds	1
   678  0076                     ??_Lcd_Init:
   679  0076                     ??_Lcd_Clear:	
   680                           ; 1 bytes @ 0x6
   681                           
   682  0076                     ?_Lcd_Set_Cursor:	
   683                           ; 1 bytes @ 0x6
   684                           
   685  0076                     ??___flneg:	
   686                           ; 1 bytes @ 0x6
   687                           
   688  0076                     ??___xxtofl:	
   689                           ; 1 bytes @ 0x6
   690                           
   691  0076                     Lcd_Set_Cursor@b:	
   692                           ; 1 bytes @ 0x6
   693                           
   694  0076                     Lcd_Write_Char@a:	
   695                           ; 1 bytes @ 0x6
   696                           
   697  0076                     ___fltol@sign1:	
   698                           ; 1 bytes @ 0x6
   699                           
   700  0076                     ___flge@ff2:	
   701                           ; 1 bytes @ 0x6
   702                           
   703                           
   704                           ; 4 bytes @ 0x6
   705  0076                     	ds	1
   706  0077                     ??_Lcd_Set_Cursor:
   707  0077                     ?_Lcd_Write_String:	
   708                           ; 1 bytes @ 0x7
   709                           
   710  0077                     ___fltol@exp1:	
   711                           ; 1 bytes @ 0x7
   712                           
   713  0077                     Lcd_Write_String@a:	
   714                           ; 1 bytes @ 0x7
   715                           
   716                           
   717                           ; 2 bytes @ 0x7
   718  0077                     	ds	3
   719  007A                     ??___flsub:
   720                           
   721                           	psect	cstackBANK0
   722  0020                     __pcstackBANK0:	
   723                           ; 1 bytes @ 0xA
   724                           
   725  0020                     ??_Lcd_Write_String:
   726  0020                     ??___flge:	
   727                           ; 1 bytes @ 0x0
   728                           
   729  0020                     ??___fltol:	
   730                           ; 1 bytes @ 0x0
   731                           
   732  0020                     Lcd_Set_Cursor@a:	
   733                           ; 1 bytes @ 0x0
   734                           
   735  0020                     ___xxtofl@sign:	
   736                           ; 1 bytes @ 0x0
   737                           
   738  0020                     __Umul8_16@product:	
   739                           ; 1 bytes @ 0x0
   740                           
   741                           
   742                           ; 2 bytes @ 0x0
   743  0020                     	ds	1
   744  0021                     Lcd_Set_Cursor@z:
   745  0021                     ___xxtofl@exp:	
   746                           ; 1 bytes @ 0x1
   747                           
   748                           
   749                           ; 1 bytes @ 0x1
   750  0021                     	ds	1
   751  0022                     Lcd_Set_Cursor@y:
   752  0022                     __Umul8_16@word_mpld:	
   753                           ; 1 bytes @ 0x2
   754                           
   755  0022                     ___xxtofl@arg:	
   756                           ; 2 bytes @ 0x2
   757                           
   758                           
   759                           ; 4 bytes @ 0x2
   760  0022                     	ds	1
   761  0023                     Lcd_Set_Cursor@temp:
   762  0023                     Lcd_Write_String@i:	
   763                           ; 1 bytes @ 0x3
   764                           
   765                           
   766                           ; 2 bytes @ 0x3
   767  0023                     	ds	1
   768  0024                     __Umul8_16@multiplier:
   769                           
   770                           ; 1 bytes @ 0x4
   771  0024                     	ds	2
   772  0026                     ?___flmul:
   773  0026                     ___flmul@b:	
   774                           ; 4 bytes @ 0x6
   775                           
   776                           
   777                           ; 4 bytes @ 0x6
   778  0026                     	ds	4
   779  002A                     ___flmul@a:
   780                           
   781                           ; 4 bytes @ 0xA
   782  002A                     	ds	4
   783  002E                     ??___flmul:
   784                           
   785                           ; 1 bytes @ 0xE
   786  002E                     	ds	5
   787  0033                     ___flmul@sign:
   788                           
   789                           ; 1 bytes @ 0x13
   790  0033                     	ds	1
   791  0034                     ___flmul@aexp:
   792                           
   793                           ; 1 bytes @ 0x14
   794  0034                     	ds	1
   795  0035                     ___flmul@grs:
   796                           
   797                           ; 4 bytes @ 0x15
   798  0035                     	ds	4
   799  0039                     ___flmul@bexp:
   800                           
   801                           ; 1 bytes @ 0x19
   802  0039                     	ds	1
   803  003A                     ___flmul@prod:
   804                           
   805                           ; 4 bytes @ 0x1A
   806  003A                     	ds	4
   807  003E                     ___flmul@temp:
   808                           
   809                           ; 2 bytes @ 0x1E
   810  003E                     	ds	2
   811  0040                     ?___fldiv:
   812  0040                     ___fldiv@a:	
   813                           ; 4 bytes @ 0x20
   814                           
   815                           
   816                           ; 4 bytes @ 0x20
   817  0040                     	ds	4
   818  0044                     ___fldiv@b:
   819                           
   820                           ; 4 bytes @ 0x24
   821  0044                     	ds	4
   822  0048                     ??___fldiv:
   823                           
   824                           ; 1 bytes @ 0x28
   825  0048                     	ds	5
   826  004D                     ___fldiv@rem:
   827                           
   828                           ; 4 bytes @ 0x2D
   829  004D                     	ds	4
   830  0051                     ___fldiv@sign:
   831                           
   832                           ; 1 bytes @ 0x31
   833  0051                     	ds	1
   834  0052                     ___fldiv@new_exp:
   835                           
   836                           ; 2 bytes @ 0x32
   837  0052                     	ds	2
   838  0054                     ___fldiv@grs:
   839                           
   840                           ; 4 bytes @ 0x34
   841  0054                     	ds	4
   842  0058                     ___fldiv@bexp:
   843                           
   844                           ; 1 bytes @ 0x38
   845  0058                     	ds	1
   846  0059                     ___fldiv@aexp:
   847                           
   848                           ; 1 bytes @ 0x39
   849  0059                     	ds	1
   850  005A                     ?___fladd:
   851  005A                     ___fladd@b:	
   852                           ; 4 bytes @ 0x3A
   853                           
   854                           
   855                           ; 4 bytes @ 0x3A
   856  005A                     	ds	4
   857  005E                     ___fladd@a:
   858                           
   859                           ; 4 bytes @ 0x3E
   860  005E                     	ds	4
   861  0062                     ??___fladd:
   862                           
   863                           ; 1 bytes @ 0x42
   864  0062                     	ds	8
   865  006A                     ___fladd@signs:
   866                           
   867                           ; 1 bytes @ 0x4A
   868  006A                     	ds	1
   869  006B                     ___fladd@aexp:
   870                           
   871                           ; 1 bytes @ 0x4B
   872  006B                     	ds	1
   873  006C                     ___fladd@bexp:
   874                           
   875                           ; 1 bytes @ 0x4C
   876  006C                     	ds	1
   877  006D                     ___fladd@grs:
   878                           
   879                           ; 1 bytes @ 0x4D
   880  006D                     	ds	1
   881  006E                     ??_floattostr_:
   882                           
   883                           ; 1 bytes @ 0x4E
   884  006E                     	ds	1
   885                           
   886                           	psect	maintext
   887  0709                     __pmaintext:	
   888 ;;
   889 ;;Main: autosize = 0, tempsize = 2, incstack = 0, save=0
   890 ;;
   891 ;; *************** function _main *****************
   892 ;; Defined at:
   893 ;;		line 79 in file "main.c"
   894 ;; Parameters:    Size  Location     Type
   895 ;;		None
   896 ;; Auto vars:     Size  Location     Type
   897 ;;		None
   898 ;; Return value:  Size  Location     Type
   899 ;;                  1    wreg      void 
   900 ;; Registers used:
   901 ;;		wreg, fsr0l, fsr0h, status,2, status,0, btemp+1, pclath, cstack
   902 ;; Tracked objects:
   903 ;;		On entry : B00/0
   904 ;;		On exit  : 0/0
   905 ;;		Unchanged: 0/0
   906 ;; Data sizes:     COMMON   BANK0   BANK1   BANK3   BANK2
   907 ;;      Params:         0       0       0       0       0
   908 ;;      Locals:         0       0       0       0       0
   909 ;;      Temps:          0       0       2       0       0
   910 ;;      Totals:         0       0       2       0       0
   911 ;;Total ram usage:        2 bytes
   912 ;; Hardware stack levels required when called:    4
   913 ;; This function calls:
   914 ;;		_Lcd_Clear
   915 ;;		_Lcd_Init
   916 ;;		_Lcd_Set_Cursor
   917 ;;		_Lcd_Write_String
   918 ;;		___fldiv
   919 ;;		___flmul
   920 ;;		___xxtofl
   921 ;;		_floattostr_
   922 ;;		_setup
   923 ;; This function is called by:
   924 ;;		Startup code after reset
   925 ;; This function uses a non-reentrant model
   926 ;;
   927                           
   928                           
   929                           ;psect for function _main
   930  0709                     _main:
   931  0709                     l3001:	
   932                           ;incstack = 0
   933                           ; Regs used in _main: [wreg-fsr0h+status,2+status,0+btemp+1+pclath+cstack]
   934                           
   935                           
   936                           ;main.c: 80:     setup();
   937  0709  120A  158A  2014  120A  118A  	fcall	_setup
   938                           
   939                           ;main.c: 81:     Lcd_Init();
   940  070E  120A  158A  2162  120A  118A  	fcall	_Lcd_Init
   941                           
   942                           ;main.c: 82:     Lcd_Clear();
   943  0713  120A  118A  27F2  120A  118A  	fcall	_Lcd_Clear
   944                           
   945                           ;main.c: 83:     Lcd_Set_Cursor(1,1);
   946  0718  01F6               	clrf	Lcd_Set_Cursor@b
   947  0719  0AF6               	incf	Lcd_Set_Cursor@b,f
   948  071A  3001               	movlw	1
   949  071B  120A  158A  210A  120A  118A  	fcall	_Lcd_Set_Cursor
   950  0720                     l3003:
   951                           
   952                           ;main.c: 84:     Lcd_Write_String("FRECUENCIA");
   953  0720  3001               	movlw	(low ((STR_1-__stringbase)| (0+32768)))& (0+255)
   954  0721  00F7               	movwf	Lcd_Write_String@a
   955  0722  3080               	movlw	128
   956  0723  00F8               	movwf	Lcd_Write_String@a+1
   957  0724  120A  158A  2074  120A  118A  	fcall	_Lcd_Write_String
   958  0729                     l3005:
   959                           
   960                           ;main.c: 85:     TMR1ON = 1;
   961  0729  1283               	bcf	3,5	;RP0=0, select bank0
   962  072A  1303               	bcf	3,6	;RP1=0, select bank0
   963  072B  1410               	bsf	16,0	;volatile
   964  072C                     l3007:
   965                           
   966                           ;main.c: 86:     PORTCbits.RC2 = 1;
   967  072C  1507               	bsf	7,2	;volatile
   968  072D                     l3009:
   969                           
   970                           ;main.c: 91:         if (flag_frec==1){
   971  072D  1683               	bsf	3,5	;RP0=1, select bank1
   972  072E  1303               	bcf	3,6	;RP1=0, select bank1
   973  072F  0324               	decf	_flag_frec^(0+128),w
   974  0730  1D03               	btfss	3,2
   975  0731  2F33               	goto	u4261
   976  0732  2F34               	goto	u4260
   977  0733                     u4261:
   978  0733  2F93               	goto	l3019
   979  0734                     u4260:
   980  0734                     l3011:
   981                           
   982                           ;main.c: 92:             if (frecu!=0){
   983  0734  083F               	movf	_frecu^(0+128),w
   984  0735  0440               	iorwf	(_frecu+1)^(0+128),w
   985  0736  1903               	btfsc	3,2
   986  0737  2F39               	goto	u4271
   987  0738  2F3A               	goto	u4270
   988  0739                     u4271:
   989  0739  2F92               	goto	l3017
   990  073A                     u4270:
   991  073A                     l3013:
   992                           
   993                           ;main.c: 93:                 frecuencia=8000000/(frecu*4.0);
   994  073A  3040               	movlw	64
   995  073B  1283               	bcf	3,5	;RP0=0, select bank0
   996  073C  1303               	bcf	3,6	;RP1=0, select bank0
   997  073D  00A9               	movwf	___flmul@b+3
   998  073E  3080               	movlw	128
   999  073F  00A8               	movwf	___flmul@b+2
  1000  0740  3000               	movlw	0
  1001  0741  00A7               	movwf	___flmul@b+1
  1002  0742  3000               	movlw	0
  1003  0743  00A6               	movwf	___flmul@b
  1004  0744  1683               	bsf	3,5	;RP0=1, select bank1
  1005  0745  1303               	bcf	3,6	;RP1=0, select bank1
  1006  0746  083F               	movf	_frecu^(0+128),w
  1007  0747  00F2               	movwf	___xxtofl@val
  1008  0748  0840               	movf	(_frecu+1)^(0+128),w
  1009  0749  00F3               	movwf	___xxtofl@val+1
  1010  074A  01F4               	clrf	___xxtofl@val+2
  1011  074B  01F5               	clrf	___xxtofl@val+3
  1012  074C  3000               	movlw	0
  1013  074D  120A  158A  22DF  120A  118A  	fcall	___xxtofl
  1014  0752  0875               	movf	?___xxtofl+3,w
  1015  0753  1283               	bcf	3,5	;RP0=0, select bank0
  1016  0754  1303               	bcf	3,6	;RP1=0, select bank0
  1017  0755  00AD               	movwf	___flmul@a+3
  1018  0756  0874               	movf	?___xxtofl+2,w
  1019  0757  00AC               	movwf	___flmul@a+2
  1020  0758  0873               	movf	?___xxtofl+1,w
  1021  0759  00AB               	movwf	___flmul@a+1
  1022  075A  0872               	movf	?___xxtofl,w
  1023  075B  00AA               	movwf	___flmul@a
  1024  075C  120A  118A  23A8  120A  118A  	fcall	___flmul
  1025  0761  1283               	bcf	3,5	;RP0=0, select bank0
  1026  0762  1303               	bcf	3,6	;RP1=0, select bank0
  1027  0763  0829               	movf	?___flmul+3,w
  1028  0764  00C3               	movwf	___fldiv@a+3
  1029  0765  0828               	movf	?___flmul+2,w
  1030  0766  00C2               	movwf	___fldiv@a+2
  1031  0767  0827               	movf	?___flmul+1,w
  1032  0768  00C1               	movwf	___fldiv@a+1
  1033  0769  0826               	movf	?___flmul,w
  1034  076A  00C0               	movwf	___fldiv@a
  1035  076B  304A               	movlw	74
  1036  076C  00C7               	movwf	___fldiv@b+3
  1037  076D  30F4               	movlw	244
  1038  076E  00C6               	movwf	___fldiv@b+2
  1039  076F  3024               	movlw	36
  1040  0770  00C5               	movwf	___fldiv@b+1
  1041  0771  3000               	movlw	0
  1042  0772  00C4               	movwf	___fldiv@b
  1043  0773  120A  158A  239B  120A  118A  	fcall	___fldiv
  1044  0778  1283               	bcf	3,5	;RP0=0, select bank0
  1045  0779  1303               	bcf	3,6	;RP1=0, select bank0
  1046  077A  0843               	movf	?___fldiv+3,w
  1047  077B  1683               	bsf	3,5	;RP0=1, select bank1
  1048  077C  1303               	bcf	3,6	;RP1=0, select bank1
  1049  077D  00A3               	movwf	(_frecuencia+3)^(0+128)
  1050  077E  1283               	bcf	3,5	;RP0=0, select bank0
  1051  077F  1303               	bcf	3,6	;RP1=0, select bank0
  1052  0780  0842               	movf	?___fldiv+2,w
  1053  0781  1683               	bsf	3,5	;RP0=1, select bank1
  1054  0782  1303               	bcf	3,6	;RP1=0, select bank1
  1055  0783  00A2               	movwf	(_frecuencia+2)^(0+128)
  1056  0784  1283               	bcf	3,5	;RP0=0, select bank0
  1057  0785  1303               	bcf	3,6	;RP1=0, select bank0
  1058  0786  0841               	movf	?___fldiv+1,w
  1059  0787  1683               	bsf	3,5	;RP0=1, select bank1
  1060  0788  1303               	bcf	3,6	;RP1=0, select bank1
  1061  0789  00A1               	movwf	(_frecuencia+1)^(0+128)
  1062  078A  1283               	bcf	3,5	;RP0=0, select bank0
  1063  078B  1303               	bcf	3,6	;RP1=0, select bank0
  1064  078C  0840               	movf	?___fldiv,w
  1065  078D  1683               	bsf	3,5	;RP0=1, select bank1
  1066  078E  1303               	bcf	3,6	;RP1=0, select bank1
  1067  078F  00A0               	movwf	_frecuencia^(0+128)
  1068  0790                     l3015:
  1069                           
  1070                           ;main.c: 94:                 frecu=0;
  1071  0790  01BF               	clrf	_frecu^(0+128)
  1072  0791  01C0               	clrf	(_frecu+1)^(0+128)
  1073  0792                     l3017:
  1074                           
  1075                           ;main.c: 97:             flag_frec=0;
  1076  0792  01A4               	clrf	_flag_frec^(0+128)
  1077  0793                     l3019:
  1078                           
  1079                           ;main.c: 99:         floattostr_(frecuencia,texto,2);
  1080  0793  0823               	movf	(_frecuencia+3)^(0+128),w
  1081  0794  00CC               	movwf	(floattostr_@numero_+3)^(0+128)
  1082  0795  0822               	movf	(_frecuencia+2)^(0+128),w
  1083  0796  00CB               	movwf	(floattostr_@numero_+2)^(0+128)
  1084  0797  0821               	movf	(_frecuencia+1)^(0+128),w
  1085  0798  00CA               	movwf	(floattostr_@numero_+1)^(0+128)
  1086  0799  0820               	movf	_frecuencia^(0+128),w
  1087  079A  00C9               	movwf	floattostr_@numero_^(0+128)
  1088  079B  30AB               	movlw	(low (_texto| 0))& (0+255)
  1089  079C  00DB               	movwf	??_main^(0+128)
  1090  079D  085B               	movf	??_main^(0+128),w
  1091  079E  00CD               	movwf	floattostr_@cadena_^(0+128)
  1092  079F  3002               	movlw	2
  1093  07A0  00DC               	movwf	(??_main+1)^(0+128)
  1094  07A1  085C               	movf	(??_main+1)^(0+128),w
  1095  07A2  00CE               	movwf	floattostr_@decimales_^(0+128)
  1096  07A3  120A  118A  201E  120A  118A  	fcall	_floattostr_
  1097  07A8                     l3021:
  1098                           
  1099                           ;main.c: 100:         Lcd_Set_Cursor(2,5);
  1100  07A8  3005               	movlw	5
  1101  07A9  1683               	bsf	3,5	;RP0=1, select bank1
  1102  07AA  1303               	bcf	3,6	;RP1=0, select bank1
  1103  07AB  00DB               	movwf	??_main^(0+128)
  1104  07AC  085B               	movf	??_main^(0+128),w
  1105  07AD  00F6               	movwf	Lcd_Set_Cursor@b
  1106  07AE  3002               	movlw	2
  1107  07AF  120A  158A  210A  120A  118A  	fcall	_Lcd_Set_Cursor
  1108  07B4                     l3023:
  1109                           
  1110                           ;main.c: 101:         Lcd_Write_String(texto);
  1111  07B4  30AB               	movlw	(low (_texto| 0))& (0+255)
  1112  07B5  00F7               	movwf	Lcd_Write_String@a
  1113  07B6  3000               	movlw	0
  1114  07B7  00F8               	movwf	Lcd_Write_String@a+1
  1115  07B8  120A  158A  2074  120A  118A  	fcall	_Lcd_Write_String
  1116  07BD                     l3025:
  1117                           
  1118                           ;main.c: 102:         PORTD++;
  1119  07BD  3001               	movlw	1
  1120  07BE  1683               	bsf	3,5	;RP0=1, select bank1
  1121  07BF  1303               	bcf	3,6	;RP1=0, select bank1
  1122  07C0  00DB               	movwf	??_main^(0+128)
  1123  07C1  085B               	movf	??_main^(0+128),w
  1124  07C2  1283               	bcf	3,5	;RP0=0, select bank0
  1125  07C3  1303               	bcf	3,6	;RP1=0, select bank0
  1126  07C4  0788               	addwf	8,f	;volatile
  1127  07C5  2F2D               	goto	l3009
  1128  07C6  120A  118A  280C   	ljmp	start
  1129  07C9                     __end_of_main:
  1130                           
  1131                           	psect	text1
  1132  0814                     __ptext1:	
  1133 ;; *************** function _setup *****************
  1134 ;; Defined at:
  1135 ;;		line 113 in file "main.c"
  1136 ;; Parameters:    Size  Location     Type
  1137 ;;		None
  1138 ;; Auto vars:     Size  Location     Type
  1139 ;;		None
  1140 ;; Return value:  Size  Location     Type
  1141 ;;                  1    wreg      void 
  1142 ;; Registers used:
  1143 ;;		wreg, status,2
  1144 ;; Tracked objects:
  1145 ;;		On entry : 0/0
  1146 ;;		On exit  : 0/0
  1147 ;;		Unchanged: 0/0
  1148 ;; Data sizes:     COMMON   BANK0   BANK1   BANK3   BANK2
  1149 ;;      Params:         0       0       0       0       0
  1150 ;;      Locals:         0       0       0       0       0
  1151 ;;      Temps:          0       0       0       0       0
  1152 ;;      Totals:         0       0       0       0       0
  1153 ;;Total ram usage:        0 bytes
  1154 ;; Hardware stack levels used:    1
  1155 ;; Hardware stack levels required when called:    1
  1156 ;; This function calls:
  1157 ;;		Nothing
  1158 ;; This function is called by:
  1159 ;;		_main
  1160 ;; This function uses a non-reentrant model
  1161 ;;
  1162                           
  1163                           
  1164                           ;psect for function _setup
  1165  0814                     _setup:
  1166  0814                     l2437:	
  1167                           ;incstack = 0
  1168                           ; Regs used in _setup: [wreg+status,2]
  1169                           
  1170                           
  1171                           ;main.c: 115:     ANSEL = 0B0000000;
  1172  0814  1683               	bsf	3,5	;RP0=1, select bank3
  1173  0815  1703               	bsf	3,6	;RP1=1, select bank3
  1174  0816  0188               	clrf	8	;volatile
  1175                           
  1176                           ;main.c: 116:     ANSELH = 0X00;
  1177  0817  0189               	clrf	9	;volatile
  1178                           
  1179                           ;main.c: 118:     TRISA = 0B0000000;
  1180  0818  1683               	bsf	3,5	;RP0=1, select bank1
  1181  0819  1303               	bcf	3,6	;RP1=0, select bank1
  1182  081A  0185               	clrf	5	;volatile
  1183                           
  1184                           ;main.c: 119:     TRISD = 0X00;
  1185  081B  0188               	clrf	8	;volatile
  1186                           
  1187                           ;main.c: 120:     TRISE = 0X00;
  1188  081C  0189               	clrf	9	;volatile
  1189                           
  1190                           ;main.c: 121:     TRISB = 0B00000000;
  1191  081D  0186               	clrf	6	;volatile
  1192  081E                     l2439:
  1193                           
  1194                           ;main.c: 122:     TRISC = 0X02;
  1195  081E  3002               	movlw	2
  1196  081F  0087               	movwf	7	;volatile
  1197  0820                     l2441:
  1198                           
  1199                           ;main.c: 124:     PORTA = 0X00;
  1200  0820  1283               	bcf	3,5	;RP0=0, select bank0
  1201  0821  1303               	bcf	3,6	;RP1=0, select bank0
  1202  0822  0185               	clrf	5	;volatile
  1203  0823                     l2443:
  1204                           
  1205                           ;main.c: 125:     PORTB = 0X00;
  1206  0823  0186               	clrf	6	;volatile
  1207  0824                     l2445:
  1208                           
  1209                           ;main.c: 126:     PORTC = 0X00;
  1210  0824  0187               	clrf	7	;volatile
  1211  0825                     l2447:
  1212                           
  1213                           ;main.c: 127:     PORTD = 0X00;
  1214  0825  0188               	clrf	8	;volatile
  1215  0826                     l2449:
  1216                           
  1217                           ;main.c: 128:     PORTE = 0X00;
  1218  0826  0189               	clrf	9	;volatile
  1219  0827                     l2451:
  1220                           
  1221                           ;main.c: 131:     OSCCONbits.IRCF2 = 1;
  1222  0827  1683               	bsf	3,5	;RP0=1, select bank1
  1223  0828  1303               	bcf	3,6	;RP1=0, select bank1
  1224  0829  170F               	bsf	15,6	;volatile
  1225  082A                     l2453:
  1226                           
  1227                           ;main.c: 132:     OSCCONbits.IRCF1 = 1;
  1228  082A  168F               	bsf	15,5	;volatile
  1229  082B                     l2455:
  1230                           
  1231                           ;main.c: 133:     OSCCONbits.IRCF0 = 1;
  1232  082B  160F               	bsf	15,4	;volatile
  1233  082C                     l2457:
  1234                           
  1235                           ;main.c: 134:     OSCCONbits.SCS = 1;
  1236  082C  140F               	bsf	15,0	;volatile
  1237  082D                     l2459:
  1238                           
  1239                           ;main.c: 137:     INTCONbits.GIE = 1;
  1240  082D  178B               	bsf	11,7	;volatile
  1241  082E                     l2461:
  1242                           
  1243                           ;main.c: 138:     INTCONbits.PEIE = 1;
  1244  082E  170B               	bsf	11,6	;volatile
  1245  082F                     l2463:
  1246                           
  1247                           ;main.c: 139:     PIE2bits.CCP2IE = 1;
  1248  082F  140D               	bsf	13,0	;volatile
  1249  0830                     l2465:
  1250                           
  1251                           ;main.c: 140:     PIR2bits.CCP2IF = 0;
  1252  0830  1283               	bcf	3,5	;RP0=0, select bank0
  1253  0831  1303               	bcf	3,6	;RP1=0, select bank0
  1254  0832  100D               	bcf	13,0	;volatile
  1255  0833                     l2467:
  1256                           
  1257                           ;main.c: 144:     PORTEbits.RE0 = 1;
  1258  0833  1409               	bsf	9,0	;volatile
  1259  0834                     l2469:
  1260                           
  1261                           ;main.c: 145:     PORTEbits.RE1 = 1;
  1262  0834  1489               	bsf	9,1	;volatile
  1263  0835                     l2471:
  1264                           
  1265                           ;main.c: 148:     T1CON = 0x00;
  1266  0835  0190               	clrf	16	;volatile
  1267  0836                     l2473:
  1268                           
  1269                           ;main.c: 149:     TMR1H = 0x00;;
  1270  0836  018F               	clrf	15	;volatile
  1271  0837                     l2475:
  1272                           
  1273                           ;main.c: 150:     TMR1L = 0x00;;
  1274  0837  018E               	clrf	14	;volatile
  1275  0838                     l2477:
  1276                           
  1277                           ;main.c: 153:      CCP2CON = 0B00000101;
  1278  0838  3005               	movlw	5
  1279  0839  009D               	movwf	29	;volatile
  1280  083A                     l105:
  1281  083A  0008               	return
  1282  083B                     __end_of_setup:
  1283                           
  1284                           	psect	text2
  1285  001E                     __ptext2:	
  1286 ;; *************** function _floattostr_ *****************
  1287 ;; Defined at:
  1288 ;;		line 179 in file "main.c"
  1289 ;; Parameters:    Size  Location     Type
  1290 ;;  numero_         4    8[BANK1 ] float 
  1291 ;;  cadena_         1   12[BANK1 ] PTR unsigned char 
  1292 ;;		 -> texto(20), 
  1293 ;;  decimales_      1   13[BANK1 ] unsigned char 
  1294 ;; Auto vars:     Size  Location     Type
  1295 ;;  tempo_float     4   16[BANK1 ] unsigned char 
  1296 ;;  largo_entera    2   24[BANK1 ] int 
  1297 ;;  cont_for        2   22[BANK1 ] int 
  1298 ;;  largo_n         2   20[BANK1 ] int 
  1299 ;;  tempo_int       2   14[BANK1 ] int 
  1300 ;; Return value:  Size  Location     Type
  1301 ;;                  1    wreg      void 
  1302 ;; Registers used:
  1303 ;;		wreg, fsr0l, fsr0h, status,2, status,0, btemp+1, pclath, cstack
  1304 ;; Tracked objects:
  1305 ;;		On entry : 0/0
  1306 ;;		On exit  : 0/0
  1307 ;;		Unchanged: 0/0
  1308 ;; Data sizes:     COMMON   BANK0   BANK1   BANK3   BANK2
  1309 ;;      Params:         0       0       6       0       0
  1310 ;;      Locals:         0       0      12       0       0
  1311 ;;      Temps:          0       1       0       0       0
  1312 ;;      Totals:         0       1      18       0       0
  1313 ;;Total ram usage:       19 bytes
  1314 ;; Hardware stack levels used:    1
  1315 ;; Hardware stack levels required when called:    3
  1316 ;; This function calls:
  1317 ;;		___fladd
  1318 ;;		___fldiv
  1319 ;;		___flge
  1320 ;;		___flmul
  1321 ;;		___flneg
  1322 ;;		___flsub
  1323 ;;		___fltol
  1324 ;;		___xxtofl
  1325 ;; This function is called by:
  1326 ;;		_main
  1327 ;; This function uses a non-reentrant model
  1328 ;;
  1329                           
  1330                           
  1331                           ;psect for function _floattostr_
  1332  001E                     _floattostr_:
  1333  001E                     l2911:	
  1334                           ;incstack = 0
  1335                           ; Regs used in _floattostr_: [wreg-fsr0h+status,2+status,0+btemp+1+pclath+cstack]
  1336                           
  1337                           
  1338                           ;main.c: 181: int largo_entera,largo_n,cont_for,tempo_int;;main.c: 182: double tempo_flo
      +                          at;;main.c: 184: largo_n = decimales_+1;
  1339  001E  1683               	bsf	3,5	;RP0=1, select bank1
  1340  001F  1303               	bcf	3,6	;RP1=0, select bank1
  1341  0020  084E               	movf	floattostr_@decimales_^(0+128),w
  1342  0021  3E01               	addlw	1
  1343  0022  00D5               	movwf	floattostr_@largo_n^(0+128)
  1344  0023  3000               	movlw	0
  1345  0024  1803               	skipnc
  1346  0025  3001               	movlw	1
  1347  0026  00D6               	movwf	(floattostr_@largo_n^(0+128)+1)
  1348  0027                     l2913:
  1349                           
  1350                           ;main.c: 185: largo_entera = 0;
  1351  0027  01D9               	clrf	floattostr_@largo_entera^(0+128)
  1352  0028  01DA               	clrf	(floattostr_@largo_entera+1)^(0+128)
  1353  0029                     l2915:
  1354                           
  1355                           ;main.c: 187: if ( numero_ < 0)
  1356  0029  084C               	movf	(floattostr_@numero_+3)^(0+128),w
  1357  002A  00F5               	movwf	___flge@ff1+3
  1358  002B  084B               	movf	(floattostr_@numero_+2)^(0+128),w
  1359  002C  00F4               	movwf	___flge@ff1+2
  1360  002D  084A               	movf	(floattostr_@numero_+1)^(0+128),w
  1361  002E  00F3               	movwf	___flge@ff1+1
  1362  002F  0849               	movf	floattostr_@numero_^(0+128),w
  1363  0030  00F2               	movwf	___flge@ff1
  1364  0031  3000               	movlw	0
  1365  0032  00F9               	movwf	___flge@ff2+3
  1366  0033  3000               	movlw	0
  1367  0034  00F8               	movwf	___flge@ff2+2
  1368  0035  3000               	movlw	0
  1369  0036  00F7               	movwf	___flge@ff2+1
  1370  0037  3000               	movlw	0
  1371  0038  00F6               	movwf	___flge@ff2
  1372  0039  120A  158A  223B  120A  118A  	fcall	___flge
  1373  003E  1803               	btfsc	3,0
  1374  003F  2841               	goto	u4151
  1375  0040  2842               	goto	u4150
  1376  0041                     u4151:
  1377  0041  286C               	goto	l2923
  1378  0042                     u4150:
  1379  0042                     l2917:
  1380                           
  1381                           ;main.c: 188:   {;main.c: 189:   *cadena_++ = '-';
  1382  0042  302D               	movlw	45
  1383  0043  1283               	bcf	3,5	;RP0=0, select bank0
  1384  0044  1303               	bcf	3,6	;RP1=0, select bank0
  1385  0045  00EE               	movwf	??_floattostr_
  1386  0046  1683               	bsf	3,5	;RP0=1, select bank1
  1387  0047  1303               	bcf	3,6	;RP1=0, select bank1
  1388  0048  084D               	movf	floattostr_@cadena_^(0+128),w
  1389  0049  0084               	movwf	4
  1390  004A  1283               	bcf	3,5	;RP0=0, select bank0
  1391  004B  1303               	bcf	3,6	;RP1=0, select bank0
  1392  004C  086E               	movf	??_floattostr_,w
  1393  004D  1383               	bcf	3,7	;select IRP bank0
  1394  004E  0080               	movwf	0
  1395  004F                     l2919:
  1396  004F  3001               	movlw	1
  1397  0050  00EE               	movwf	??_floattostr_
  1398  0051  086E               	movf	??_floattostr_,w
  1399  0052  1683               	bsf	3,5	;RP0=1, select bank1
  1400  0053  1303               	bcf	3,6	;RP1=0, select bank1
  1401  0054  07CD               	addwf	floattostr_@cadena_^(0+128),f
  1402  0055                     l2921:
  1403                           
  1404                           ;main.c: 190:   numero_ = -numero_;
  1405  0055  084C               	movf	(floattostr_@numero_+3)^(0+128),w
  1406  0056  00F5               	movwf	___flneg@f1+3
  1407  0057  084B               	movf	(floattostr_@numero_+2)^(0+128),w
  1408  0058  00F4               	movwf	___flneg@f1+2
  1409  0059  084A               	movf	(floattostr_@numero_+1)^(0+128),w
  1410  005A  00F3               	movwf	___flneg@f1+1
  1411  005B  0849               	movf	floattostr_@numero_^(0+128),w
  1412  005C  00F2               	movwf	___flneg@f1
  1413  005D  120A  158A  2009  120A  118A  	fcall	___flneg
  1414  0062  0875               	movf	?___flneg+3,w
  1415  0063  1683               	bsf	3,5	;RP0=1, select bank1
  1416  0064  1303               	bcf	3,6	;RP1=0, select bank1
  1417  0065  00CC               	movwf	(floattostr_@numero_+3)^(0+128)
  1418  0066  0874               	movf	?___flneg+2,w
  1419  0067  00CB               	movwf	(floattostr_@numero_+2)^(0+128)
  1420  0068  0873               	movf	?___flneg+1,w
  1421  0069  00CA               	movwf	(floattostr_@numero_+1)^(0+128)
  1422  006A  0872               	movf	?___flneg,w
  1423  006B  00C9               	movwf	floattostr_@numero_^(0+128)
  1424  006C                     l2923:
  1425                           
  1426                           ;main.c: 193: if (numero_ > 0.0) while (numero_ < 1.0)
  1427  006C  3000               	movlw	0
  1428  006D  00F5               	movwf	___flge@ff1+3
  1429  006E  3000               	movlw	0
  1430  006F  00F4               	movwf	___flge@ff1+2
  1431  0070  3000               	movlw	0
  1432  0071  00F3               	movwf	___flge@ff1+1
  1433  0072  3000               	movlw	0
  1434  0073  00F2               	movwf	___flge@ff1
  1435  0074  1683               	bsf	3,5	;RP0=1, select bank1
  1436  0075  1303               	bcf	3,6	;RP1=0, select bank1
  1437  0076  084C               	movf	(floattostr_@numero_+3)^(0+128),w
  1438  0077  00F9               	movwf	___flge@ff2+3
  1439  0078  084B               	movf	(floattostr_@numero_+2)^(0+128),w
  1440  0079  00F8               	movwf	___flge@ff2+2
  1441  007A  084A               	movf	(floattostr_@numero_+1)^(0+128),w
  1442  007B  00F7               	movwf	___flge@ff2+1
  1443  007C  0849               	movf	floattostr_@numero_^(0+128),w
  1444  007D  00F6               	movwf	___flge@ff2
  1445  007E  120A  158A  223B  120A  118A  	fcall	___flge
  1446  0083  1803               	btfsc	3,0
  1447  0084  2886               	goto	u4161
  1448  0085  2887               	goto	u4160
  1449  0086                     u4161:
  1450  0086  292E               	goto	l2937
  1451  0087                     u4160:
  1452  0087  28CD               	goto	l2931
  1453  0088                     l2927:
  1454                           
  1455                           ;main.c: 194:   {;main.c: 195:   numero_ =numero_* 10.0;
  1456  0088  3041               	movlw	65
  1457  0089  1283               	bcf	3,5	;RP0=0, select bank0
  1458  008A  1303               	bcf	3,6	;RP1=0, select bank0
  1459  008B  00A9               	movwf	___flmul@b+3
  1460  008C  3020               	movlw	32
  1461  008D  00A8               	movwf	___flmul@b+2
  1462  008E  3000               	movlw	0
  1463  008F  00A7               	movwf	___flmul@b+1
  1464  0090  3000               	movlw	0
  1465  0091  00A6               	movwf	___flmul@b
  1466  0092  1683               	bsf	3,5	;RP0=1, select bank1
  1467  0093  1303               	bcf	3,6	;RP1=0, select bank1
  1468  0094  084C               	movf	(floattostr_@numero_+3)^(0+128),w
  1469  0095  1283               	bcf	3,5	;RP0=0, select bank0
  1470  0096  1303               	bcf	3,6	;RP1=0, select bank0
  1471  0097  00AD               	movwf	___flmul@a+3
  1472  0098  1683               	bsf	3,5	;RP0=1, select bank1
  1473  0099  1303               	bcf	3,6	;RP1=0, select bank1
  1474  009A  084B               	movf	(floattostr_@numero_+2)^(0+128),w
  1475  009B  1283               	bcf	3,5	;RP0=0, select bank0
  1476  009C  1303               	bcf	3,6	;RP1=0, select bank0
  1477  009D  00AC               	movwf	___flmul@a+2
  1478  009E  1683               	bsf	3,5	;RP0=1, select bank1
  1479  009F  1303               	bcf	3,6	;RP1=0, select bank1
  1480  00A0  084A               	movf	(floattostr_@numero_+1)^(0+128),w
  1481  00A1  1283               	bcf	3,5	;RP0=0, select bank0
  1482  00A2  1303               	bcf	3,6	;RP1=0, select bank0
  1483  00A3  00AB               	movwf	___flmul@a+1
  1484  00A4  1683               	bsf	3,5	;RP0=1, select bank1
  1485  00A5  1303               	bcf	3,6	;RP1=0, select bank1
  1486  00A6  0849               	movf	floattostr_@numero_^(0+128),w
  1487  00A7  1283               	bcf	3,5	;RP0=0, select bank0
  1488  00A8  1303               	bcf	3,6	;RP1=0, select bank0
  1489  00A9  00AA               	movwf	___flmul@a
  1490  00AA  120A  118A  23A8  120A  118A  	fcall	___flmul
  1491  00AF  1283               	bcf	3,5	;RP0=0, select bank0
  1492  00B0  1303               	bcf	3,6	;RP1=0, select bank0
  1493  00B1  0829               	movf	?___flmul+3,w
  1494  00B2  1683               	bsf	3,5	;RP0=1, select bank1
  1495  00B3  1303               	bcf	3,6	;RP1=0, select bank1
  1496  00B4  00CC               	movwf	(floattostr_@numero_+3)^(0+128)
  1497  00B5  1283               	bcf	3,5	;RP0=0, select bank0
  1498  00B6  1303               	bcf	3,6	;RP1=0, select bank0
  1499  00B7  0828               	movf	?___flmul+2,w
  1500  00B8  1683               	bsf	3,5	;RP0=1, select bank1
  1501  00B9  1303               	bcf	3,6	;RP1=0, select bank1
  1502  00BA  00CB               	movwf	(floattostr_@numero_+2)^(0+128)
  1503  00BB  1283               	bcf	3,5	;RP0=0, select bank0
  1504  00BC  1303               	bcf	3,6	;RP1=0, select bank0
  1505  00BD  0827               	movf	?___flmul+1,w
  1506  00BE  1683               	bsf	3,5	;RP0=1, select bank1
  1507  00BF  1303               	bcf	3,6	;RP1=0, select bank1
  1508  00C0  00CA               	movwf	(floattostr_@numero_+1)^(0+128)
  1509  00C1  1283               	bcf	3,5	;RP0=0, select bank0
  1510  00C2  1303               	bcf	3,6	;RP1=0, select bank0
  1511  00C3  0826               	movf	?___flmul,w
  1512  00C4  1683               	bsf	3,5	;RP0=1, select bank1
  1513  00C5  1303               	bcf	3,6	;RP1=0, select bank1
  1514  00C6  00C9               	movwf	floattostr_@numero_^(0+128)
  1515  00C7                     l2929:
  1516                           
  1517                           ;main.c: 196:   largo_entera--;
  1518  00C7  30FF               	movlw	255
  1519  00C8  07D9               	addwf	floattostr_@largo_entera^(0+128),f
  1520  00C9  1803               	skipnc
  1521  00CA  0ADA               	incf	(floattostr_@largo_entera+1)^(0+128),f
  1522  00CB  30FF               	movlw	255
  1523  00CC  07DA               	addwf	(floattostr_@largo_entera+1)^(0+128),f
  1524  00CD                     l2931:
  1525                           
  1526                           ;main.c: 193: if (numero_ > 0.0) while (numero_ < 1.0)
  1527  00CD  1683               	bsf	3,5	;RP0=1, select bank1
  1528  00CE  1303               	bcf	3,6	;RP1=0, select bank1
  1529  00CF  084C               	movf	(floattostr_@numero_+3)^(0+128),w
  1530  00D0  00F5               	movwf	___flge@ff1+3
  1531  00D1  084B               	movf	(floattostr_@numero_+2)^(0+128),w
  1532  00D2  00F4               	movwf	___flge@ff1+2
  1533  00D3  084A               	movf	(floattostr_@numero_+1)^(0+128),w
  1534  00D4  00F3               	movwf	___flge@ff1+1
  1535  00D5  0849               	movf	floattostr_@numero_^(0+128),w
  1536  00D6  00F2               	movwf	___flge@ff1
  1537  00D7  303F               	movlw	63
  1538  00D8  00F9               	movwf	___flge@ff2+3
  1539  00D9  3080               	movlw	128
  1540  00DA  00F8               	movwf	___flge@ff2+2
  1541  00DB  3000               	movlw	0
  1542  00DC  00F7               	movwf	___flge@ff2+1
  1543  00DD  3000               	movlw	0
  1544  00DE  00F6               	movwf	___flge@ff2
  1545  00DF  120A  158A  223B  120A  118A  	fcall	___flge
  1546  00E4  1C03               	btfss	3,0
  1547  00E5  28E7               	goto	u4171
  1548  00E6  28E8               	goto	u4170
  1549  00E7                     u4171:
  1550  00E7  2888               	goto	l2927
  1551  00E8                     u4170:
  1552  00E8  292E               	goto	l2937
  1553  00E9                     l2933:
  1554                           
  1555                           ;main.c: 201:   {;main.c: 202:   numero_ = numero_/10.0;
  1556  00E9  3041               	movlw	65
  1557  00EA  1283               	bcf	3,5	;RP0=0, select bank0
  1558  00EB  1303               	bcf	3,6	;RP1=0, select bank0
  1559  00EC  00C3               	movwf	___fldiv@a+3
  1560  00ED  3020               	movlw	32
  1561  00EE  00C2               	movwf	___fldiv@a+2
  1562  00EF  3000               	movlw	0
  1563  00F0  00C1               	movwf	___fldiv@a+1
  1564  00F1  3000               	movlw	0
  1565  00F2  00C0               	movwf	___fldiv@a
  1566  00F3  1683               	bsf	3,5	;RP0=1, select bank1
  1567  00F4  1303               	bcf	3,6	;RP1=0, select bank1
  1568  00F5  084C               	movf	(floattostr_@numero_+3)^(0+128),w
  1569  00F6  1283               	bcf	3,5	;RP0=0, select bank0
  1570  00F7  1303               	bcf	3,6	;RP1=0, select bank0
  1571  00F8  00C7               	movwf	___fldiv@b+3
  1572  00F9  1683               	bsf	3,5	;RP0=1, select bank1
  1573  00FA  1303               	bcf	3,6	;RP1=0, select bank1
  1574  00FB  084B               	movf	(floattostr_@numero_+2)^(0+128),w
  1575  00FC  1283               	bcf	3,5	;RP0=0, select bank0
  1576  00FD  1303               	bcf	3,6	;RP1=0, select bank0
  1577  00FE  00C6               	movwf	___fldiv@b+2
  1578  00FF  1683               	bsf	3,5	;RP0=1, select bank1
  1579  0100  1303               	bcf	3,6	;RP1=0, select bank1
  1580  0101  084A               	movf	(floattostr_@numero_+1)^(0+128),w
  1581  0102  1283               	bcf	3,5	;RP0=0, select bank0
  1582  0103  1303               	bcf	3,6	;RP1=0, select bank0
  1583  0104  00C5               	movwf	___fldiv@b+1
  1584  0105  1683               	bsf	3,5	;RP0=1, select bank1
  1585  0106  1303               	bcf	3,6	;RP1=0, select bank1
  1586  0107  0849               	movf	floattostr_@numero_^(0+128),w
  1587  0108  1283               	bcf	3,5	;RP0=0, select bank0
  1588  0109  1303               	bcf	3,6	;RP1=0, select bank0
  1589  010A  00C4               	movwf	___fldiv@b
  1590  010B  120A  158A  239B  120A  118A  	fcall	___fldiv
  1591  0110  1283               	bcf	3,5	;RP0=0, select bank0
  1592  0111  1303               	bcf	3,6	;RP1=0, select bank0
  1593  0112  0843               	movf	?___fldiv+3,w
  1594  0113  1683               	bsf	3,5	;RP0=1, select bank1
  1595  0114  1303               	bcf	3,6	;RP1=0, select bank1
  1596  0115  00CC               	movwf	(floattostr_@numero_+3)^(0+128)
  1597  0116  1283               	bcf	3,5	;RP0=0, select bank0
  1598  0117  1303               	bcf	3,6	;RP1=0, select bank0
  1599  0118  0842               	movf	?___fldiv+2,w
  1600  0119  1683               	bsf	3,5	;RP0=1, select bank1
  1601  011A  1303               	bcf	3,6	;RP1=0, select bank1
  1602  011B  00CB               	movwf	(floattostr_@numero_+2)^(0+128)
  1603  011C  1283               	bcf	3,5	;RP0=0, select bank0
  1604  011D  1303               	bcf	3,6	;RP1=0, select bank0
  1605  011E  0841               	movf	?___fldiv+1,w
  1606  011F  1683               	bsf	3,5	;RP0=1, select bank1
  1607  0120  1303               	bcf	3,6	;RP1=0, select bank1
  1608  0121  00CA               	movwf	(floattostr_@numero_+1)^(0+128)
  1609  0122  1283               	bcf	3,5	;RP0=0, select bank0
  1610  0123  1303               	bcf	3,6	;RP1=0, select bank0
  1611  0124  0840               	movf	?___fldiv,w
  1612  0125  1683               	bsf	3,5	;RP0=1, select bank1
  1613  0126  1303               	bcf	3,6	;RP1=0, select bank1
  1614  0127  00C9               	movwf	floattostr_@numero_^(0+128)
  1615  0128                     l2935:
  1616                           
  1617                           ;main.c: 203:   largo_entera++;
  1618  0128  3001               	movlw	1
  1619  0129  07D9               	addwf	floattostr_@largo_entera^(0+128),f
  1620  012A  1803               	skipnc
  1621  012B  0ADA               	incf	(floattostr_@largo_entera+1)^(0+128),f
  1622  012C  3000               	movlw	0
  1623  012D  07DA               	addwf	(floattostr_@largo_entera+1)^(0+128),f
  1624  012E                     l2937:
  1625                           
  1626                           ;main.c: 200: while (numero_ >= 10.0)
  1627  012E  1683               	bsf	3,5	;RP0=1, select bank1
  1628  012F  1303               	bcf	3,6	;RP1=0, select bank1
  1629  0130  084C               	movf	(floattostr_@numero_+3)^(0+128),w
  1630  0131  00F5               	movwf	___flge@ff1+3
  1631  0132  084B               	movf	(floattostr_@numero_+2)^(0+128),w
  1632  0133  00F4               	movwf	___flge@ff1+2
  1633  0134  084A               	movf	(floattostr_@numero_+1)^(0+128),w
  1634  0135  00F3               	movwf	___flge@ff1+1
  1635  0136  0849               	movf	floattostr_@numero_^(0+128),w
  1636  0137  00F2               	movwf	___flge@ff1
  1637  0138  3041               	movlw	65
  1638  0139  00F9               	movwf	___flge@ff2+3
  1639  013A  3020               	movlw	32
  1640  013B  00F8               	movwf	___flge@ff2+2
  1641  013C  3000               	movlw	0
  1642  013D  00F7               	movwf	___flge@ff2+1
  1643  013E  3000               	movlw	0
  1644  013F  00F6               	movwf	___flge@ff2
  1645  0140  120A  158A  223B  120A  118A  	fcall	___flge
  1646  0145  1803               	btfsc	3,0
  1647  0146  2948               	goto	u4181
  1648  0147  2949               	goto	u4180
  1649  0148                     u4181:
  1650  0148  28E9               	goto	l2933
  1651  0149                     u4180:
  1652  0149                     l2939:
  1653                           
  1654                           ;main.c: 205:  largo_n = largo_n+largo_entera;
  1655  0149  1683               	bsf	3,5	;RP0=1, select bank1
  1656  014A  1303               	bcf	3,6	;RP1=0, select bank1
  1657  014B  0859               	movf	floattostr_@largo_entera^(0+128),w
  1658  014C  0755               	addwf	floattostr_@largo_n^(0+128),w
  1659  014D  00D5               	movwf	floattostr_@largo_n^(0+128)
  1660  014E  085A               	movf	(floattostr_@largo_entera+1)^(0+128),w
  1661  014F  1803               	skipnc
  1662  0150  0A5A               	incf	(floattostr_@largo_entera+1)^(0+128),w
  1663  0151  0756               	addwf	(floattostr_@largo_n+1)^(0+128),w
  1664  0152  00D6               	movwf	(floattostr_@largo_n+1)^(0+128)
  1665  0153                     l2941:
  1666                           
  1667                           ;main.c: 209: for (tempo_float = cont_for = 1; cont_for < largo_n; cont_for++)
  1668  0153  3001               	movlw	1
  1669  0154  00D7               	movwf	floattostr_@cont_for^(0+128)
  1670  0155  3000               	movlw	0
  1671  0156  00D8               	movwf	(floattostr_@cont_for^(0+128)+1)
  1672  0157  0857               	movf	floattostr_@cont_for^(0+128),w
  1673  0158  00F2               	movwf	___xxtofl@val
  1674  0159  0858               	movf	(floattostr_@cont_for+1)^(0+128),w
  1675  015A  00F3               	movwf	___xxtofl@val+1
  1676  015B  3000               	movlw	0
  1677  015C  1BF3               	btfsc	___xxtofl@val+1,7
  1678  015D  30FF               	movlw	255
  1679  015E  00F4               	movwf	___xxtofl@val+2
  1680  015F  00F5               	movwf	___xxtofl@val+3
  1681  0160  3001               	movlw	1
  1682  0161  120A  158A  22DF  120A  118A  	fcall	___xxtofl
  1683  0166  0875               	movf	?___xxtofl+3,w
  1684  0167  1683               	bsf	3,5	;RP0=1, select bank1
  1685  0168  1303               	bcf	3,6	;RP1=0, select bank1
  1686  0169  00D4               	movwf	(floattostr_@tempo_float+3)^(0+128)
  1687  016A  0874               	movf	?___xxtofl+2,w
  1688  016B  00D3               	movwf	(floattostr_@tempo_float+2)^(0+128)
  1689  016C  0873               	movf	?___xxtofl+1,w
  1690  016D  00D2               	movwf	(floattostr_@tempo_float+1)^(0+128)
  1691  016E  0872               	movf	?___xxtofl,w
  1692  016F  00D1               	movwf	floattostr_@tempo_float^(0+128)
  1693  0170  29B6               	goto	l2947
  1694  0171                     l2943:
  1695                           
  1696                           ;main.c: 210:   tempo_float = tempo_float/10.0;
  1697  0171  3041               	movlw	65
  1698  0172  1283               	bcf	3,5	;RP0=0, select bank0
  1699  0173  1303               	bcf	3,6	;RP1=0, select bank0
  1700  0174  00C3               	movwf	___fldiv@a+3
  1701  0175  3020               	movlw	32
  1702  0176  00C2               	movwf	___fldiv@a+2
  1703  0177  3000               	movlw	0
  1704  0178  00C1               	movwf	___fldiv@a+1
  1705  0179  3000               	movlw	0
  1706  017A  00C0               	movwf	___fldiv@a
  1707  017B  1683               	bsf	3,5	;RP0=1, select bank1
  1708  017C  1303               	bcf	3,6	;RP1=0, select bank1
  1709  017D  0854               	movf	(floattostr_@tempo_float+3)^(0+128),w
  1710  017E  1283               	bcf	3,5	;RP0=0, select bank0
  1711  017F  1303               	bcf	3,6	;RP1=0, select bank0
  1712  0180  00C7               	movwf	___fldiv@b+3
  1713  0181  1683               	bsf	3,5	;RP0=1, select bank1
  1714  0182  1303               	bcf	3,6	;RP1=0, select bank1
  1715  0183  0853               	movf	(floattostr_@tempo_float+2)^(0+128),w
  1716  0184  1283               	bcf	3,5	;RP0=0, select bank0
  1717  0185  1303               	bcf	3,6	;RP1=0, select bank0
  1718  0186  00C6               	movwf	___fldiv@b+2
  1719  0187  1683               	bsf	3,5	;RP0=1, select bank1
  1720  0188  1303               	bcf	3,6	;RP1=0, select bank1
  1721  0189  0852               	movf	(floattostr_@tempo_float+1)^(0+128),w
  1722  018A  1283               	bcf	3,5	;RP0=0, select bank0
  1723  018B  1303               	bcf	3,6	;RP1=0, select bank0
  1724  018C  00C5               	movwf	___fldiv@b+1
  1725  018D  1683               	bsf	3,5	;RP0=1, select bank1
  1726  018E  1303               	bcf	3,6	;RP1=0, select bank1
  1727  018F  0851               	movf	floattostr_@tempo_float^(0+128),w
  1728  0190  1283               	bcf	3,5	;RP0=0, select bank0
  1729  0191  1303               	bcf	3,6	;RP1=0, select bank0
  1730  0192  00C4               	movwf	___fldiv@b
  1731  0193  120A  158A  239B  120A  118A  	fcall	___fldiv
  1732  0198  1283               	bcf	3,5	;RP0=0, select bank0
  1733  0199  1303               	bcf	3,6	;RP1=0, select bank0
  1734  019A  0843               	movf	?___fldiv+3,w
  1735  019B  1683               	bsf	3,5	;RP0=1, select bank1
  1736  019C  1303               	bcf	3,6	;RP1=0, select bank1
  1737  019D  00D4               	movwf	(floattostr_@tempo_float+3)^(0+128)
  1738  019E  1283               	bcf	3,5	;RP0=0, select bank0
  1739  019F  1303               	bcf	3,6	;RP1=0, select bank0
  1740  01A0  0842               	movf	?___fldiv+2,w
  1741  01A1  1683               	bsf	3,5	;RP0=1, select bank1
  1742  01A2  1303               	bcf	3,6	;RP1=0, select bank1
  1743  01A3  00D3               	movwf	(floattostr_@tempo_float+2)^(0+128)
  1744  01A4  1283               	bcf	3,5	;RP0=0, select bank0
  1745  01A5  1303               	bcf	3,6	;RP1=0, select bank0
  1746  01A6  0841               	movf	?___fldiv+1,w
  1747  01A7  1683               	bsf	3,5	;RP0=1, select bank1
  1748  01A8  1303               	bcf	3,6	;RP1=0, select bank1
  1749  01A9  00D2               	movwf	(floattostr_@tempo_float+1)^(0+128)
  1750  01AA  1283               	bcf	3,5	;RP0=0, select bank0
  1751  01AB  1303               	bcf	3,6	;RP1=0, select bank0
  1752  01AC  0840               	movf	?___fldiv,w
  1753  01AD  1683               	bsf	3,5	;RP0=1, select bank1
  1754  01AE  1303               	bcf	3,6	;RP1=0, select bank1
  1755  01AF  00D1               	movwf	floattostr_@tempo_float^(0+128)
  1756  01B0                     l2945:
  1757  01B0  3001               	movlw	1
  1758  01B1  07D7               	addwf	floattostr_@cont_for^(0+128),f
  1759  01B2  1803               	skipnc
  1760  01B3  0AD8               	incf	(floattostr_@cont_for+1)^(0+128),f
  1761  01B4  3000               	movlw	0
  1762  01B5  07D8               	addwf	(floattostr_@cont_for+1)^(0+128),f
  1763  01B6                     l2947:
  1764  01B6  0858               	movf	(floattostr_@cont_for+1)^(0+128),w
  1765  01B7  3A80               	xorlw	128
  1766  01B8  1283               	bcf	3,5	;RP0=0, select bank0
  1767  01B9  1303               	bcf	3,6	;RP1=0, select bank0
  1768  01BA  00EE               	movwf	??_floattostr_
  1769  01BB  1683               	bsf	3,5	;RP0=1, select bank1
  1770  01BC  1303               	bcf	3,6	;RP1=0, select bank1
  1771  01BD  0856               	movf	(floattostr_@largo_n+1)^(0+128),w
  1772  01BE  3A80               	xorlw	128
  1773  01BF  1283               	bcf	3,5	;RP0=0, select bank0
  1774  01C0  1303               	bcf	3,6	;RP1=0, select bank0
  1775  01C1  026E               	subwf	??_floattostr_,w
  1776  01C2  1D03               	skipz
  1777  01C3  29C8               	goto	u4195
  1778  01C4  1683               	bsf	3,5	;RP0=1, select bank1
  1779  01C5  1303               	bcf	3,6	;RP1=0, select bank1
  1780  01C6  0855               	movf	floattostr_@largo_n^(0+128),w
  1781  01C7  0257               	subwf	floattostr_@cont_for^(0+128),w
  1782  01C8                     u4195:
  1783  01C8  1C03               	skipc
  1784  01C9  29CB               	goto	u4191
  1785  01CA  29CC               	goto	u4190
  1786  01CB                     u4191:
  1787  01CB  2971               	goto	l2943
  1788  01CC                     u4190:
  1789  01CC                     l2949:
  1790                           
  1791                           ;main.c: 211: numero_ += tempo_float/2.0;
  1792  01CC  1683               	bsf	3,5	;RP0=1, select bank1
  1793  01CD  1303               	bcf	3,6	;RP1=0, select bank1
  1794  01CE  0854               	movf	(floattostr_@tempo_float+3)^(0+128),w
  1795  01CF  1283               	bcf	3,5	;RP0=0, select bank0
  1796  01D0  1303               	bcf	3,6	;RP1=0, select bank0
  1797  01D1  00C7               	movwf	___fldiv@b+3
  1798  01D2  1683               	bsf	3,5	;RP0=1, select bank1
  1799  01D3  1303               	bcf	3,6	;RP1=0, select bank1
  1800  01D4  0853               	movf	(floattostr_@tempo_float+2)^(0+128),w
  1801  01D5  1283               	bcf	3,5	;RP0=0, select bank0
  1802  01D6  1303               	bcf	3,6	;RP1=0, select bank0
  1803  01D7  00C6               	movwf	___fldiv@b+2
  1804  01D8  1683               	bsf	3,5	;RP0=1, select bank1
  1805  01D9  1303               	bcf	3,6	;RP1=0, select bank1
  1806  01DA  0852               	movf	(floattostr_@tempo_float+1)^(0+128),w
  1807  01DB  1283               	bcf	3,5	;RP0=0, select bank0
  1808  01DC  1303               	bcf	3,6	;RP1=0, select bank0
  1809  01DD  00C5               	movwf	___fldiv@b+1
  1810  01DE  1683               	bsf	3,5	;RP0=1, select bank1
  1811  01DF  1303               	bcf	3,6	;RP1=0, select bank1
  1812  01E0  0851               	movf	floattostr_@tempo_float^(0+128),w
  1813  01E1  1283               	bcf	3,5	;RP0=0, select bank0
  1814  01E2  1303               	bcf	3,6	;RP1=0, select bank0
  1815  01E3  00C4               	movwf	___fldiv@b
  1816  01E4  3040               	movlw	64
  1817  01E5  00C3               	movwf	___fldiv@a+3
  1818  01E6  3000               	movlw	0
  1819  01E7  00C2               	movwf	___fldiv@a+2
  1820  01E8  3000               	movlw	0
  1821  01E9  00C1               	movwf	___fldiv@a+1
  1822  01EA  3000               	movlw	0
  1823  01EB  00C0               	movwf	___fldiv@a
  1824  01EC  120A  158A  239B  120A  118A  	fcall	___fldiv
  1825  01F1  1283               	bcf	3,5	;RP0=0, select bank0
  1826  01F2  1303               	bcf	3,6	;RP1=0, select bank0
  1827  01F3  0843               	movf	?___fldiv+3,w
  1828  01F4  00DD               	movwf	___fladd@b+3
  1829  01F5  0842               	movf	?___fldiv+2,w
  1830  01F6  00DC               	movwf	___fladd@b+2
  1831  01F7  0841               	movf	?___fldiv+1,w
  1832  01F8  00DB               	movwf	___fladd@b+1
  1833  01F9  0840               	movf	?___fldiv,w
  1834  01FA  00DA               	movwf	___fladd@b
  1835  01FB  1683               	bsf	3,5	;RP0=1, select bank1
  1836  01FC  1303               	bcf	3,6	;RP1=0, select bank1
  1837  01FD  084C               	movf	(floattostr_@numero_+3)^(0+128),w
  1838  01FE  1283               	bcf	3,5	;RP0=0, select bank0
  1839  01FF  1303               	bcf	3,6	;RP1=0, select bank0
  1840  0200  00E1               	movwf	___fladd@a+3
  1841  0201  1683               	bsf	3,5	;RP0=1, select bank1
  1842  0202  1303               	bcf	3,6	;RP1=0, select bank1
  1843  0203  084B               	movf	(floattostr_@numero_+2)^(0+128),w
  1844  0204  1283               	bcf	3,5	;RP0=0, select bank0
  1845  0205  1303               	bcf	3,6	;RP1=0, select bank0
  1846  0206  00E0               	movwf	___fladd@a+2
  1847  0207  1683               	bsf	3,5	;RP0=1, select bank1
  1848  0208  1303               	bcf	3,6	;RP1=0, select bank1
  1849  0209  084A               	movf	(floattostr_@numero_+1)^(0+128),w
  1850  020A  1283               	bcf	3,5	;RP0=0, select bank0
  1851  020B  1303               	bcf	3,6	;RP1=0, select bank0
  1852  020C  00DF               	movwf	___fladd@a+1
  1853  020D  1683               	bsf	3,5	;RP0=1, select bank1
  1854  020E  1303               	bcf	3,6	;RP1=0, select bank1
  1855  020F  0849               	movf	floattostr_@numero_^(0+128),w
  1856  0210  1283               	bcf	3,5	;RP0=0, select bank0
  1857  0211  1303               	bcf	3,6	;RP1=0, select bank0
  1858  0212  00DE               	movwf	___fladd@a
  1859  0213  120A  158A  2578  120A  118A  	fcall	___fladd
  1860  0218  1283               	bcf	3,5	;RP0=0, select bank0
  1861  0219  1303               	bcf	3,6	;RP1=0, select bank0
  1862  021A  085D               	movf	?___fladd+3,w
  1863  021B  1683               	bsf	3,5	;RP0=1, select bank1
  1864  021C  1303               	bcf	3,6	;RP1=0, select bank1
  1865  021D  00CC               	movwf	(floattostr_@numero_+3)^(0+128)
  1866  021E  1283               	bcf	3,5	;RP0=0, select bank0
  1867  021F  1303               	bcf	3,6	;RP1=0, select bank0
  1868  0220  085C               	movf	?___fladd+2,w
  1869  0221  1683               	bsf	3,5	;RP0=1, select bank1
  1870  0222  1303               	bcf	3,6	;RP1=0, select bank1
  1871  0223  00CB               	movwf	(floattostr_@numero_+2)^(0+128)
  1872  0224  1283               	bcf	3,5	;RP0=0, select bank0
  1873  0225  1303               	bcf	3,6	;RP1=0, select bank0
  1874  0226  085B               	movf	?___fladd+1,w
  1875  0227  1683               	bsf	3,5	;RP0=1, select bank1
  1876  0228  1303               	bcf	3,6	;RP1=0, select bank1
  1877  0229  00CA               	movwf	(floattostr_@numero_+1)^(0+128)
  1878  022A  1283               	bcf	3,5	;RP0=0, select bank0
  1879  022B  1303               	bcf	3,6	;RP1=0, select bank0
  1880  022C  085A               	movf	?___fladd,w
  1881  022D  1683               	bsf	3,5	;RP0=1, select bank1
  1882  022E  1303               	bcf	3,6	;RP1=0, select bank1
  1883  022F  00C9               	movwf	floattostr_@numero_^(0+128)
  1884  0230                     l2951:
  1885                           
  1886                           ;main.c: 212: if (numero_ >= 10.0) {numero_ = 1.0; largo_entera++;}
  1887  0230  084C               	movf	(floattostr_@numero_+3)^(0+128),w
  1888  0231  00F5               	movwf	___flge@ff1+3
  1889  0232  084B               	movf	(floattostr_@numero_+2)^(0+128),w
  1890  0233  00F4               	movwf	___flge@ff1+2
  1891  0234  084A               	movf	(floattostr_@numero_+1)^(0+128),w
  1892  0235  00F3               	movwf	___flge@ff1+1
  1893  0236  0849               	movf	floattostr_@numero_^(0+128),w
  1894  0237  00F2               	movwf	___flge@ff1
  1895  0238  3041               	movlw	65
  1896  0239  00F9               	movwf	___flge@ff2+3
  1897  023A  3020               	movlw	32
  1898  023B  00F8               	movwf	___flge@ff2+2
  1899  023C  3000               	movlw	0
  1900  023D  00F7               	movwf	___flge@ff2+1
  1901  023E  3000               	movlw	0
  1902  023F  00F6               	movwf	___flge@ff2
  1903  0240  120A  158A  223B  120A  118A  	fcall	___flge
  1904  0245  1C03               	btfss	3,0
  1905  0246  2A48               	goto	u4201
  1906  0247  2A49               	goto	u4200
  1907  0248                     u4201:
  1908  0248  2A59               	goto	l2955
  1909  0249                     u4200:
  1910  0249                     l2953:
  1911  0249  303F               	movlw	63
  1912  024A  1683               	bsf	3,5	;RP0=1, select bank1
  1913  024B  1303               	bcf	3,6	;RP1=0, select bank1
  1914  024C  00CC               	movwf	(floattostr_@numero_+3)^(0+128)
  1915  024D  3080               	movlw	128
  1916  024E  00CB               	movwf	(floattostr_@numero_+2)^(0+128)
  1917  024F  3000               	movlw	0
  1918  0250  00CA               	movwf	(floattostr_@numero_+1)^(0+128)
  1919  0251  3000               	movlw	0
  1920  0252  00C9               	movwf	floattostr_@numero_^(0+128)
  1921  0253  3001               	movlw	1
  1922  0254  07D9               	addwf	floattostr_@largo_entera^(0+128),f
  1923  0255  1803               	skipnc
  1924  0256  0ADA               	incf	(floattostr_@largo_entera+1)^(0+128),f
  1925  0257  3000               	movlw	0
  1926  0258  07DA               	addwf	(floattostr_@largo_entera+1)^(0+128),f
  1927  0259                     l2955:
  1928                           
  1929                           ;main.c: 214: if (largo_entera<0)
  1930  0259  1683               	bsf	3,5	;RP0=1, select bank1
  1931  025A  1303               	bcf	3,6	;RP1=0, select bank1
  1932  025B  1FDA               	btfss	(floattostr_@largo_entera+1)^(0+128),7
  1933  025C  2A5E               	goto	u4211
  1934  025D  2A5F               	goto	u4210
  1935  025E                     u4211:
  1936  025E  2AC4               	goto	l2977
  1937  025F                     u4210:
  1938  025F                     l2957:
  1939                           
  1940                           ;main.c: 215:   {;main.c: 216:    *cadena_++ = '0'; *cadena_++ = '.';
  1941  025F  3030               	movlw	48
  1942  0260  1283               	bcf	3,5	;RP0=0, select bank0
  1943  0261  1303               	bcf	3,6	;RP1=0, select bank0
  1944  0262  00EE               	movwf	??_floattostr_
  1945  0263  1683               	bsf	3,5	;RP0=1, select bank1
  1946  0264  1303               	bcf	3,6	;RP1=0, select bank1
  1947  0265  084D               	movf	floattostr_@cadena_^(0+128),w
  1948  0266  0084               	movwf	4
  1949  0267  1283               	bcf	3,5	;RP0=0, select bank0
  1950  0268  1303               	bcf	3,6	;RP1=0, select bank0
  1951  0269  086E               	movf	??_floattostr_,w
  1952  026A  1383               	bcf	3,7	;select IRP bank0
  1953  026B  0080               	movwf	0
  1954  026C                     l2959:
  1955  026C  3001               	movlw	1
  1956  026D  00EE               	movwf	??_floattostr_
  1957  026E  086E               	movf	??_floattostr_,w
  1958  026F  1683               	bsf	3,5	;RP0=1, select bank1
  1959  0270  1303               	bcf	3,6	;RP1=0, select bank1
  1960  0271  07CD               	addwf	floattostr_@cadena_^(0+128),f
  1961  0272                     l2961:
  1962  0272  302E               	movlw	46
  1963  0273  1283               	bcf	3,5	;RP0=0, select bank0
  1964  0274  1303               	bcf	3,6	;RP1=0, select bank0
  1965  0275  00EE               	movwf	??_floattostr_
  1966  0276  1683               	bsf	3,5	;RP0=1, select bank1
  1967  0277  1303               	bcf	3,6	;RP1=0, select bank1
  1968  0278  084D               	movf	floattostr_@cadena_^(0+128),w
  1969  0279  0084               	movwf	4
  1970  027A  1283               	bcf	3,5	;RP0=0, select bank0
  1971  027B  1303               	bcf	3,6	;RP1=0, select bank0
  1972  027C  086E               	movf	??_floattostr_,w
  1973  027D  0080               	movwf	0
  1974  027E  3001               	movlw	1
  1975  027F  00EE               	movwf	??_floattostr_
  1976  0280  086E               	movf	??_floattostr_,w
  1977  0281  1683               	bsf	3,5	;RP0=1, select bank1
  1978  0282  1303               	bcf	3,6	;RP1=0, select bank1
  1979  0283  07CD               	addwf	floattostr_@cadena_^(0+128),f
  1980  0284                     l2963:
  1981                           
  1982                           ;main.c: 217:    if (largo_n < 0) largo_entera = largo_entera-largo_n;
  1983  0284  1FD6               	btfss	(floattostr_@largo_n+1)^(0+128),7
  1984  0285  2A87               	goto	u4221
  1985  0286  2A88               	goto	u4220
  1986  0287                     u4221:
  1987  0287  2A90               	goto	l2967
  1988  0288                     u4220:
  1989  0288                     l2965:
  1990  0288  0855               	movf	floattostr_@largo_n^(0+128),w
  1991  0289  0259               	subwf	floattostr_@largo_entera^(0+128),w
  1992  028A  00D9               	movwf	floattostr_@largo_entera^(0+128)
  1993  028B  0856               	movf	(floattostr_@largo_n+1)^(0+128),w
  1994  028C  1C03               	skipc
  1995  028D  0A56               	incf	(floattostr_@largo_n+1)^(0+128),w
  1996  028E  025A               	subwf	(floattostr_@largo_entera+1)^(0+128),w
  1997  028F  00DA               	movwf	(floattostr_@largo_entera+1)^(0+128)
  1998  0290                     l2967:
  1999                           
  2000                           ;main.c: 218:    for (cont_for = -1; cont_for > largo_entera; cont_for--) *cadena_++ = '
      +                          0';
  2001  0290  30FF               	movlw	255
  2002  0291  00D7               	movwf	floattostr_@cont_for^(0+128)
  2003  0292  30FF               	movlw	255
  2004  0293  00D8               	movwf	(floattostr_@cont_for^(0+128)+1)
  2005  0294  2AAE               	goto	l2975
  2006  0295                     l2969:
  2007  0295  3030               	movlw	48
  2008  0296  1283               	bcf	3,5	;RP0=0, select bank0
  2009  0297  1303               	bcf	3,6	;RP1=0, select bank0
  2010  0298  00EE               	movwf	??_floattostr_
  2011  0299  1683               	bsf	3,5	;RP0=1, select bank1
  2012  029A  1303               	bcf	3,6	;RP1=0, select bank1
  2013  029B  084D               	movf	floattostr_@cadena_^(0+128),w
  2014  029C  0084               	movwf	4
  2015  029D  1283               	bcf	3,5	;RP0=0, select bank0
  2016  029E  1303               	bcf	3,6	;RP1=0, select bank0
  2017  029F  086E               	movf	??_floattostr_,w
  2018  02A0  1383               	bcf	3,7	;select IRP bank0
  2019  02A1  0080               	movwf	0
  2020  02A2                     l2971:
  2021  02A2  3001               	movlw	1
  2022  02A3  00EE               	movwf	??_floattostr_
  2023  02A4  086E               	movf	??_floattostr_,w
  2024  02A5  1683               	bsf	3,5	;RP0=1, select bank1
  2025  02A6  1303               	bcf	3,6	;RP1=0, select bank1
  2026  02A7  07CD               	addwf	floattostr_@cadena_^(0+128),f
  2027  02A8                     l2973:
  2028  02A8  30FF               	movlw	255
  2029  02A9  07D7               	addwf	floattostr_@cont_for^(0+128),f
  2030  02AA  1803               	skipnc
  2031  02AB  0AD8               	incf	(floattostr_@cont_for+1)^(0+128),f
  2032  02AC  30FF               	movlw	255
  2033  02AD  07D8               	addwf	(floattostr_@cont_for+1)^(0+128),f
  2034  02AE                     l2975:
  2035  02AE  085A               	movf	(floattostr_@largo_entera+1)^(0+128),w
  2036  02AF  3A80               	xorlw	128
  2037  02B0  1283               	bcf	3,5	;RP0=0, select bank0
  2038  02B1  1303               	bcf	3,6	;RP1=0, select bank0
  2039  02B2  00EE               	movwf	??_floattostr_
  2040  02B3  1683               	bsf	3,5	;RP0=1, select bank1
  2041  02B4  1303               	bcf	3,6	;RP1=0, select bank1
  2042  02B5  0858               	movf	(floattostr_@cont_for+1)^(0+128),w
  2043  02B6  3A80               	xorlw	128
  2044  02B7  1283               	bcf	3,5	;RP0=0, select bank0
  2045  02B8  1303               	bcf	3,6	;RP1=0, select bank0
  2046  02B9  026E               	subwf	??_floattostr_,w
  2047  02BA  1D03               	skipz
  2048  02BB  2AC0               	goto	u4235
  2049  02BC  1683               	bsf	3,5	;RP0=1, select bank1
  2050  02BD  1303               	bcf	3,6	;RP1=0, select bank1
  2051  02BE  0857               	movf	floattostr_@cont_for^(0+128),w
  2052  02BF  0259               	subwf	floattostr_@largo_entera^(0+128),w
  2053  02C0                     u4235:
  2054  02C0  1C03               	skipc
  2055  02C1  2AC3               	goto	u4231
  2056  02C2  2AC4               	goto	u4230
  2057  02C3                     u4231:
  2058  02C3  2A95               	goto	l2969
  2059  02C4                     u4230:
  2060  02C4                     l2977:
  2061                           
  2062                           ;main.c: 220: for (cont_for=0; cont_for < largo_n; cont_for++)
  2063  02C4  1683               	bsf	3,5	;RP0=1, select bank1
  2064  02C5  1303               	bcf	3,6	;RP1=0, select bank1
  2065  02C6  01D7               	clrf	floattostr_@cont_for^(0+128)
  2066  02C7  01D8               	clrf	(floattostr_@cont_for+1)^(0+128)
  2067  02C8  2B8B               	goto	l2997
  2068  02C9                     l2979:
  2069                           
  2070                           ;main.c: 221:   {;main.c: 222:   tempo_int = numero_;
  2071  02C9  1683               	bsf	3,5	;RP0=1, select bank1
  2072  02CA  1303               	bcf	3,6	;RP1=0, select bank1
  2073  02CB  084C               	movf	(floattostr_@numero_+3)^(0+128),w
  2074  02CC  00F5               	movwf	___fltol@f1+3
  2075  02CD  084B               	movf	(floattostr_@numero_+2)^(0+128),w
  2076  02CE  00F4               	movwf	___fltol@f1+2
  2077  02CF  084A               	movf	(floattostr_@numero_+1)^(0+128),w
  2078  02D0  00F3               	movwf	___fltol@f1+1
  2079  02D1  0849               	movf	floattostr_@numero_^(0+128),w
  2080  02D2  00F2               	movwf	___fltol@f1
  2081  02D3  120A  158A  21BF  120A  118A  	fcall	___fltol
  2082  02D8  0873               	movf	?___fltol+1,w
  2083  02D9  1683               	bsf	3,5	;RP0=1, select bank1
  2084  02DA  1303               	bcf	3,6	;RP1=0, select bank1
  2085  02DB  00D0               	movwf	(floattostr_@tempo_int+1)^(0+128)
  2086  02DC  0872               	movf	?___fltol,w
  2087  02DD  00CF               	movwf	floattostr_@tempo_int^(0+128)
  2088  02DE                     l2981:
  2089                           
  2090                           ;main.c: 223:   *cadena_++ = tempo_int + 48;
  2091  02DE  084F               	movf	floattostr_@tempo_int^(0+128),w
  2092  02DF  3E30               	addlw	48
  2093  02E0  1283               	bcf	3,5	;RP0=0, select bank0
  2094  02E1  1303               	bcf	3,6	;RP1=0, select bank0
  2095  02E2  00EE               	movwf	??_floattostr_
  2096  02E3  1683               	bsf	3,5	;RP0=1, select bank1
  2097  02E4  1303               	bcf	3,6	;RP1=0, select bank1
  2098  02E5  084D               	movf	floattostr_@cadena_^(0+128),w
  2099  02E6  0084               	movwf	4
  2100  02E7  1283               	bcf	3,5	;RP0=0, select bank0
  2101  02E8  1303               	bcf	3,6	;RP1=0, select bank0
  2102  02E9  086E               	movf	??_floattostr_,w
  2103  02EA  1383               	bcf	3,7	;select IRP bank0
  2104  02EB  0080               	movwf	0
  2105  02EC                     l2983:
  2106  02EC  3001               	movlw	1
  2107  02ED  00EE               	movwf	??_floattostr_
  2108  02EE  086E               	movf	??_floattostr_,w
  2109  02EF  1683               	bsf	3,5	;RP0=1, select bank1
  2110  02F0  1303               	bcf	3,6	;RP1=0, select bank1
  2111  02F1  07CD               	addwf	floattostr_@cadena_^(0+128),f
  2112  02F2                     l2985:
  2113                           
  2114                           ;main.c: 224:   if (cont_for == largo_entera ) *cadena_++ = '.';
  2115  02F2  085A               	movf	(floattostr_@largo_entera+1)^(0+128),w
  2116  02F3  0658               	xorwf	(floattostr_@cont_for+1)^(0+128),w
  2117  02F4  1D03               	skipz
  2118  02F5  2AF8               	goto	u4245
  2119  02F6  0859               	movf	floattostr_@largo_entera^(0+128),w
  2120  02F7  0657               	xorwf	floattostr_@cont_for^(0+128),w
  2121  02F8                     u4245:
  2122  02F8  1D03               	skipz
  2123  02F9  2AFB               	goto	u4241
  2124  02FA  2AFC               	goto	u4240
  2125  02FB                     u4241:
  2126  02FB  2B0E               	goto	l2991
  2127  02FC                     u4240:
  2128  02FC                     l2987:
  2129  02FC  302E               	movlw	46
  2130  02FD  1283               	bcf	3,5	;RP0=0, select bank0
  2131  02FE  1303               	bcf	3,6	;RP1=0, select bank0
  2132  02FF  00EE               	movwf	??_floattostr_
  2133  0300  1683               	bsf	3,5	;RP0=1, select bank1
  2134  0301  1303               	bcf	3,6	;RP1=0, select bank1
  2135  0302  084D               	movf	floattostr_@cadena_^(0+128),w
  2136  0303  0084               	movwf	4
  2137  0304  1283               	bcf	3,5	;RP0=0, select bank0
  2138  0305  1303               	bcf	3,6	;RP1=0, select bank0
  2139  0306  086E               	movf	??_floattostr_,w
  2140  0307  0080               	movwf	0
  2141  0308                     l2989:
  2142  0308  3001               	movlw	1
  2143  0309  00EE               	movwf	??_floattostr_
  2144  030A  086E               	movf	??_floattostr_,w
  2145  030B  1683               	bsf	3,5	;RP0=1, select bank1
  2146  030C  1303               	bcf	3,6	;RP1=0, select bank1
  2147  030D  07CD               	addwf	floattostr_@cadena_^(0+128),f
  2148  030E                     l2991:
  2149                           
  2150                           ;main.c: 225:   numero_ -= (tempo_float=tempo_int);
  2151  030E  084F               	movf	floattostr_@tempo_int^(0+128),w
  2152  030F  00F2               	movwf	___xxtofl@val
  2153  0310  0850               	movf	(floattostr_@tempo_int+1)^(0+128),w
  2154  0311  00F3               	movwf	___xxtofl@val+1
  2155  0312  3000               	movlw	0
  2156  0313  1BF3               	btfsc	___xxtofl@val+1,7
  2157  0314  30FF               	movlw	255
  2158  0315  00F4               	movwf	___xxtofl@val+2
  2159  0316  00F5               	movwf	___xxtofl@val+3
  2160  0317  3001               	movlw	1
  2161  0318  120A  158A  22DF  120A  118A  	fcall	___xxtofl
  2162  031D  0875               	movf	?___xxtofl+3,w
  2163  031E  1683               	bsf	3,5	;RP0=1, select bank1
  2164  031F  1303               	bcf	3,6	;RP1=0, select bank1
  2165  0320  00D4               	movwf	(floattostr_@tempo_float+3)^(0+128)
  2166  0321  0874               	movf	?___xxtofl+2,w
  2167  0322  00D3               	movwf	(floattostr_@tempo_float+2)^(0+128)
  2168  0323  0873               	movf	?___xxtofl+1,w
  2169  0324  00D2               	movwf	(floattostr_@tempo_float+1)^(0+128)
  2170  0325  0872               	movf	?___xxtofl,w
  2171  0326  00D1               	movwf	floattostr_@tempo_float^(0+128)
  2172  0327  0854               	movf	(floattostr_@tempo_float+3)^(0+128),w
  2173  0328  00C4               	movwf	(___flsub@a+3)^(0+128)
  2174  0329  0853               	movf	(floattostr_@tempo_float+2)^(0+128),w
  2175  032A  00C3               	movwf	(___flsub@a+2)^(0+128)
  2176  032B  0852               	movf	(floattostr_@tempo_float+1)^(0+128),w
  2177  032C  00C2               	movwf	(___flsub@a+1)^(0+128)
  2178  032D  0851               	movf	floattostr_@tempo_float^(0+128),w
  2179  032E  00C1               	movwf	___flsub@a^(0+128)
  2180  032F  084C               	movf	(floattostr_@numero_+3)^(0+128),w
  2181  0330  00C8               	movwf	(___flsub@b+3)^(0+128)
  2182  0331  084B               	movf	(floattostr_@numero_+2)^(0+128),w
  2183  0332  00C7               	movwf	(___flsub@b+2)^(0+128)
  2184  0333  084A               	movf	(floattostr_@numero_+1)^(0+128),w
  2185  0334  00C6               	movwf	(___flsub@b+1)^(0+128)
  2186  0335  0849               	movf	floattostr_@numero_^(0+128),w
  2187  0336  00C5               	movwf	___flsub@b^(0+128)
  2188  0337  120A  158A  20BA  120A  118A  	fcall	___flsub
  2189  033C  1683               	bsf	3,5	;RP0=1, select bank1
  2190  033D  1303               	bcf	3,6	;RP1=0, select bank1
  2191  033E  0844               	movf	(?___flsub+3)^(0+128),w
  2192  033F  00CC               	movwf	(floattostr_@numero_+3)^(0+128)
  2193  0340  0843               	movf	(?___flsub+2)^(0+128),w
  2194  0341  00CB               	movwf	(floattostr_@numero_+2)^(0+128)
  2195  0342  0842               	movf	(?___flsub+1)^(0+128),w
  2196  0343  00CA               	movwf	(floattostr_@numero_+1)^(0+128)
  2197  0344  0841               	movf	?___flsub^(0+128),w
  2198  0345  00C9               	movwf	floattostr_@numero_^(0+128)
  2199  0346                     l2993:
  2200                           
  2201                           ;main.c: 226:   numero_ = numero_*10.0;
  2202  0346  3041               	movlw	65
  2203  0347  1283               	bcf	3,5	;RP0=0, select bank0
  2204  0348  1303               	bcf	3,6	;RP1=0, select bank0
  2205  0349  00A9               	movwf	___flmul@b+3
  2206  034A  3020               	movlw	32
  2207  034B  00A8               	movwf	___flmul@b+2
  2208  034C  3000               	movlw	0
  2209  034D  00A7               	movwf	___flmul@b+1
  2210  034E  3000               	movlw	0
  2211  034F  00A6               	movwf	___flmul@b
  2212  0350  1683               	bsf	3,5	;RP0=1, select bank1
  2213  0351  1303               	bcf	3,6	;RP1=0, select bank1
  2214  0352  084C               	movf	(floattostr_@numero_+3)^(0+128),w
  2215  0353  1283               	bcf	3,5	;RP0=0, select bank0
  2216  0354  1303               	bcf	3,6	;RP1=0, select bank0
  2217  0355  00AD               	movwf	___flmul@a+3
  2218  0356  1683               	bsf	3,5	;RP0=1, select bank1
  2219  0357  1303               	bcf	3,6	;RP1=0, select bank1
  2220  0358  084B               	movf	(floattostr_@numero_+2)^(0+128),w
  2221  0359  1283               	bcf	3,5	;RP0=0, select bank0
  2222  035A  1303               	bcf	3,6	;RP1=0, select bank0
  2223  035B  00AC               	movwf	___flmul@a+2
  2224  035C  1683               	bsf	3,5	;RP0=1, select bank1
  2225  035D  1303               	bcf	3,6	;RP1=0, select bank1
  2226  035E  084A               	movf	(floattostr_@numero_+1)^(0+128),w
  2227  035F  1283               	bcf	3,5	;RP0=0, select bank0
  2228  0360  1303               	bcf	3,6	;RP1=0, select bank0
  2229  0361  00AB               	movwf	___flmul@a+1
  2230  0362  1683               	bsf	3,5	;RP0=1, select bank1
  2231  0363  1303               	bcf	3,6	;RP1=0, select bank1
  2232  0364  0849               	movf	floattostr_@numero_^(0+128),w
  2233  0365  1283               	bcf	3,5	;RP0=0, select bank0
  2234  0366  1303               	bcf	3,6	;RP1=0, select bank0
  2235  0367  00AA               	movwf	___flmul@a
  2236  0368  120A  118A  23A8  120A  118A  	fcall	___flmul
  2237  036D  1283               	bcf	3,5	;RP0=0, select bank0
  2238  036E  1303               	bcf	3,6	;RP1=0, select bank0
  2239  036F  0829               	movf	?___flmul+3,w
  2240  0370  1683               	bsf	3,5	;RP0=1, select bank1
  2241  0371  1303               	bcf	3,6	;RP1=0, select bank1
  2242  0372  00CC               	movwf	(floattostr_@numero_+3)^(0+128)
  2243  0373  1283               	bcf	3,5	;RP0=0, select bank0
  2244  0374  1303               	bcf	3,6	;RP1=0, select bank0
  2245  0375  0828               	movf	?___flmul+2,w
  2246  0376  1683               	bsf	3,5	;RP0=1, select bank1
  2247  0377  1303               	bcf	3,6	;RP1=0, select bank1
  2248  0378  00CB               	movwf	(floattostr_@numero_+2)^(0+128)
  2249  0379  1283               	bcf	3,5	;RP0=0, select bank0
  2250  037A  1303               	bcf	3,6	;RP1=0, select bank0
  2251  037B  0827               	movf	?___flmul+1,w
  2252  037C  1683               	bsf	3,5	;RP0=1, select bank1
  2253  037D  1303               	bcf	3,6	;RP1=0, select bank1
  2254  037E  00CA               	movwf	(floattostr_@numero_+1)^(0+128)
  2255  037F  1283               	bcf	3,5	;RP0=0, select bank0
  2256  0380  1303               	bcf	3,6	;RP1=0, select bank0
  2257  0381  0826               	movf	?___flmul,w
  2258  0382  1683               	bsf	3,5	;RP0=1, select bank1
  2259  0383  1303               	bcf	3,6	;RP1=0, select bank1
  2260  0384  00C9               	movwf	floattostr_@numero_^(0+128)
  2261  0385                     l2995:
  2262                           
  2263                           ;main.c: 227:   }
  2264  0385  3001               	movlw	1
  2265  0386  07D7               	addwf	floattostr_@cont_for^(0+128),f
  2266  0387  1803               	skipnc
  2267  0388  0AD8               	incf	(floattostr_@cont_for+1)^(0+128),f
  2268  0389  3000               	movlw	0
  2269  038A  07D8               	addwf	(floattostr_@cont_for+1)^(0+128),f
  2270  038B                     l2997:
  2271  038B  0858               	movf	(floattostr_@cont_for+1)^(0+128),w
  2272  038C  3A80               	xorlw	128
  2273  038D  1283               	bcf	3,5	;RP0=0, select bank0
  2274  038E  1303               	bcf	3,6	;RP1=0, select bank0
  2275  038F  00EE               	movwf	??_floattostr_
  2276  0390  1683               	bsf	3,5	;RP0=1, select bank1
  2277  0391  1303               	bcf	3,6	;RP1=0, select bank1
  2278  0392  0856               	movf	(floattostr_@largo_n+1)^(0+128),w
  2279  0393  3A80               	xorlw	128
  2280  0394  1283               	bcf	3,5	;RP0=0, select bank0
  2281  0395  1303               	bcf	3,6	;RP1=0, select bank0
  2282  0396  026E               	subwf	??_floattostr_,w
  2283  0397  1D03               	skipz
  2284  0398  2B9D               	goto	u4255
  2285  0399  1683               	bsf	3,5	;RP0=1, select bank1
  2286  039A  1303               	bcf	3,6	;RP1=0, select bank1
  2287  039B  0855               	movf	floattostr_@largo_n^(0+128),w
  2288  039C  0257               	subwf	floattostr_@cont_for^(0+128),w
  2289  039D                     u4255:
  2290  039D  1C03               	skipc
  2291  039E  2BA0               	goto	u4251
  2292  039F  2BA1               	goto	u4250
  2293  03A0                     u4251:
  2294  03A0  2AC9               	goto	l2979
  2295  03A1                     u4250:
  2296  03A1                     l2999:
  2297                           
  2298                           ;main.c: 228: *cadena_ =0;
  2299  03A1  1683               	bsf	3,5	;RP0=1, select bank1
  2300  03A2  1303               	bcf	3,6	;RP1=0, select bank1
  2301  03A3  084D               	movf	floattostr_@cadena_^(0+128),w
  2302  03A4  0084               	movwf	4
  2303  03A5  1383               	bcf	3,7	;select IRP bank0
  2304  03A6  0180               	clrf	0
  2305  03A7                     l135:
  2306  03A7  0008               	return
  2307  03A8                     __end_of_floattostr_:
  2308                           
  2309                           	psect	text3
  2310  0ADF                     __ptext3:	
  2311 ;; *************** function ___xxtofl *****************
  2312 ;; Defined at:
  2313 ;;		line 10 in file "C:\Program Files\Microchip\xc8\v2.31\pic\sources\c90\common\xxtofl.c"
  2314 ;; Parameters:    Size  Location     Type
  2315 ;;  sign            1    wreg     unsigned char 
  2316 ;;  val             4    2[COMMON] long 
  2317 ;; Auto vars:     Size  Location     Type
  2318 ;;  sign            1    0[BANK0 ] unsigned char 
  2319 ;;  arg             4    2[BANK0 ] unsigned long 
  2320 ;;  exp             1    1[BANK0 ] unsigned char 
  2321 ;; Return value:  Size  Location     Type
  2322 ;;                  4    2[COMMON] unsigned char 
  2323 ;; Registers used:
  2324 ;;		wreg, status,2, status,0
  2325 ;; Tracked objects:
  2326 ;;		On entry : 0/0
  2327 ;;		On exit  : 0/0
  2328 ;;		Unchanged: 0/0
  2329 ;; Data sizes:     COMMON   BANK0   BANK1   BANK3   BANK2
  2330 ;;      Params:         4       0       0       0       0
  2331 ;;      Locals:         0       6       0       0       0
  2332 ;;      Temps:          4       0       0       0       0
  2333 ;;      Totals:         8       6       0       0       0
  2334 ;;Total ram usage:       14 bytes
  2335 ;; Hardware stack levels used:    1
  2336 ;; Hardware stack levels required when called:    1
  2337 ;; This function calls:
  2338 ;;		Nothing
  2339 ;; This function is called by:
  2340 ;;		_main
  2341 ;;		_floattostr_
  2342 ;; This function uses a non-reentrant model
  2343 ;;
  2344                           
  2345                           
  2346                           ;psect for function ___xxtofl
  2347  0ADF                     ___xxtofl:
  2348                           
  2349                           ;incstack = 0
  2350                           ; Regs used in ___xxtofl: [wreg+status,2+status,0]
  2351                           ;___xxtofl@sign stored from wreg
  2352  0ADF  1283               	bcf	3,5	;RP0=0, select bank0
  2353  0AE0  1303               	bcf	3,6	;RP1=0, select bank0
  2354  0AE1  00A0               	movwf	___xxtofl@sign
  2355  0AE2                     l2393:
  2356  0AE2  0820               	movf	___xxtofl@sign,w
  2357  0AE3  1903               	btfsc	3,2
  2358  0AE4  2AE6               	goto	u3161
  2359  0AE5  2AE7               	goto	u3160
  2360  0AE6                     u3161:
  2361  0AE6  2AFB               	goto	l2399
  2362  0AE7                     u3160:
  2363  0AE7                     l2395:
  2364  0AE7  1FF5               	btfss	___xxtofl@val+3,7
  2365  0AE8  2AEA               	goto	u3171
  2366  0AE9  2AEB               	goto	u3170
  2367  0AEA                     u3171:
  2368  0AEA  2AFB               	goto	l2399
  2369  0AEB                     u3170:
  2370  0AEB                     l2397:
  2371  0AEB  0972               	comf	___xxtofl@val,w
  2372  0AEC  00A2               	movwf	___xxtofl@arg
  2373  0AED  0973               	comf	___xxtofl@val+1,w
  2374  0AEE  00A3               	movwf	___xxtofl@arg+1
  2375  0AEF  0974               	comf	___xxtofl@val+2,w
  2376  0AF0  00A4               	movwf	___xxtofl@arg+2
  2377  0AF1  0975               	comf	___xxtofl@val+3,w
  2378  0AF2  00A5               	movwf	___xxtofl@arg+3
  2379  0AF3  0AA2               	incf	___xxtofl@arg,f
  2380  0AF4  1903               	skipnz
  2381  0AF5  0AA3               	incf	___xxtofl@arg+1,f
  2382  0AF6  1903               	skipnz
  2383  0AF7  0AA4               	incf	___xxtofl@arg+2,f
  2384  0AF8  1903               	skipnz
  2385  0AF9  0AA5               	incf	___xxtofl@arg+3,f
  2386  0AFA  2B03               	goto	l764
  2387  0AFB                     l2399:
  2388  0AFB  0875               	movf	___xxtofl@val+3,w
  2389  0AFC  00A5               	movwf	___xxtofl@arg+3
  2390  0AFD  0874               	movf	___xxtofl@val+2,w
  2391  0AFE  00A4               	movwf	___xxtofl@arg+2
  2392  0AFF  0873               	movf	___xxtofl@val+1,w
  2393  0B00  00A3               	movwf	___xxtofl@arg+1
  2394  0B01  0872               	movf	___xxtofl@val,w
  2395  0B02  00A2               	movwf	___xxtofl@arg
  2396  0B03                     l764:
  2397  0B03  0875               	movf	___xxtofl@val+3,w
  2398  0B04  0474               	iorwf	___xxtofl@val+2,w
  2399  0B05  0473               	iorwf	___xxtofl@val+1,w
  2400  0B06  0472               	iorwf	___xxtofl@val,w
  2401  0B07  1D03               	skipz
  2402  0B08  2B0A               	goto	u3181
  2403  0B09  2B0B               	goto	u3180
  2404  0B0A                     u3181:
  2405  0B0A  2B14               	goto	l2405
  2406  0B0B                     u3180:
  2407  0B0B                     l2401:
  2408  0B0B  3000               	movlw	0
  2409  0B0C  00F5               	movwf	?___xxtofl+3
  2410  0B0D  3000               	movlw	0
  2411  0B0E  00F4               	movwf	?___xxtofl+2
  2412  0B0F  3000               	movlw	0
  2413  0B10  00F3               	movwf	?___xxtofl+1
  2414  0B11  3000               	movlw	0
  2415  0B12  00F2               	movwf	?___xxtofl
  2416  0B13  2B9A               	goto	l766
  2417  0B14                     l2405:
  2418  0B14  3096               	movlw	150
  2419  0B15  00F6               	movwf	??___xxtofl
  2420  0B16  0876               	movf	??___xxtofl,w
  2421  0B17  00A1               	movwf	___xxtofl@exp
  2422  0B18  2B26               	goto	l2409
  2423  0B19                     l2407:
  2424  0B19  3001               	movlw	1
  2425  0B1A  00F6               	movwf	??___xxtofl
  2426  0B1B  0876               	movf	??___xxtofl,w
  2427  0B1C  07A1               	addwf	___xxtofl@exp,f
  2428  0B1D  3001               	movlw	1
  2429  0B1E                     u3195:
  2430  0B1E  1003               	clrc
  2431  0B1F  0CA5               	rrf	___xxtofl@arg+3,f
  2432  0B20  0CA4               	rrf	___xxtofl@arg+2,f
  2433  0B21  0CA3               	rrf	___xxtofl@arg+1,f
  2434  0B22  0CA2               	rrf	___xxtofl@arg,f
  2435  0B23  3EFF               	addlw	-1
  2436  0B24  1D03               	skipz
  2437  0B25  2B1E               	goto	u3195
  2438  0B26                     l2409:
  2439  0B26  30FE               	movlw	254
  2440  0B27  0525               	andwf	___xxtofl@arg+3,w
  2441  0B28  1D03               	btfss	3,2
  2442  0B29  2B2B               	goto	u3201
  2443  0B2A  2B2C               	goto	u3200
  2444  0B2B                     u3201:
  2445  0B2B  2B19               	goto	l2407
  2446  0B2C                     u3200:
  2447  0B2C  2B48               	goto	l770
  2448  0B2D                     l2411:
  2449  0B2D  3001               	movlw	1
  2450  0B2E  00F6               	movwf	??___xxtofl
  2451  0B2F  0876               	movf	??___xxtofl,w
  2452  0B30  07A1               	addwf	___xxtofl@exp,f
  2453  0B31                     l2413:
  2454  0B31  3001               	movlw	1
  2455  0B32  07A2               	addwf	___xxtofl@arg,f
  2456  0B33  3000               	movlw	0
  2457  0B34  1803               	skipnc
  2458  0B35  3001               	movlw	1
  2459  0B36  07A3               	addwf	___xxtofl@arg+1,f
  2460  0B37  3000               	movlw	0
  2461  0B38  1803               	skipnc
  2462  0B39  3001               	movlw	1
  2463  0B3A  07A4               	addwf	___xxtofl@arg+2,f
  2464  0B3B  3000               	movlw	0
  2465  0B3C  1803               	skipnc
  2466  0B3D  3001               	movlw	1
  2467  0B3E  07A5               	addwf	___xxtofl@arg+3,f
  2468  0B3F                     l2415:
  2469  0B3F  3001               	movlw	1
  2470  0B40                     u3215:
  2471  0B40  1003               	clrc
  2472  0B41  0CA5               	rrf	___xxtofl@arg+3,f
  2473  0B42  0CA4               	rrf	___xxtofl@arg+2,f
  2474  0B43  0CA3               	rrf	___xxtofl@arg+1,f
  2475  0B44  0CA2               	rrf	___xxtofl@arg,f
  2476  0B45  3EFF               	addlw	-1
  2477  0B46  1D03               	skipz
  2478  0B47  2B40               	goto	u3215
  2479  0B48                     l770:
  2480  0B48  30FF               	movlw	255
  2481  0B49  0525               	andwf	___xxtofl@arg+3,w
  2482  0B4A  1D03               	btfss	3,2
  2483  0B4B  2B4D               	goto	u3221
  2484  0B4C  2B4E               	goto	u3220
  2485  0B4D                     u3221:
  2486  0B4D  2B2D               	goto	l2411
  2487  0B4E                     u3220:
  2488  0B4E  2B5A               	goto	l2419
  2489  0B4F                     l2417:
  2490  0B4F  3001               	movlw	1
  2491  0B50  02A1               	subwf	___xxtofl@exp,f
  2492  0B51  3001               	movlw	1
  2493  0B52  00F6               	movwf	??___xxtofl
  2494  0B53                     u3235:
  2495  0B53  1003               	clrc
  2496  0B54  0DA2               	rlf	___xxtofl@arg,f
  2497  0B55  0DA3               	rlf	___xxtofl@arg+1,f
  2498  0B56  0DA4               	rlf	___xxtofl@arg+2,f
  2499  0B57  0DA5               	rlf	___xxtofl@arg+3,f
  2500  0B58  0BF6               	decfsz	??___xxtofl,f
  2501  0B59  2B53               	goto	u3235
  2502  0B5A                     l2419:
  2503  0B5A  1BA4               	btfsc	___xxtofl@arg+2,7
  2504  0B5B  2B5D               	goto	u3241
  2505  0B5C  2B5E               	goto	u3240
  2506  0B5D                     u3241:
  2507  0B5D  2B64               	goto	l777
  2508  0B5E                     u3240:
  2509  0B5E                     l2421:
  2510  0B5E  3002               	movlw	2
  2511  0B5F  0221               	subwf	___xxtofl@exp,w
  2512  0B60  1803               	skipnc
  2513  0B61  2B63               	goto	u3251
  2514  0B62  2B64               	goto	u3250
  2515  0B63                     u3251:
  2516  0B63  2B4F               	goto	l2417
  2517  0B64                     u3250:
  2518  0B64                     l777:
  2519  0B64  1821               	btfsc	___xxtofl@exp,0
  2520  0B65  2B67               	goto	u3261
  2521  0B66  2B68               	goto	u3260
  2522  0B67                     u3261:
  2523  0B67  2B70               	goto	l778
  2524  0B68                     u3260:
  2525  0B68                     l2423:
  2526  0B68  30FF               	movlw	255
  2527  0B69  05A2               	andwf	___xxtofl@arg,f
  2528  0B6A  30FF               	movlw	255
  2529  0B6B  05A3               	andwf	___xxtofl@arg+1,f
  2530  0B6C  307F               	movlw	127
  2531  0B6D  05A4               	andwf	___xxtofl@arg+2,f
  2532  0B6E  30FF               	movlw	255
  2533  0B6F  05A5               	andwf	___xxtofl@arg+3,f
  2534  0B70                     l778:
  2535  0B70  1003               	clrc
  2536  0B71  0CA1               	rrf	___xxtofl@exp,f
  2537  0B72                     l2425:
  2538  0B72  0821               	movf	___xxtofl@exp,w
  2539  0B73  00F6               	movwf	??___xxtofl
  2540  0B74  01F7               	clrf	??___xxtofl+1
  2541  0B75  01F8               	clrf	??___xxtofl+2
  2542  0B76  01F9               	clrf	??___xxtofl+3
  2543  0B77  3018               	movlw	24
  2544  0B78                     u3275:
  2545  0B78  1003               	clrc
  2546  0B79  0DF6               	rlf	??___xxtofl,f
  2547  0B7A  0DF7               	rlf	??___xxtofl+1,f
  2548  0B7B  0DF8               	rlf	??___xxtofl+2,f
  2549  0B7C  0DF9               	rlf	??___xxtofl+3,f
  2550  0B7D                     u3270:
  2551  0B7D  3EFF               	addlw	-1
  2552  0B7E  1D03               	skipz
  2553  0B7F  2B78               	goto	u3275
  2554  0B80  0876               	movf	??___xxtofl,w
  2555  0B81  04A2               	iorwf	___xxtofl@arg,f
  2556  0B82  0877               	movf	??___xxtofl+1,w
  2557  0B83  04A3               	iorwf	___xxtofl@arg+1,f
  2558  0B84  0878               	movf	??___xxtofl+2,w
  2559  0B85  04A4               	iorwf	___xxtofl@arg+2,f
  2560  0B86  0879               	movf	??___xxtofl+3,w
  2561  0B87  04A5               	iorwf	___xxtofl@arg+3,f
  2562  0B88                     l2427:
  2563  0B88  0820               	movf	___xxtofl@sign,w
  2564  0B89  1903               	btfsc	3,2
  2565  0B8A  2B8C               	goto	u3281
  2566  0B8B  2B8D               	goto	u3280
  2567  0B8C                     u3281:
  2568  0B8C  2B92               	goto	l2433
  2569  0B8D                     u3280:
  2570  0B8D                     l2429:
  2571  0B8D  1FF5               	btfss	___xxtofl@val+3,7
  2572  0B8E  2B90               	goto	u3291
  2573  0B8F  2B91               	goto	u3290
  2574  0B90                     u3291:
  2575  0B90  2B92               	goto	l2433
  2576  0B91                     u3290:
  2577  0B91                     l2431:
  2578  0B91  17A5               	bsf	___xxtofl@arg+3,7
  2579  0B92                     l2433:
  2580  0B92  0825               	movf	___xxtofl@arg+3,w
  2581  0B93  00F5               	movwf	?___xxtofl+3
  2582  0B94  0824               	movf	___xxtofl@arg+2,w
  2583  0B95  00F4               	movwf	?___xxtofl+2
  2584  0B96  0823               	movf	___xxtofl@arg+1,w
  2585  0B97  00F3               	movwf	?___xxtofl+1
  2586  0B98  0822               	movf	___xxtofl@arg,w
  2587  0B99  00F2               	movwf	?___xxtofl
  2588  0B9A                     l766:
  2589  0B9A  0008               	return
  2590  0B9B                     __end_of___xxtofl:
  2591                           
  2592                           	psect	text4
  2593  09BF                     __ptext4:	
  2594 ;; *************** function ___fltol *****************
  2595 ;; Defined at:
  2596 ;;		line 43 in file "C:\Program Files\Microchip\xc8\v2.31\pic\sources\c90\common\fltol.c"
  2597 ;; Parameters:    Size  Location     Type
  2598 ;;  f1              4    2[COMMON] unsigned char 
  2599 ;; Auto vars:     Size  Location     Type
  2600 ;;  exp1            1    7[COMMON] unsigned char 
  2601 ;;  sign1           1    6[COMMON] unsigned char 
  2602 ;; Return value:  Size  Location     Type
  2603 ;;                  4    2[COMMON] long 
  2604 ;; Registers used:
  2605 ;;		wreg, status,2, status,0
  2606 ;; Tracked objects:
  2607 ;;		On entry : 0/0
  2608 ;;		On exit  : 0/0
  2609 ;;		Unchanged: 0/0
  2610 ;; Data sizes:     COMMON   BANK0   BANK1   BANK3   BANK2
  2611 ;;      Params:         4       0       0       0       0
  2612 ;;      Locals:         2       0       0       0       0
  2613 ;;      Temps:          0       5       0       0       0
  2614 ;;      Totals:         6       5       0       0       0
  2615 ;;Total ram usage:       11 bytes
  2616 ;; Hardware stack levels used:    1
  2617 ;; Hardware stack levels required when called:    1
  2618 ;; This function calls:
  2619 ;;		Nothing
  2620 ;; This function is called by:
  2621 ;;		_floattostr_
  2622 ;; This function uses a non-reentrant model
  2623 ;;
  2624                           
  2625                           
  2626                           ;psect for function ___fltol
  2627  09BF                     ___fltol:
  2628  09BF                     l2727:	
  2629                           ;incstack = 0
  2630                           ; Regs used in ___fltol: [wreg+status,2+status,0]
  2631                           
  2632  09BF  1003               	clrc
  2633  09C0  0D74               	rlf	___fltol@f1+2,w
  2634  09C1  0D75               	rlf	___fltol@f1+3,w
  2635  09C2  1283               	bcf	3,5	;RP0=0, select bank0
  2636  09C3  1303               	bcf	3,6	;RP1=0, select bank0
  2637  09C4  00A0               	movwf	??___fltol
  2638  09C5  0820               	movf	??___fltol,w
  2639  09C6  00F7               	movwf	___fltol@exp1
  2640  09C7  0877               	movf	___fltol@exp1,w
  2641  09C8  1D03               	btfss	3,2
  2642  09C9  29CB               	goto	u3651
  2643  09CA  29CC               	goto	u3650
  2644  09CB                     u3651:
  2645  09CB  29D5               	goto	l2733
  2646  09CC                     u3650:
  2647  09CC                     l2729:
  2648  09CC  3000               	movlw	0
  2649  09CD  00F5               	movwf	?___fltol+3
  2650  09CE  3000               	movlw	0
  2651  09CF  00F4               	movwf	?___fltol+2
  2652  09D0  3000               	movlw	0
  2653  09D1  00F3               	movwf	?___fltol+1
  2654  09D2  3000               	movlw	0
  2655  09D3  00F2               	movwf	?___fltol
  2656  09D4  2A3A               	goto	l517
  2657  09D5                     l2733:
  2658  09D5  0872               	movf	___fltol@f1,w
  2659  09D6  00A0               	movwf	??___fltol
  2660  09D7  0873               	movf	___fltol@f1+1,w
  2661  09D8  00A1               	movwf	??___fltol+1
  2662  09D9  0874               	movf	___fltol@f1+2,w
  2663  09DA  00A2               	movwf	??___fltol+2
  2664  09DB  0875               	movf	___fltol@f1+3,w
  2665  09DC  00A3               	movwf	??___fltol+3
  2666  09DD  301F               	movlw	31
  2667  09DE                     u3665:
  2668  09DE  1003               	clrc
  2669  09DF  0CA3               	rrf	??___fltol+3,f
  2670  09E0  0CA2               	rrf	??___fltol+2,f
  2671  09E1  0CA1               	rrf	??___fltol+1,f
  2672  09E2  0CA0               	rrf	??___fltol,f
  2673  09E3                     u3660:
  2674  09E3  3EFF               	addlw	-1
  2675  09E4  1D03               	skipz
  2676  09E5  29DE               	goto	u3665
  2677  09E6  0820               	movf	??___fltol,w
  2678  09E7  00A4               	movwf	??___fltol+4
  2679  09E8  0824               	movf	??___fltol+4,w
  2680  09E9  00F6               	movwf	___fltol@sign1
  2681  09EA                     l2735:
  2682  09EA  17F4               	bsf	___fltol@f1+2,7
  2683  09EB                     l2737:
  2684  09EB  30FF               	movlw	255
  2685  09EC  05F2               	andwf	___fltol@f1,f
  2686  09ED  30FF               	movlw	255
  2687  09EE  05F3               	andwf	___fltol@f1+1,f
  2688  09EF  30FF               	movlw	255
  2689  09F0  05F4               	andwf	___fltol@f1+2,f
  2690  09F1  3000               	movlw	0
  2691  09F2  05F5               	andwf	___fltol@f1+3,f
  2692  09F3                     l2739:
  2693  09F3  3096               	movlw	150
  2694  09F4  02F7               	subwf	___fltol@exp1,f
  2695  09F5                     l2741:
  2696  09F5  1FF7               	btfss	___fltol@exp1,7
  2697  09F6  29F8               	goto	u3671
  2698  09F7  29F9               	goto	u3670
  2699  09F8                     u3671:
  2700  09F8  2A13               	goto	l2751
  2701  09F9                     u3670:
  2702  09F9                     l2743:
  2703  09F9  0877               	movf	___fltol@exp1,w
  2704  09FA  3A80               	xorlw	128
  2705  09FB  3E97               	addlw	151
  2706  09FC  1803               	skipnc
  2707  09FD  29FF               	goto	u3681
  2708  09FE  2A00               	goto	u3680
  2709  09FF                     u3681:
  2710  09FF  2A01               	goto	l2749
  2711  0A00                     u3680:
  2712  0A00  29CC               	goto	l2729
  2713  0A01                     l2749:
  2714  0A01  3001               	movlw	1
  2715  0A02                     u3695:
  2716  0A02  1003               	clrc
  2717  0A03  0CF5               	rrf	___fltol@f1+3,f
  2718  0A04  0CF4               	rrf	___fltol@f1+2,f
  2719  0A05  0CF3               	rrf	___fltol@f1+1,f
  2720  0A06  0CF2               	rrf	___fltol@f1,f
  2721  0A07  3EFF               	addlw	-1
  2722  0A08  1D03               	skipz
  2723  0A09  2A02               	goto	u3695
  2724  0A0A  3001               	movlw	1
  2725  0A0B  00A0               	movwf	??___fltol
  2726  0A0C  0820               	movf	??___fltol,w
  2727  0A0D  07F7               	addwf	___fltol@exp1,f
  2728  0A0E  1D03               	btfss	3,2
  2729  0A0F  2A11               	goto	u3701
  2730  0A10  2A12               	goto	u3700
  2731  0A11                     u3701:
  2732  0A11  2A01               	goto	l2749
  2733  0A12                     u3700:
  2734  0A12  2A2A               	goto	l2759
  2735  0A13                     l2751:
  2736  0A13  3020               	movlw	32
  2737  0A14  0277               	subwf	___fltol@exp1,w
  2738  0A15  1C03               	skipc
  2739  0A16  2A18               	goto	u3711
  2740  0A17  2A19               	goto	u3710
  2741  0A18                     u3711:
  2742  0A18  2A25               	goto	l524
  2743  0A19                     u3710:
  2744  0A19  29CC               	goto	l2729
  2745  0A1A                     l2757:
  2746  0A1A  3001               	movlw	1
  2747  0A1B  00A0               	movwf	??___fltol
  2748  0A1C                     u3725:
  2749  0A1C  1003               	clrc
  2750  0A1D  0DF2               	rlf	___fltol@f1,f
  2751  0A1E  0DF3               	rlf	___fltol@f1+1,f
  2752  0A1F  0DF4               	rlf	___fltol@f1+2,f
  2753  0A20  0DF5               	rlf	___fltol@f1+3,f
  2754  0A21  0BA0               	decfsz	??___fltol,f
  2755  0A22  2A1C               	goto	u3725
  2756  0A23  3001               	movlw	1
  2757  0A24  02F7               	subwf	___fltol@exp1,f
  2758  0A25                     l524:
  2759  0A25  0877               	movf	___fltol@exp1,w
  2760  0A26  1D03               	btfss	3,2
  2761  0A27  2A29               	goto	u3731
  2762  0A28  2A2A               	goto	u3730
  2763  0A29                     u3731:
  2764  0A29  2A1A               	goto	l2757
  2765  0A2A                     u3730:
  2766  0A2A                     l2759:
  2767  0A2A  0876               	movf	___fltol@sign1,w
  2768  0A2B  1903               	btfsc	3,2
  2769  0A2C  2A2E               	goto	u3741
  2770  0A2D  2A2F               	goto	u3740
  2771  0A2E                     u3741:
  2772  0A2E  2A3A               	goto	l527
  2773  0A2F                     u3740:
  2774  0A2F                     l2761:
  2775  0A2F  09F2               	comf	___fltol@f1,f
  2776  0A30  09F3               	comf	___fltol@f1+1,f
  2777  0A31  09F4               	comf	___fltol@f1+2,f
  2778  0A32  09F5               	comf	___fltol@f1+3,f
  2779  0A33  0AF2               	incf	___fltol@f1,f
  2780  0A34  1903               	skipnz
  2781  0A35  0AF3               	incf	___fltol@f1+1,f
  2782  0A36  1903               	skipnz
  2783  0A37  0AF4               	incf	___fltol@f1+2,f
  2784  0A38  1903               	skipnz
  2785  0A39  0AF5               	incf	___fltol@f1+3,f
  2786  0A3A                     l527:
  2787  0A3A                     l517:
  2788  0A3A  0008               	return
  2789  0A3B                     __end_of___fltol:
  2790                           
  2791                           	psect	text5
  2792  08BA                     __ptext5:	
  2793 ;; *************** function ___flsub *****************
  2794 ;; Defined at:
  2795 ;;		line 242 in file "C:\Program Files\Microchip\xc8\v2.31\pic\sources\c90\common\sprcadd.c"
  2796 ;; Parameters:    Size  Location     Type
  2797 ;;  a               4    0[BANK1 ] long 
  2798 ;;  b               4    4[BANK1 ] long 
  2799 ;; Auto vars:     Size  Location     Type
  2800 ;;		None
  2801 ;; Return value:  Size  Location     Type
  2802 ;;                  4    0[BANK1 ] long 
  2803 ;; Registers used:
  2804 ;;		wreg, status,2, status,0, btemp+1, pclath, cstack
  2805 ;; Tracked objects:
  2806 ;;		On entry : 0/0
  2807 ;;		On exit  : 0/0
  2808 ;;		Unchanged: 0/0
  2809 ;; Data sizes:     COMMON   BANK0   BANK1   BANK3   BANK2
  2810 ;;      Params:         0       0       8       0       0
  2811 ;;      Locals:         0       0       0       0       0
  2812 ;;      Temps:          0       0       0       0       0
  2813 ;;      Totals:         0       0       8       0       0
  2814 ;;Total ram usage:        8 bytes
  2815 ;; Hardware stack levels used:    1
  2816 ;; Hardware stack levels required when called:    2
  2817 ;; This function calls:
  2818 ;;		___fladd
  2819 ;; This function is called by:
  2820 ;;		_floattostr_
  2821 ;; This function uses a non-reentrant model
  2822 ;;
  2823                           
  2824                           
  2825                           ;psect for function ___flsub
  2826  08BA                     ___flsub:
  2827  08BA                     l2105:	
  2828                           ;incstack = 0
  2829                           ; Regs used in ___flsub: [wreg+status,2+status,0+btemp+1+pclath+cstack]
  2830                           
  2831  08BA  3080               	movlw	128
  2832  08BB  1683               	bsf	3,5	;RP0=1, select bank1
  2833  08BC  1303               	bcf	3,6	;RP1=0, select bank1
  2834  08BD  06C4               	xorwf	(___flsub@a+3)^(0+128),f
  2835  08BE                     l2107:
  2836  08BE  0848               	movf	(___flsub@b+3)^(0+128),w
  2837  08BF  1283               	bcf	3,5	;RP0=0, select bank0
  2838  08C0  1303               	bcf	3,6	;RP1=0, select bank0
  2839  08C1  00DD               	movwf	___fladd@b+3
  2840  08C2  1683               	bsf	3,5	;RP0=1, select bank1
  2841  08C3  1303               	bcf	3,6	;RP1=0, select bank1
  2842  08C4  0847               	movf	(___flsub@b+2)^(0+128),w
  2843  08C5  1283               	bcf	3,5	;RP0=0, select bank0
  2844  08C6  1303               	bcf	3,6	;RP1=0, select bank0
  2845  08C7  00DC               	movwf	___fladd@b+2
  2846  08C8  1683               	bsf	3,5	;RP0=1, select bank1
  2847  08C9  1303               	bcf	3,6	;RP1=0, select bank1
  2848  08CA  0846               	movf	(___flsub@b+1)^(0+128),w
  2849  08CB  1283               	bcf	3,5	;RP0=0, select bank0
  2850  08CC  1303               	bcf	3,6	;RP1=0, select bank0
  2851  08CD  00DB               	movwf	___fladd@b+1
  2852  08CE  1683               	bsf	3,5	;RP0=1, select bank1
  2853  08CF  1303               	bcf	3,6	;RP1=0, select bank1
  2854  08D0  0845               	movf	___flsub@b^(0+128),w
  2855  08D1  1283               	bcf	3,5	;RP0=0, select bank0
  2856  08D2  1303               	bcf	3,6	;RP1=0, select bank0
  2857  08D3  00DA               	movwf	___fladd@b
  2858  08D4  1683               	bsf	3,5	;RP0=1, select bank1
  2859  08D5  1303               	bcf	3,6	;RP1=0, select bank1
  2860  08D6  0844               	movf	(___flsub@a+3)^(0+128),w
  2861  08D7  1283               	bcf	3,5	;RP0=0, select bank0
  2862  08D8  1303               	bcf	3,6	;RP1=0, select bank0
  2863  08D9  00E1               	movwf	___fladd@a+3
  2864  08DA  1683               	bsf	3,5	;RP0=1, select bank1
  2865  08DB  1303               	bcf	3,6	;RP1=0, select bank1
  2866  08DC  0843               	movf	(___flsub@a+2)^(0+128),w
  2867  08DD  1283               	bcf	3,5	;RP0=0, select bank0
  2868  08DE  1303               	bcf	3,6	;RP1=0, select bank0
  2869  08DF  00E0               	movwf	___fladd@a+2
  2870  08E0  1683               	bsf	3,5	;RP0=1, select bank1
  2871  08E1  1303               	bcf	3,6	;RP1=0, select bank1
  2872  08E2  0842               	movf	(___flsub@a+1)^(0+128),w
  2873  08E3  1283               	bcf	3,5	;RP0=0, select bank0
  2874  08E4  1303               	bcf	3,6	;RP1=0, select bank0
  2875  08E5  00DF               	movwf	___fladd@a+1
  2876  08E6  1683               	bsf	3,5	;RP0=1, select bank1
  2877  08E7  1303               	bcf	3,6	;RP1=0, select bank1
  2878  08E8  0841               	movf	___flsub@a^(0+128),w
  2879  08E9  1283               	bcf	3,5	;RP0=0, select bank0
  2880  08EA  1303               	bcf	3,6	;RP1=0, select bank0
  2881  08EB  00DE               	movwf	___fladd@a
  2882  08EC  120A  158A  2578  120A  158A  	fcall	___fladd
  2883  08F1  1283               	bcf	3,5	;RP0=0, select bank0
  2884  08F2  1303               	bcf	3,6	;RP1=0, select bank0
  2885  08F3  085D               	movf	?___fladd+3,w
  2886  08F4  1683               	bsf	3,5	;RP0=1, select bank1
  2887  08F5  1303               	bcf	3,6	;RP1=0, select bank1
  2888  08F6  00C4               	movwf	(?___flsub+3)^(0+128)
  2889  08F7  1283               	bcf	3,5	;RP0=0, select bank0
  2890  08F8  1303               	bcf	3,6	;RP1=0, select bank0
  2891  08F9  085C               	movf	?___fladd+2,w
  2892  08FA  1683               	bsf	3,5	;RP0=1, select bank1
  2893  08FB  1303               	bcf	3,6	;RP1=0, select bank1
  2894  08FC  00C3               	movwf	(?___flsub+2)^(0+128)
  2895  08FD  1283               	bcf	3,5	;RP0=0, select bank0
  2896  08FE  1303               	bcf	3,6	;RP1=0, select bank0
  2897  08FF  085B               	movf	?___fladd+1,w
  2898  0900  1683               	bsf	3,5	;RP0=1, select bank1
  2899  0901  1303               	bcf	3,6	;RP1=0, select bank1
  2900  0902  00C2               	movwf	(?___flsub+1)^(0+128)
  2901  0903  1283               	bcf	3,5	;RP0=0, select bank0
  2902  0904  1303               	bcf	3,6	;RP1=0, select bank0
  2903  0905  085A               	movf	?___fladd,w
  2904  0906  1683               	bsf	3,5	;RP0=1, select bank1
  2905  0907  1303               	bcf	3,6	;RP1=0, select bank1
  2906  0908  00C1               	movwf	?___flsub^(0+128)
  2907  0909                     l670:
  2908  0909  0008               	return
  2909  090A                     __end_of___flsub:
  2910                           
  2911                           	psect	text6
  2912  0D78                     __ptext6:	
  2913 ;; *************** function ___fladd *****************
  2914 ;; Defined at:
  2915 ;;		line 10 in file "C:\Program Files\Microchip\xc8\v2.31\pic\sources\c90\common\sprcadd.c"
  2916 ;; Parameters:    Size  Location     Type
  2917 ;;  b               4   58[BANK0 ] long 
  2918 ;;  a               4   62[BANK0 ] long 
  2919 ;; Auto vars:     Size  Location     Type
  2920 ;;  grs             1   77[BANK0 ] unsigned char 
  2921 ;;  bexp            1   76[BANK0 ] unsigned char 
  2922 ;;  aexp            1   75[BANK0 ] unsigned char 
  2923 ;;  signs           1   74[BANK0 ] unsigned char 
  2924 ;; Return value:  Size  Location     Type
  2925 ;;                  4   58[BANK0 ] unsigned char 
  2926 ;; Registers used:
  2927 ;;		wreg, status,2, status,0, btemp+1
  2928 ;; Tracked objects:
  2929 ;;		On entry : 0/0
  2930 ;;		On exit  : 0/0
  2931 ;;		Unchanged: 0/0
  2932 ;; Data sizes:     COMMON   BANK0   BANK1   BANK3   BANK2
  2933 ;;      Params:         0       8       0       0       0
  2934 ;;      Locals:         0       4       0       0       0
  2935 ;;      Temps:          0       8       0       0       0
  2936 ;;      Totals:         0      20       0       0       0
  2937 ;;Total ram usage:       20 bytes
  2938 ;; Hardware stack levels used:    1
  2939 ;; Hardware stack levels required when called:    1
  2940 ;; This function calls:
  2941 ;;		Nothing
  2942 ;; This function is called by:
  2943 ;;		_floattostr_
  2944 ;;		___flsub
  2945 ;; This function uses a non-reentrant model
  2946 ;;
  2947                           
  2948                           
  2949                           ;psect for function ___fladd
  2950  0D78                     ___fladd:
  2951  0D78                     l1803:	
  2952                           ;incstack = 0
  2953                           ; Regs used in ___fladd: [wreg+status,2+status,0+btemp+1]
  2954                           
  2955  0D78  1283               	bcf	3,5	;RP0=0, select bank0
  2956  0D79  1303               	bcf	3,6	;RP1=0, select bank0
  2957  0D7A  085D               	movf	___fladd@b+3,w
  2958  0D7B  3980               	andlw	128
  2959  0D7C  00E2               	movwf	??___fladd
  2960  0D7D  0862               	movf	??___fladd,w
  2961  0D7E  00EA               	movwf	___fladd@signs
  2962  0D7F                     l1805:
  2963  0D7F  085D               	movf	___fladd@b+3,w
  2964  0D80  00E2               	movwf	??___fladd
  2965  0D81  0762               	addwf	??___fladd,w
  2966  0D82  00E3               	movwf	??___fladd+1
  2967  0D83  0863               	movf	??___fladd+1,w
  2968  0D84  00EC               	movwf	___fladd@bexp
  2969  0D85                     l1807:
  2970  0D85  1FDC               	btfss	___fladd@b+2,7
  2971  0D86  2D88               	goto	u1821
  2972  0D87  2D89               	goto	u1820
  2973  0D88                     u1821:
  2974  0D88  2D8A               	goto	l1811
  2975  0D89                     u1820:
  2976  0D89                     l1809:
  2977  0D89  146C               	bsf	___fladd@bexp,0
  2978  0D8A                     l1811:
  2979  0D8A  086C               	movf	___fladd@bexp,w
  2980  0D8B  1903               	btfsc	3,2
  2981  0D8C  2D8E               	goto	u1831
  2982  0D8D  2D8F               	goto	u1830
  2983  0D8E                     u1831:
  2984  0D8E  2D9F               	goto	l1821
  2985  0D8F                     u1830:
  2986  0D8F                     l1813:
  2987  0D8F  0A6C               	incf	___fladd@bexp,w
  2988  0D90  1D03               	btfss	3,2
  2989  0D91  2D93               	goto	u1841
  2990  0D92  2D94               	goto	u1840
  2991  0D93                     u1841:
  2992  0D93  2D9C               	goto	l1817
  2993  0D94                     u1840:
  2994  0D94                     l1815:
  2995  0D94  3000               	movlw	0
  2996  0D95  00DD               	movwf	___fladd@b+3
  2997  0D96  3000               	movlw	0
  2998  0D97  00DC               	movwf	___fladd@b+2
  2999  0D98  3000               	movlw	0
  3000  0D99  00DB               	movwf	___fladd@b+1
  3001  0D9A  3000               	movlw	0
  3002  0D9B  00DA               	movwf	___fladd@b
  3003  0D9C                     l1817:
  3004  0D9C  17DC               	bsf	___fladd@b+2,7
  3005  0D9D                     l1819:
  3006  0D9D  01DD               	clrf	___fladd@b+3
  3007  0D9E  2DA7               	goto	l1823
  3008  0D9F                     l1821:
  3009  0D9F  3000               	movlw	0
  3010  0DA0  00DD               	movwf	___fladd@b+3
  3011  0DA1  3000               	movlw	0
  3012  0DA2  00DC               	movwf	___fladd@b+2
  3013  0DA3  3000               	movlw	0
  3014  0DA4  00DB               	movwf	___fladd@b+1
  3015  0DA5  3000               	movlw	0
  3016  0DA6  00DA               	movwf	___fladd@b
  3017  0DA7                     l1823:
  3018  0DA7  0861               	movf	___fladd@a+3,w
  3019  0DA8  3980               	andlw	128
  3020  0DA9  00E2               	movwf	??___fladd
  3021  0DAA  0862               	movf	??___fladd,w
  3022  0DAB  00EB               	movwf	___fladd@aexp
  3023  0DAC                     l1825:
  3024  0DAC  086B               	movf	___fladd@aexp,w
  3025  0DAD  066A               	xorwf	___fladd@signs,w
  3026  0DAE  1903               	skipnz
  3027  0DAF  2DB1               	goto	u1851
  3028  0DB0  2DB2               	goto	u1850
  3029  0DB1                     u1851:
  3030  0DB1  2DB3               	goto	l1829
  3031  0DB2                     u1850:
  3032  0DB2                     l1827:
  3033  0DB2  176A               	bsf	___fladd@signs,6
  3034  0DB3                     l1829:
  3035  0DB3  0861               	movf	___fladd@a+3,w
  3036  0DB4  00E2               	movwf	??___fladd
  3037  0DB5  0762               	addwf	??___fladd,w
  3038  0DB6  00E3               	movwf	??___fladd+1
  3039  0DB7  0863               	movf	??___fladd+1,w
  3040  0DB8  00EB               	movwf	___fladd@aexp
  3041  0DB9                     l1831:
  3042  0DB9  1FE0               	btfss	___fladd@a+2,7
  3043  0DBA  2DBC               	goto	u1861
  3044  0DBB  2DBD               	goto	u1860
  3045  0DBC                     u1861:
  3046  0DBC  2DBE               	goto	l1835
  3047  0DBD                     u1860:
  3048  0DBD                     l1833:
  3049  0DBD  146B               	bsf	___fladd@aexp,0
  3050  0DBE                     l1835:
  3051  0DBE  086B               	movf	___fladd@aexp,w
  3052  0DBF  1903               	btfsc	3,2
  3053  0DC0  2DC2               	goto	u1871
  3054  0DC1  2DC3               	goto	u1870
  3055  0DC2                     u1871:
  3056  0DC2  2DD3               	goto	l1845
  3057  0DC3                     u1870:
  3058  0DC3                     l1837:
  3059  0DC3  0A6B               	incf	___fladd@aexp,w
  3060  0DC4  1D03               	btfss	3,2
  3061  0DC5  2DC7               	goto	u1881
  3062  0DC6  2DC8               	goto	u1880
  3063  0DC7                     u1881:
  3064  0DC7  2DD0               	goto	l1841
  3065  0DC8                     u1880:
  3066  0DC8                     l1839:
  3067  0DC8  3000               	movlw	0
  3068  0DC9  00E1               	movwf	___fladd@a+3
  3069  0DCA  3000               	movlw	0
  3070  0DCB  00E0               	movwf	___fladd@a+2
  3071  0DCC  3000               	movlw	0
  3072  0DCD  00DF               	movwf	___fladd@a+1
  3073  0DCE  3000               	movlw	0
  3074  0DCF  00DE               	movwf	___fladd@a
  3075  0DD0                     l1841:
  3076  0DD0  17E0               	bsf	___fladd@a+2,7
  3077  0DD1                     l1843:
  3078  0DD1  01E1               	clrf	___fladd@a+3
  3079  0DD2  2DDB               	goto	l624
  3080  0DD3                     l1845:
  3081  0DD3  3000               	movlw	0
  3082  0DD4  00E1               	movwf	___fladd@a+3
  3083  0DD5  3000               	movlw	0
  3084  0DD6  00E0               	movwf	___fladd@a+2
  3085  0DD7  3000               	movlw	0
  3086  0DD8  00DF               	movwf	___fladd@a+1
  3087  0DD9  3000               	movlw	0
  3088  0DDA  00DE               	movwf	___fladd@a
  3089  0DDB                     l624:
  3090  0DDB  086C               	movf	___fladd@bexp,w
  3091  0DDC  026B               	subwf	___fladd@aexp,w
  3092  0DDD  1803               	skipnc
  3093  0DDE  2DE0               	goto	u1891
  3094  0DDF  2DE1               	goto	u1890
  3095  0DE0                     u1891:
  3096  0DE0  2E25               	goto	l1881
  3097  0DE1                     u1890:
  3098  0DE1                     l1847:
  3099  0DE1  1F6A               	btfss	___fladd@signs,6
  3100  0DE2  2DE4               	goto	u1901
  3101  0DE3  2DE5               	goto	u1900
  3102  0DE4                     u1901:
  3103  0DE4  2DE9               	goto	l1851
  3104  0DE5                     u1900:
  3105  0DE5                     l1849:
  3106  0DE5  3080               	movlw	128
  3107  0DE6  00E2               	movwf	??___fladd
  3108  0DE7  0862               	movf	??___fladd,w
  3109  0DE8  06EA               	xorwf	___fladd@signs,f
  3110  0DE9                     l1851:
  3111  0DE9  086C               	movf	___fladd@bexp,w
  3112  0DEA  00E2               	movwf	??___fladd
  3113  0DEB  0862               	movf	??___fladd,w
  3114  0DEC  00ED               	movwf	___fladd@grs
  3115  0DED                     l1853:
  3116  0DED  086B               	movf	___fladd@aexp,w
  3117  0DEE  00E2               	movwf	??___fladd
  3118  0DEF  0862               	movf	??___fladd,w
  3119  0DF0  00EC               	movwf	___fladd@bexp
  3120  0DF1                     l1855:
  3121  0DF1  086D               	movf	___fladd@grs,w
  3122  0DF2  00E2               	movwf	??___fladd
  3123  0DF3  0862               	movf	??___fladd,w
  3124  0DF4  00EB               	movwf	___fladd@aexp
  3125  0DF5                     l1857:
  3126  0DF5  085A               	movf	___fladd@b,w
  3127  0DF6  00E2               	movwf	??___fladd
  3128  0DF7  0862               	movf	??___fladd,w
  3129  0DF8  00ED               	movwf	___fladd@grs
  3130  0DF9                     l1859:
  3131  0DF9  085E               	movf	___fladd@a,w
  3132  0DFA  00E2               	movwf	??___fladd
  3133  0DFB  0862               	movf	??___fladd,w
  3134  0DFC  00DA               	movwf	___fladd@b
  3135  0DFD                     l1861:
  3136  0DFD  086D               	movf	___fladd@grs,w
  3137  0DFE  00E2               	movwf	??___fladd
  3138  0DFF  0862               	movf	??___fladd,w
  3139  0E00  00DE               	movwf	___fladd@a
  3140  0E01                     l1863:
  3141  0E01  085B               	movf	___fladd@b+1,w
  3142  0E02  00E2               	movwf	??___fladd
  3143  0E03  0862               	movf	??___fladd,w
  3144  0E04  00ED               	movwf	___fladd@grs
  3145  0E05                     l1865:
  3146  0E05  085F               	movf	___fladd@a+1,w
  3147  0E06  00E2               	movwf	??___fladd
  3148  0E07  0862               	movf	??___fladd,w
  3149  0E08  00DB               	movwf	___fladd@b+1
  3150  0E09                     l1867:
  3151  0E09  086D               	movf	___fladd@grs,w
  3152  0E0A  00E2               	movwf	??___fladd
  3153  0E0B  0862               	movf	??___fladd,w
  3154  0E0C  00DF               	movwf	___fladd@a+1
  3155  0E0D                     l1869:
  3156  0E0D  085C               	movf	___fladd@b+2,w
  3157  0E0E  00E2               	movwf	??___fladd
  3158  0E0F  0862               	movf	??___fladd,w
  3159  0E10  00ED               	movwf	___fladd@grs
  3160  0E11                     l1871:
  3161  0E11  0860               	movf	___fladd@a+2,w
  3162  0E12  00E2               	movwf	??___fladd
  3163  0E13  0862               	movf	??___fladd,w
  3164  0E14  00DC               	movwf	___fladd@b+2
  3165  0E15                     l1873:
  3166  0E15  086D               	movf	___fladd@grs,w
  3167  0E16  00E2               	movwf	??___fladd
  3168  0E17  0862               	movf	??___fladd,w
  3169  0E18  00E0               	movwf	___fladd@a+2
  3170  0E19                     l1875:
  3171  0E19  085D               	movf	___fladd@b+3,w
  3172  0E1A  00E2               	movwf	??___fladd
  3173  0E1B  0862               	movf	??___fladd,w
  3174  0E1C  00ED               	movwf	___fladd@grs
  3175  0E1D                     l1877:
  3176  0E1D  0861               	movf	___fladd@a+3,w
  3177  0E1E  00E2               	movwf	??___fladd
  3178  0E1F  0862               	movf	??___fladd,w
  3179  0E20  00DD               	movwf	___fladd@b+3
  3180  0E21                     l1879:
  3181  0E21  086D               	movf	___fladd@grs,w
  3182  0E22  00E2               	movwf	??___fladd
  3183  0E23  0862               	movf	??___fladd,w
  3184  0E24  00E1               	movwf	___fladd@a+3
  3185  0E25                     l1881:
  3186  0E25  01ED               	clrf	___fladd@grs
  3187  0E26                     l1883:
  3188  0E26  086B               	movf	___fladd@aexp,w
  3189  0E27  00E2               	movwf	??___fladd
  3190  0E28  01E3               	clrf	??___fladd+1
  3191  0E29  0863               	movf	??___fladd+1,w
  3192  0E2A  00E5               	movwf	??___fladd+3
  3193  0E2B  086C               	movf	___fladd@bexp,w
  3194  0E2C  0262               	subwf	??___fladd,w
  3195  0E2D  00E4               	movwf	??___fladd+2
  3196  0E2E  1C03               	skipc
  3197  0E2F  03E5               	decf	??___fladd+3,f
  3198  0E30  0865               	movf	??___fladd+3,w
  3199  0E31  3A80               	xorlw	128
  3200  0E32  00FF               	movwf	btemp+1
  3201  0E33  3080               	movlw	128
  3202  0E34  027F               	subwf	btemp+1,w
  3203  0E35  1D03               	skipz
  3204  0E36  2E39               	goto	u1915
  3205  0E37  301A               	movlw	26
  3206  0E38  0264               	subwf	??___fladd+2,w
  3207  0E39                     u1915:
  3208  0E39  1C03               	skipc
  3209  0E3A  2E3C               	goto	u1911
  3210  0E3B  2E3D               	goto	u1910
  3211  0E3C                     u1911:
  3212  0E3C  2E7A               	goto	l1899
  3213  0E3D                     u1910:
  3214  0E3D                     l1885:
  3215  0E3D  1283               	bcf	3,5	;RP0=0, select bank0
  3216  0E3E  1303               	bcf	3,6	;RP1=0, select bank0
  3217  0E3F  085D               	movf	___fladd@b+3,w
  3218  0E40  045C               	iorwf	___fladd@b+2,w
  3219  0E41  045B               	iorwf	___fladd@b+1,w
  3220  0E42  045A               	iorwf	___fladd@b,w
  3221  0E43  1D03               	skipz
  3222  0E44  2E46               	goto	u1921
  3223  0E45  2E48               	goto	u1920
  3224  0E46                     u1921:
  3225  0E46  3001               	movlw	1
  3226  0E47  2E49               	goto	u1930
  3227  0E48                     u1920:
  3228  0E48  3000               	movlw	0
  3229  0E49                     u1930:
  3230  0E49  00E2               	movwf	??___fladd
  3231  0E4A  0862               	movf	??___fladd,w
  3232  0E4B  00ED               	movwf	___fladd@grs
  3233  0E4C  3000               	movlw	0
  3234  0E4D  00DD               	movwf	___fladd@b+3
  3235  0E4E  3000               	movlw	0
  3236  0E4F  00DC               	movwf	___fladd@b+2
  3237  0E50  3000               	movlw	0
  3238  0E51  00DB               	movwf	___fladd@b+1
  3239  0E52  3000               	movlw	0
  3240  0E53  00DA               	movwf	___fladd@b
  3241  0E54  086B               	movf	___fladd@aexp,w
  3242  0E55  00E2               	movwf	??___fladd
  3243  0E56  0862               	movf	??___fladd,w
  3244  0E57  00EC               	movwf	___fladd@bexp
  3245  0E58  2E82               	goto	l628
  3246  0E59                     l630:
  3247  0E59  1C6D               	btfss	___fladd@grs,0
  3248  0E5A  2E5C               	goto	u1941
  3249  0E5B  2E5D               	goto	u1940
  3250  0E5C                     u1941:
  3251  0E5C  2E66               	goto	l1889
  3252  0E5D                     u1940:
  3253  0E5D                     l1887:
  3254  0E5D  086D               	movf	___fladd@grs,w
  3255  0E5E  00E2               	movwf	??___fladd
  3256  0E5F  1003               	clrc
  3257  0E60  0C62               	rrf	??___fladd,w
  3258  0E61  3801               	iorlw	1
  3259  0E62  00E3               	movwf	??___fladd+1
  3260  0E63  0863               	movf	??___fladd+1,w
  3261  0E64  00ED               	movwf	___fladd@grs
  3262  0E65  2E68               	goto	l1891
  3263  0E66                     l1889:
  3264  0E66  1003               	clrc
  3265  0E67  0CED               	rrf	___fladd@grs,f
  3266  0E68                     l1891:
  3267  0E68  1C5A               	btfss	___fladd@b,0
  3268  0E69  2E6B               	goto	u1951
  3269  0E6A  2E6C               	goto	u1950
  3270  0E6B                     u1951:
  3271  0E6B  2E6D               	goto	l1895
  3272  0E6C                     u1950:
  3273  0E6C                     l1893:
  3274  0E6C  17ED               	bsf	___fladd@grs,7
  3275  0E6D                     l1895:
  3276  0E6D  3001               	movlw	1
  3277  0E6E  00E2               	movwf	??___fladd
  3278  0E6F                     u1965:
  3279  0E6F  0D5D               	rlf	___fladd@b+3,w
  3280  0E70  0CDD               	rrf	___fladd@b+3,f
  3281  0E71  0CDC               	rrf	___fladd@b+2,f
  3282  0E72  0CDB               	rrf	___fladd@b+1,f
  3283  0E73  0CDA               	rrf	___fladd@b,f
  3284  0E74  0BE2               	decfsz	??___fladd& (0+127),f
  3285  0E75  2E6F               	goto	u1965
  3286  0E76                     l1897:
  3287  0E76  3001               	movlw	1
  3288  0E77  00E2               	movwf	??___fladd
  3289  0E78  0862               	movf	??___fladd,w
  3290  0E79  07EC               	addwf	___fladd@bexp,f
  3291  0E7A                     l1899:
  3292  0E7A  1283               	bcf	3,5	;RP0=0, select bank0
  3293  0E7B  1303               	bcf	3,6	;RP1=0, select bank0
  3294  0E7C  086B               	movf	___fladd@aexp,w
  3295  0E7D  026C               	subwf	___fladd@bexp,w
  3296  0E7E  1C03               	skipc
  3297  0E7F  2E81               	goto	u1971
  3298  0E80  2E82               	goto	u1970
  3299  0E81                     u1971:
  3300  0E81  2E59               	goto	l630
  3301  0E82                     u1970:
  3302  0E82                     l628:
  3303  0E82  1B6A               	btfsc	___fladd@signs,6
  3304  0E83  2E85               	goto	u1981
  3305  0E84  2E86               	goto	u1980
  3306  0E85                     u1981:
  3307  0E85  2ED1               	goto	l1925
  3308  0E86                     u1980:
  3309  0E86                     l1901:
  3310  0E86  086C               	movf	___fladd@bexp,w
  3311  0E87  1D03               	btfss	3,2
  3312  0E88  2E8A               	goto	u1991
  3313  0E89  2E8B               	goto	u1990
  3314  0E8A                     u1991:
  3315  0E8A  2E94               	goto	l1907
  3316  0E8B                     u1990:
  3317  0E8B                     l1903:
  3318  0E8B  3000               	movlw	0
  3319  0E8C  00DD               	movwf	?___fladd+3
  3320  0E8D  3000               	movlw	0
  3321  0E8E  00DC               	movwf	?___fladd+2
  3322  0E8F  3000               	movlw	0
  3323  0E90  00DB               	movwf	?___fladd+1
  3324  0E91  3000               	movlw	0
  3325  0E92  00DA               	movwf	?___fladd
  3326  0E93  2FFF               	goto	l637
  3327  0E94                     l1907:
  3328  0E94  085E               	movf	___fladd@a,w
  3329  0E95  07DA               	addwf	___fladd@b,f
  3330  0E96  085F               	movf	___fladd@a+1,w
  3331  0E97  1103               	clrz
  3332  0E98  1803               	skipnc
  3333  0E99  3E01               	addlw	1
  3334  0E9A  1903               	skipnz
  3335  0E9B  2E9D               	goto	u2001
  3336  0E9C  07DB               	addwf	___fladd@b+1,f
  3337  0E9D                     u2001:
  3338  0E9D  0860               	movf	___fladd@a+2,w
  3339  0E9E  1103               	clrz
  3340  0E9F  1803               	skipnc
  3341  0EA0  3E01               	addlw	1
  3342  0EA1  1903               	skipnz
  3343  0EA2  2EA4               	goto	u2002
  3344  0EA3  07DC               	addwf	___fladd@b+2,f
  3345  0EA4                     u2002:
  3346  0EA4  0861               	movf	___fladd@a+3,w
  3347  0EA5  1103               	clrz
  3348  0EA6  1803               	skipnc
  3349  0EA7  3E01               	addlw	1
  3350  0EA8  1903               	skipnz
  3351  0EA9  2EAB               	goto	u2003
  3352  0EAA  07DD               	addwf	___fladd@b+3,f
  3353  0EAB                     u2003:
  3354  0EAB                     l1909:
  3355  0EAB  1C5D               	btfss	___fladd@b+3,0
  3356  0EAC  2EAE               	goto	u2011
  3357  0EAD  2EAF               	goto	u2010
  3358  0EAE                     u2011:
  3359  0EAE  2F85               	goto	l1959
  3360  0EAF                     u2010:
  3361  0EAF                     l1911:
  3362  0EAF  1C6D               	btfss	___fladd@grs,0
  3363  0EB0  2EB2               	goto	u2021
  3364  0EB1  2EB3               	goto	u2020
  3365  0EB2                     u2021:
  3366  0EB2  2EBC               	goto	l1915
  3367  0EB3                     u2020:
  3368  0EB3                     l1913:
  3369  0EB3  086D               	movf	___fladd@grs,w
  3370  0EB4  00E2               	movwf	??___fladd
  3371  0EB5  1003               	clrc
  3372  0EB6  0C62               	rrf	??___fladd,w
  3373  0EB7  3801               	iorlw	1
  3374  0EB8  00E3               	movwf	??___fladd+1
  3375  0EB9  0863               	movf	??___fladd+1,w
  3376  0EBA  00ED               	movwf	___fladd@grs
  3377  0EBB  2EBE               	goto	l1917
  3378  0EBC                     l1915:
  3379  0EBC  1003               	clrc
  3380  0EBD  0CED               	rrf	___fladd@grs,f
  3381  0EBE                     l1917:
  3382  0EBE  1C5A               	btfss	___fladd@b,0
  3383  0EBF  2EC1               	goto	u2031
  3384  0EC0  2EC2               	goto	u2030
  3385  0EC1                     u2031:
  3386  0EC1  2EC3               	goto	l1921
  3387  0EC2                     u2030:
  3388  0EC2                     l1919:
  3389  0EC2  17ED               	bsf	___fladd@grs,7
  3390  0EC3                     l1921:
  3391  0EC3  3001               	movlw	1
  3392  0EC4  00E2               	movwf	??___fladd
  3393  0EC5                     u2045:
  3394  0EC5  0D5D               	rlf	___fladd@b+3,w
  3395  0EC6  0CDD               	rrf	___fladd@b+3,f
  3396  0EC7  0CDC               	rrf	___fladd@b+2,f
  3397  0EC8  0CDB               	rrf	___fladd@b+1,f
  3398  0EC9  0CDA               	rrf	___fladd@b,f
  3399  0ECA  0BE2               	decfsz	??___fladd& (0+127),f
  3400  0ECB  2EC5               	goto	u2045
  3401  0ECC                     l1923:
  3402  0ECC  3001               	movlw	1
  3403  0ECD  00E2               	movwf	??___fladd
  3404  0ECE  0862               	movf	??___fladd,w
  3405  0ECF  07EC               	addwf	___fladd@bexp,f
  3406  0ED0  2F85               	goto	l1959
  3407  0ED1                     l1925:
  3408  0ED1  085D               	movf	___fladd@b+3,w
  3409  0ED2  3A80               	xorlw	128
  3410  0ED3  00FF               	movwf	btemp+1
  3411  0ED4  0861               	movf	___fladd@a+3,w
  3412  0ED5  3A80               	xorlw	128
  3413  0ED6  027F               	subwf	btemp+1,w
  3414  0ED7  1D03               	skipz
  3415  0ED8  2EE3               	goto	u2053
  3416  0ED9  0860               	movf	___fladd@a+2,w
  3417  0EDA  025C               	subwf	___fladd@b+2,w
  3418  0EDB  1D03               	skipz
  3419  0EDC  2EE3               	goto	u2053
  3420  0EDD  085F               	movf	___fladd@a+1,w
  3421  0EDE  025B               	subwf	___fladd@b+1,w
  3422  0EDF  1D03               	skipz
  3423  0EE0  2EE3               	goto	u2053
  3424  0EE1  085E               	movf	___fladd@a,w
  3425  0EE2  025A               	subwf	___fladd@b,w
  3426  0EE3                     u2053:
  3427  0EE3  1803               	skipnc
  3428  0EE4  2EE6               	goto	u2051
  3429  0EE5  2EE7               	goto	u2050
  3430  0EE6                     u2051:
  3431  0EE6  2F3F               	goto	l1935
  3432  0EE7                     u2050:
  3433  0EE7                     l1927:
  3434  0EE7  30FF               	movlw	255
  3435  0EE8  00E2               	movwf	??___fladd
  3436  0EE9  30FF               	movlw	255
  3437  0EEA  00E3               	movwf	??___fladd+1
  3438  0EEB  30FF               	movlw	255
  3439  0EEC  00E4               	movwf	??___fladd+2
  3440  0EED  30FF               	movlw	255
  3441  0EEE  00E5               	movwf	??___fladd+3
  3442  0EEF  085E               	movf	___fladd@a,w
  3443  0EF0  00E6               	movwf	??___fladd+4
  3444  0EF1  085F               	movf	___fladd@a+1,w
  3445  0EF2  00E7               	movwf	??___fladd+5
  3446  0EF3  0860               	movf	___fladd@a+2,w
  3447  0EF4  00E8               	movwf	??___fladd+6
  3448  0EF5  0861               	movf	___fladd@a+3,w
  3449  0EF6  00E9               	movwf	??___fladd+7
  3450  0EF7  085A               	movf	___fladd@b,w
  3451  0EF8  02E6               	subwf	??___fladd+4,f
  3452  0EF9  085B               	movf	___fladd@b+1,w
  3453  0EFA  1C03               	skipc
  3454  0EFB  0F5B               	incfsz	___fladd@b+1,w
  3455  0EFC  2EFE               	goto	u2061
  3456  0EFD  2EFF               	goto	u2062
  3457  0EFE                     u2061:
  3458  0EFE  02E7               	subwf	??___fladd+5,f
  3459  0EFF                     u2062:
  3460  0EFF  085C               	movf	___fladd@b+2,w
  3461  0F00  1C03               	skipc
  3462  0F01  0F5C               	incfsz	___fladd@b+2,w
  3463  0F02  2F04               	goto	u2063
  3464  0F03  2F05               	goto	u2064
  3465  0F04                     u2063:
  3466  0F04  02E8               	subwf	??___fladd+6,f
  3467  0F05                     u2064:
  3468  0F05  085D               	movf	___fladd@b+3,w
  3469  0F06  1C03               	skipc
  3470  0F07  0F5D               	incfsz	___fladd@b+3,w
  3471  0F08  2F0A               	goto	u2065
  3472  0F09  2F0B               	goto	u2066
  3473  0F0A                     u2065:
  3474  0F0A  02E9               	subwf	??___fladd+7,f
  3475  0F0B                     u2066:
  3476  0F0B  0866               	movf	??___fladd+4,w
  3477  0F0C  07E2               	addwf	??___fladd,f
  3478  0F0D  0867               	movf	??___fladd+5,w
  3479  0F0E  1803               	skipnc
  3480  0F0F  0F67               	incfsz	??___fladd+5,w
  3481  0F10  2F12               	goto	u2070
  3482  0F11  2F13               	goto	u2071
  3483  0F12                     u2070:
  3484  0F12  07E3               	addwf	??___fladd+1,f
  3485  0F13                     u2071:
  3486  0F13  0868               	movf	??___fladd+6,w
  3487  0F14  1803               	skipnc
  3488  0F15  0F68               	incfsz	??___fladd+6,w
  3489  0F16  2F18               	goto	u2072
  3490  0F17  2F19               	goto	u2073
  3491  0F18                     u2072:
  3492  0F18  07E4               	addwf	??___fladd+2,f
  3493  0F19                     u2073:
  3494  0F19  0869               	movf	??___fladd+7,w
  3495  0F1A  1803               	skipnc
  3496  0F1B  0A69               	incf	??___fladd+7,w
  3497  0F1C  07E5               	addwf	??___fladd+3,f
  3498  0F1D  0865               	movf	??___fladd+3,w
  3499  0F1E  00DD               	movwf	___fladd@b+3
  3500  0F1F  0864               	movf	??___fladd+2,w
  3501  0F20  00DC               	movwf	___fladd@b+2
  3502  0F21  0863               	movf	??___fladd+1,w
  3503  0F22  00DB               	movwf	___fladd@b+1
  3504  0F23  0862               	movf	??___fladd,w
  3505  0F24  00DA               	movwf	___fladd@b
  3506  0F25                     l1929:
  3507  0F25  3080               	movlw	128
  3508  0F26  00E2               	movwf	??___fladd
  3509  0F27  0862               	movf	??___fladd,w
  3510  0F28  06EA               	xorwf	___fladd@signs,f
  3511  0F29  09ED               	comf	___fladd@grs,f
  3512  0F2A  0AED               	incf	___fladd@grs,f
  3513  0F2B                     l1931:
  3514  0F2B  086D               	movf	___fladd@grs,w
  3515  0F2C  1D03               	btfss	3,2
  3516  0F2D  2F2F               	goto	u2081
  3517  0F2E  2F30               	goto	u2080
  3518  0F2F                     u2081:
  3519  0F2F  2F4D               	goto	l645
  3520  0F30                     u2080:
  3521  0F30                     l1933:
  3522  0F30  3001               	movlw	1
  3523  0F31  07DA               	addwf	___fladd@b,f
  3524  0F32  3000               	movlw	0
  3525  0F33  1803               	skipnc
  3526  0F34  3001               	movlw	1
  3527  0F35  07DB               	addwf	___fladd@b+1,f
  3528  0F36  3000               	movlw	0
  3529  0F37  1803               	skipnc
  3530  0F38  3001               	movlw	1
  3531  0F39  07DC               	addwf	___fladd@b+2,f
  3532  0F3A  3000               	movlw	0
  3533  0F3B  1803               	skipnc
  3534  0F3C  3001               	movlw	1
  3535  0F3D  07DD               	addwf	___fladd@b+3,f
  3536  0F3E  2F4D               	goto	l645
  3537  0F3F                     l1935:
  3538  0F3F  085E               	movf	___fladd@a,w
  3539  0F40  02DA               	subwf	___fladd@b,f
  3540  0F41  085F               	movf	___fladd@a+1,w
  3541  0F42  1C03               	skipc
  3542  0F43  0F5F               	incfsz	___fladd@a+1,w
  3543  0F44  02DB               	subwf	___fladd@b+1,f
  3544  0F45  0860               	movf	___fladd@a+2,w
  3545  0F46  1C03               	skipc
  3546  0F47  0F60               	incfsz	___fladd@a+2,w
  3547  0F48  02DC               	subwf	___fladd@b+2,f
  3548  0F49  0861               	movf	___fladd@a+3,w
  3549  0F4A  1C03               	skipc
  3550  0F4B  0F61               	incfsz	___fladd@a+3,w
  3551  0F4C  02DD               	subwf	___fladd@b+3,f
  3552  0F4D                     l645:
  3553  0F4D  085D               	movf	___fladd@b+3,w
  3554  0F4E  045C               	iorwf	___fladd@b+2,w
  3555  0F4F  045B               	iorwf	___fladd@b+1,w
  3556  0F50  045A               	iorwf	___fladd@b,w
  3557  0F51  1D03               	skipz
  3558  0F52  2F54               	goto	u2091
  3559  0F53  2F55               	goto	u2090
  3560  0F54                     u2091:
  3561  0F54  2F81               	goto	l1957
  3562  0F55                     u2090:
  3563  0F55                     l1937:
  3564  0F55  086D               	movf	___fladd@grs,w
  3565  0F56  1D03               	btfss	3,2
  3566  0F57  2F59               	goto	u2101
  3567  0F58  2F5A               	goto	u2100
  3568  0F59                     u2101:
  3569  0F59  2F81               	goto	l1957
  3570  0F5A                     u2100:
  3571  0F5A                     l1939:
  3572  0F5A  3000               	movlw	0
  3573  0F5B  00DD               	movwf	?___fladd+3
  3574  0F5C  3000               	movlw	0
  3575  0F5D  00DC               	movwf	?___fladd+2
  3576  0F5E  3000               	movlw	0
  3577  0F5F  00DB               	movwf	?___fladd+1
  3578  0F60  3000               	movlw	0
  3579  0F61  00DA               	movwf	?___fladd
  3580  0F62  2FFF               	goto	l637
  3581  0F63                     l1943:
  3582  0F63  3001               	movlw	1
  3583  0F64  00E2               	movwf	??___fladd
  3584  0F65                     u2115:
  3585  0F65  1003               	clrc
  3586  0F66  0DDA               	rlf	___fladd@b,f
  3587  0F67  0DDB               	rlf	___fladd@b+1,f
  3588  0F68  0DDC               	rlf	___fladd@b+2,f
  3589  0F69  0DDD               	rlf	___fladd@b+3,f
  3590  0F6A  0BE2               	decfsz	??___fladd,f
  3591  0F6B  2F65               	goto	u2115
  3592  0F6C                     l1945:
  3593  0F6C  1FED               	btfss	___fladd@grs,7
  3594  0F6D  2F6F               	goto	u2121
  3595  0F6E  2F70               	goto	u2120
  3596  0F6F                     u2121:
  3597  0F6F  2F71               	goto	l649
  3598  0F70                     u2120:
  3599  0F70                     l1947:
  3600  0F70  145A               	bsf	___fladd@b,0
  3601  0F71                     l649:
  3602  0F71  1C6D               	btfss	___fladd@grs,0
  3603  0F72  2F74               	goto	u2131
  3604  0F73  2F75               	goto	u2130
  3605  0F74                     u2131:
  3606  0F74  2F78               	goto	l1951
  3607  0F75                     u2130:
  3608  0F75                     l1949:
  3609  0F75  1403               	setc
  3610  0F76  0DED               	rlf	___fladd@grs,f
  3611  0F77  2F7A               	goto	l1953
  3612  0F78                     l1951:
  3613  0F78  1003               	clrc
  3614  0F79  0DED               	rlf	___fladd@grs,f
  3615  0F7A                     l1953:
  3616  0F7A  086C               	movf	___fladd@bexp,w
  3617  0F7B  1903               	btfsc	3,2
  3618  0F7C  2F7E               	goto	u2141
  3619  0F7D  2F7F               	goto	u2140
  3620  0F7E                     u2141:
  3621  0F7E  2F81               	goto	l1957
  3622  0F7F                     u2140:
  3623  0F7F                     l1955:
  3624  0F7F  3001               	movlw	1
  3625  0F80  02EC               	subwf	___fladd@bexp,f
  3626  0F81                     l1957:
  3627  0F81  1FDC               	btfss	___fladd@b+2,7
  3628  0F82  2F84               	goto	u2151
  3629  0F83  2F85               	goto	u2150
  3630  0F84                     u2151:
  3631  0F84  2F63               	goto	l1943
  3632  0F85                     u2150:
  3633  0F85                     l1959:
  3634  0F85  01EB               	clrf	___fladd@aexp
  3635  0F86                     l1961:
  3636  0F86  1FED               	btfss	___fladd@grs,7
  3637  0F87  2F89               	goto	u2161
  3638  0F88  2F8A               	goto	u2160
  3639  0F89                     u2161:
  3640  0F89  2F98               	goto	l1969
  3641  0F8A                     u2160:
  3642  0F8A                     l1963:
  3643  0F8A  086D               	movf	___fladd@grs,w
  3644  0F8B  397F               	andlw	127
  3645  0F8C  1903               	btfsc	3,2
  3646  0F8D  2F8F               	goto	u2171
  3647  0F8E  2F90               	goto	u2170
  3648  0F8F                     u2171:
  3649  0F8F  2F93               	goto	l655
  3650  0F90                     u2170:
  3651  0F90                     l1965:
  3652  0F90  01EB               	clrf	___fladd@aexp
  3653  0F91  0AEB               	incf	___fladd@aexp,f
  3654  0F92  2F98               	goto	l1969
  3655  0F93                     l655:
  3656  0F93  1C5A               	btfss	___fladd@b,0
  3657  0F94  2F96               	goto	u2181
  3658  0F95  2F97               	goto	u2180
  3659  0F96                     u2181:
  3660  0F96  2F98               	goto	l1969
  3661  0F97                     u2180:
  3662  0F97  2F90               	goto	l1965
  3663  0F98                     l1969:
  3664  0F98  086B               	movf	___fladd@aexp,w
  3665  0F99  1903               	btfsc	3,2
  3666  0F9A  2F9C               	goto	u2191
  3667  0F9B  2F9D               	goto	u2190
  3668  0F9C                     u2191:
  3669  0F9C  2FD1               	goto	l658
  3670  0F9D                     u2190:
  3671  0F9D                     l1971:
  3672  0F9D  3001               	movlw	1
  3673  0F9E  07DA               	addwf	___fladd@b,f
  3674  0F9F  3000               	movlw	0
  3675  0FA0  1803               	skipnc
  3676  0FA1  3001               	movlw	1
  3677  0FA2  07DB               	addwf	___fladd@b+1,f
  3678  0FA3  3000               	movlw	0
  3679  0FA4  1803               	skipnc
  3680  0FA5  3001               	movlw	1
  3681  0FA6  07DC               	addwf	___fladd@b+2,f
  3682  0FA7  3000               	movlw	0
  3683  0FA8  1803               	skipnc
  3684  0FA9  3001               	movlw	1
  3685  0FAA  07DD               	addwf	___fladd@b+3,f
  3686  0FAB                     l1973:
  3687  0FAB  1C5D               	btfss	___fladd@b+3,0
  3688  0FAC  2FAE               	goto	u2201
  3689  0FAD  2FAF               	goto	u2200
  3690  0FAE                     u2201:
  3691  0FAE  2FD1               	goto	l658
  3692  0FAF                     u2200:
  3693  0FAF                     l1975:
  3694  0FAF  085A               	movf	___fladd@b,w
  3695  0FB0  00E2               	movwf	??___fladd
  3696  0FB1  085B               	movf	___fladd@b+1,w
  3697  0FB2  00E3               	movwf	??___fladd+1
  3698  0FB3  085C               	movf	___fladd@b+2,w
  3699  0FB4  00E4               	movwf	??___fladd+2
  3700  0FB5  085D               	movf	___fladd@b+3,w
  3701  0FB6  00E5               	movwf	??___fladd+3
  3702  0FB7  3001               	movlw	1
  3703  0FB8  00E6               	movwf	??___fladd+4
  3704  0FB9                     u2215:
  3705  0FB9  0D65               	rlf	??___fladd+3,w
  3706  0FBA  0CE5               	rrf	??___fladd+3,f
  3707  0FBB  0CE4               	rrf	??___fladd+2,f
  3708  0FBC  0CE3               	rrf	??___fladd+1,f
  3709  0FBD  0CE2               	rrf	??___fladd,f
  3710  0FBE                     u2210:
  3711  0FBE  0BE6               	decfsz	??___fladd+4,f
  3712  0FBF  2FB9               	goto	u2215
  3713  0FC0  0865               	movf	??___fladd+3,w
  3714  0FC1  00DD               	movwf	___fladd@b+3
  3715  0FC2  0864               	movf	??___fladd+2,w
  3716  0FC3  00DC               	movwf	___fladd@b+2
  3717  0FC4  0863               	movf	??___fladd+1,w
  3718  0FC5  00DB               	movwf	___fladd@b+1
  3719  0FC6  0862               	movf	??___fladd,w
  3720  0FC7  00DA               	movwf	___fladd@b
  3721  0FC8  0A6C               	incf	___fladd@bexp,w
  3722  0FC9  1903               	btfsc	3,2
  3723  0FCA  2FCC               	goto	u2221
  3724  0FCB  2FCD               	goto	u2220
  3725  0FCC                     u2221:
  3726  0FCC  2FD1               	goto	l658
  3727  0FCD                     u2220:
  3728  0FCD                     l1977:
  3729  0FCD  3001               	movlw	1
  3730  0FCE  00E2               	movwf	??___fladd
  3731  0FCF  0862               	movf	??___fladd,w
  3732  0FD0  07EC               	addwf	___fladd@bexp,f
  3733  0FD1                     l658:
  3734  0FD1  0A6C               	incf	___fladd@bexp,w
  3735  0FD2  1903               	btfsc	3,2
  3736  0FD3  2FD5               	goto	u2231
  3737  0FD4  2FD6               	goto	u2230
  3738  0FD5                     u2231:
  3739  0FD5  2FDB               	goto	l1981
  3740  0FD6                     u2230:
  3741  0FD6                     l1979:
  3742  0FD6  086C               	movf	___fladd@bexp,w
  3743  0FD7  1D03               	btfss	3,2
  3744  0FD8  2FDA               	goto	u2241
  3745  0FD9  2FDB               	goto	u2240
  3746  0FDA                     u2241:
  3747  0FDA  2FE9               	goto	l1987
  3748  0FDB                     u2240:
  3749  0FDB                     l1981:
  3750  0FDB  3000               	movlw	0
  3751  0FDC  00DD               	movwf	___fladd@b+3
  3752  0FDD  3000               	movlw	0
  3753  0FDE  00DC               	movwf	___fladd@b+2
  3754  0FDF  3000               	movlw	0
  3755  0FE0  00DB               	movwf	___fladd@b+1
  3756  0FE1  3000               	movlw	0
  3757  0FE2  00DA               	movwf	___fladd@b
  3758  0FE3                     l1983:
  3759  0FE3  086C               	movf	___fladd@bexp,w
  3760  0FE4  1D03               	btfss	3,2
  3761  0FE5  2FE7               	goto	u2251
  3762  0FE6  2FE8               	goto	u2250
  3763  0FE7                     u2251:
  3764  0FE7  2FE9               	goto	l1987
  3765  0FE8                     u2250:
  3766  0FE8                     l1985:
  3767  0FE8  01EA               	clrf	___fladd@signs
  3768  0FE9                     l1987:
  3769  0FE9  1C6C               	btfss	___fladd@bexp,0
  3770  0FEA  2FEC               	goto	u2261
  3771  0FEB  2FED               	goto	u2260
  3772  0FEC                     u2261:
  3773  0FEC  2FEF               	goto	l1991
  3774  0FED                     u2260:
  3775  0FED                     l1989:
  3776  0FED  17DC               	bsf	___fladd@b+2,7
  3777  0FEE  2FF3               	goto	l666
  3778  0FEF                     l1991:
  3779  0FEF  307F               	movlw	127
  3780  0FF0  00E2               	movwf	??___fladd
  3781  0FF1  0862               	movf	??___fladd,w
  3782  0FF2  05DC               	andwf	___fladd@b+2,f
  3783  0FF3                     l666:
  3784  0FF3  086C               	movf	___fladd@bexp,w
  3785  0FF4  00E2               	movwf	??___fladd
  3786  0FF5  1003               	clrc
  3787  0FF6  0C62               	rrf	??___fladd,w
  3788  0FF7  00E3               	movwf	??___fladd+1
  3789  0FF8  0863               	movf	??___fladd+1,w
  3790  0FF9  00DD               	movwf	___fladd@b+3
  3791  0FFA                     l1993:
  3792  0FFA  1FEA               	btfss	___fladd@signs,7
  3793  0FFB  2FFD               	goto	u2271
  3794  0FFC  2FFE               	goto	u2270
  3795  0FFD                     u2271:
  3796  0FFD  2FFF               	goto	l667
  3797  0FFE                     u2270:
  3798  0FFE                     l1995:
  3799  0FFE  17DD               	bsf	___fladd@b+3,7
  3800  0FFF                     l667:
  3801  0FFF                     l637:
  3802  0FFF  0008               	return
  3803  1000                     __end_of___fladd:
  3804                           
  3805                           	psect	text7
  3806  0809                     __ptext7:	
  3807 ;; *************** function ___flneg *****************
  3808 ;; Defined at:
  3809 ;;		line 15 in file "C:\Program Files\Microchip\xc8\v2.31\pic\sources\c90\common\flneg.c"
  3810 ;; Parameters:    Size  Location     Type
  3811 ;;  f1              4    2[COMMON] unsigned char 
  3812 ;; Auto vars:     Size  Location     Type
  3813 ;;		None
  3814 ;; Return value:  Size  Location     Type
  3815 ;;                  4    2[COMMON] unsigned char 
  3816 ;; Registers used:
  3817 ;;		wreg
  3818 ;; Tracked objects:
  3819 ;;		On entry : 0/0
  3820 ;;		On exit  : 0/0
  3821 ;;		Unchanged: 0/0
  3822 ;; Data sizes:     COMMON   BANK0   BANK1   BANK3   BANK2
  3823 ;;      Params:         4       0       0       0       0
  3824 ;;      Locals:         0       0       0       0       0
  3825 ;;      Temps:          0       0       0       0       0
  3826 ;;      Totals:         4       0       0       0       0
  3827 ;;Total ram usage:        4 bytes
  3828 ;; Hardware stack levels used:    1
  3829 ;; Hardware stack levels required when called:    1
  3830 ;; This function calls:
  3831 ;;		Nothing
  3832 ;; This function is called by:
  3833 ;;		_floattostr_
  3834 ;; This function uses a non-reentrant model
  3835 ;;
  3836                           
  3837                           
  3838                           ;psect for function ___flneg
  3839  0809                     ___flneg:
  3840  0809                     l2061:	
  3841                           ;incstack = 0
  3842                           ; Regs used in ___flneg: [wreg]
  3843                           
  3844  0809  0875               	movf	___flneg@f1+3,w
  3845  080A  0474               	iorwf	___flneg@f1+2,w
  3846  080B  0473               	iorwf	___flneg@f1+1,w
  3847  080C  0472               	iorwf	___flneg@f1,w
  3848  080D  1903               	skipnz
  3849  080E  2810               	goto	u2391
  3850  080F  2811               	goto	u2390
  3851  0810                     u2391:
  3852  0810  2813               	goto	l2065
  3853  0811                     u2390:
  3854  0811                     l2063:
  3855  0811  3080               	movlw	128
  3856  0812  06F5               	xorwf	___flneg@f1+3,f
  3857  0813                     l2065:
  3858  0813                     l513:
  3859  0813  0008               	return
  3860  0814                     __end_of___flneg:
  3861                           
  3862                           	psect	text8
  3863  03A8                     __ptext8:	
  3864 ;; *************** function ___flmul *****************
  3865 ;; Defined at:
  3866 ;;		line 8 in file "C:\Program Files\Microchip\xc8\v2.31\pic\sources\c90\common\sprcmul.c"
  3867 ;; Parameters:    Size  Location     Type
  3868 ;;  b               4    6[BANK0 ] unsigned char 
  3869 ;;  a               4   10[BANK0 ] unsigned char 
  3870 ;; Auto vars:     Size  Location     Type
  3871 ;;  prod            4   26[BANK0 ] struct .
  3872 ;;  grs             4   21[BANK0 ] unsigned long 
  3873 ;;  temp            2   30[BANK0 ] struct .
  3874 ;;  bexp            1   25[BANK0 ] unsigned char 
  3875 ;;  aexp            1   20[BANK0 ] unsigned char 
  3876 ;;  sign            1   19[BANK0 ] unsigned char 
  3877 ;; Return value:  Size  Location     Type
  3878 ;;                  4    6[BANK0 ] unsigned char 
  3879 ;; Registers used:
  3880 ;;		wreg, status,2, status,0, btemp+1, pclath, cstack
  3881 ;; Tracked objects:
  3882 ;;		On entry : 0/0
  3883 ;;		On exit  : 0/0
  3884 ;;		Unchanged: 0/0
  3885 ;; Data sizes:     COMMON   BANK0   BANK1   BANK3   BANK2
  3886 ;;      Params:         0       8       0       0       0
  3887 ;;      Locals:         0      13       0       0       0
  3888 ;;      Temps:          0       5       0       0       0
  3889 ;;      Totals:         0      26       0       0       0
  3890 ;;Total ram usage:       26 bytes
  3891 ;; Hardware stack levels used:    1
  3892 ;; Hardware stack levels required when called:    2
  3893 ;; This function calls:
  3894 ;;		__Umul8_16
  3895 ;; This function is called by:
  3896 ;;		_main
  3897 ;;		_floattostr_
  3898 ;; This function uses a non-reentrant model
  3899 ;;
  3900                           
  3901                           
  3902                           ;psect for function ___flmul
  3903  03A8                     ___flmul:
  3904  03A8                     l2763:	
  3905                           ;incstack = 0
  3906                           ; Regs used in ___flmul: [wreg+status,2+status,0+btemp+1+pclath+cstack]
  3907                           
  3908  03A8  1283               	bcf	3,5	;RP0=0, select bank0
  3909  03A9  1303               	bcf	3,6	;RP1=0, select bank0
  3910  03AA  0829               	movf	___flmul@b+3,w
  3911  03AB  3980               	andlw	128
  3912  03AC  00AE               	movwf	??___flmul
  3913  03AD  082E               	movf	??___flmul,w
  3914  03AE  00B3               	movwf	___flmul@sign
  3915  03AF                     l2765:
  3916  03AF  0829               	movf	___flmul@b+3,w
  3917  03B0  00AE               	movwf	??___flmul
  3918  03B1  072E               	addwf	??___flmul,w
  3919  03B2  00AF               	movwf	??___flmul+1
  3920  03B3  082F               	movf	??___flmul+1,w
  3921  03B4  00B9               	movwf	___flmul@bexp
  3922  03B5                     l2767:
  3923  03B5  1FA8               	btfss	___flmul@b+2,7
  3924  03B6  2BB8               	goto	u3751
  3925  03B7  2BB9               	goto	u3750
  3926  03B8                     u3751:
  3927  03B8  2BBA               	goto	l2771
  3928  03B9                     u3750:
  3929  03B9                     l2769:
  3930  03B9  1439               	bsf	___flmul@bexp,0
  3931  03BA                     l2771:
  3932  03BA  0839               	movf	___flmul@bexp,w
  3933  03BB  1903               	btfsc	3,2
  3934  03BC  2BBE               	goto	u3761
  3935  03BD  2BBF               	goto	u3760
  3936  03BE                     u3761:
  3937  03BE  2BCE               	goto	l2779
  3938  03BF                     u3760:
  3939  03BF                     l2773:
  3940  03BF  0A39               	incf	___flmul@bexp,w
  3941  03C0  1D03               	btfss	3,2
  3942  03C1  2BC3               	goto	u3771
  3943  03C2  2BC4               	goto	u3770
  3944  03C3                     u3771:
  3945  03C3  2BCC               	goto	l2777
  3946  03C4                     u3770:
  3947  03C4                     l2775:
  3948  03C4  3000               	movlw	0
  3949  03C5  00A9               	movwf	___flmul@b+3
  3950  03C6  3000               	movlw	0
  3951  03C7  00A8               	movwf	___flmul@b+2
  3952  03C8  3000               	movlw	0
  3953  03C9  00A7               	movwf	___flmul@b+1
  3954  03CA  3000               	movlw	0
  3955  03CB  00A6               	movwf	___flmul@b
  3956  03CC                     l2777:
  3957  03CC  17A8               	bsf	___flmul@b+2,7
  3958  03CD  2BD6               	goto	l2781
  3959  03CE                     l2779:
  3960  03CE  3000               	movlw	0
  3961  03CF  00A9               	movwf	___flmul@b+3
  3962  03D0  3000               	movlw	0
  3963  03D1  00A8               	movwf	___flmul@b+2
  3964  03D2  3000               	movlw	0
  3965  03D3  00A7               	movwf	___flmul@b+1
  3966  03D4  3000               	movlw	0
  3967  03D5  00A6               	movwf	___flmul@b
  3968  03D6                     l2781:
  3969  03D6  082D               	movf	___flmul@a+3,w
  3970  03D7  3980               	andlw	128
  3971  03D8  00AE               	movwf	??___flmul
  3972  03D9  082E               	movf	??___flmul,w
  3973  03DA  06B3               	xorwf	___flmul@sign,f
  3974  03DB                     l2783:
  3975  03DB  082D               	movf	___flmul@a+3,w
  3976  03DC  00AE               	movwf	??___flmul
  3977  03DD  072E               	addwf	??___flmul,w
  3978  03DE  00AF               	movwf	??___flmul+1
  3979  03DF  082F               	movf	??___flmul+1,w
  3980  03E0  00B4               	movwf	___flmul@aexp
  3981  03E1                     l2785:
  3982  03E1  1FAC               	btfss	___flmul@a+2,7
  3983  03E2  2BE4               	goto	u3781
  3984  03E3  2BE5               	goto	u3780
  3985  03E4                     u3781:
  3986  03E4  2BE6               	goto	l2789
  3987  03E5                     u3780:
  3988  03E5                     l2787:
  3989  03E5  1434               	bsf	___flmul@aexp,0
  3990  03E6                     l2789:
  3991  03E6  0834               	movf	___flmul@aexp,w
  3992  03E7  1903               	btfsc	3,2
  3993  03E8  2BEA               	goto	u3791
  3994  03E9  2BEB               	goto	u3790
  3995  03EA                     u3791:
  3996  03EA  2BFA               	goto	l2797
  3997  03EB                     u3790:
  3998  03EB                     l2791:
  3999  03EB  0A34               	incf	___flmul@aexp,w
  4000  03EC  1D03               	btfss	3,2
  4001  03ED  2BEF               	goto	u3801
  4002  03EE  2BF0               	goto	u3800
  4003  03EF                     u3801:
  4004  03EF  2BF8               	goto	l2795
  4005  03F0                     u3800:
  4006  03F0                     l2793:
  4007  03F0  3000               	movlw	0
  4008  03F1  00AD               	movwf	___flmul@a+3
  4009  03F2  3000               	movlw	0
  4010  03F3  00AC               	movwf	___flmul@a+2
  4011  03F4  3000               	movlw	0
  4012  03F5  00AB               	movwf	___flmul@a+1
  4013  03F6  3000               	movlw	0
  4014  03F7  00AA               	movwf	___flmul@a
  4015  03F8                     l2795:
  4016  03F8  17AC               	bsf	___flmul@a+2,7
  4017  03F9  2C02               	goto	l2799
  4018  03FA                     l2797:
  4019  03FA  3000               	movlw	0
  4020  03FB  00AD               	movwf	___flmul@a+3
  4021  03FC  3000               	movlw	0
  4022  03FD  00AC               	movwf	___flmul@a+2
  4023  03FE  3000               	movlw	0
  4024  03FF  00AB               	movwf	___flmul@a+1
  4025  0400  3000               	movlw	0
  4026  0401  00AA               	movwf	___flmul@a
  4027  0402                     l2799:
  4028  0402  0834               	movf	___flmul@aexp,w
  4029  0403  1903               	btfsc	3,2
  4030  0404  2C06               	goto	u3811
  4031  0405  2C07               	goto	u3810
  4032  0406                     u3811:
  4033  0406  2C0C               	goto	l2803
  4034  0407                     u3810:
  4035  0407                     l2801:
  4036  0407  0839               	movf	___flmul@bexp,w
  4037  0408  1D03               	btfss	3,2
  4038  0409  2C0B               	goto	u3821
  4039  040A  2C0C               	goto	u3820
  4040  040B                     u3821:
  4041  040B  2C15               	goto	l2807
  4042  040C                     u3820:
  4043  040C                     l2803:
  4044  040C  3000               	movlw	0
  4045  040D  00A9               	movwf	?___flmul+3
  4046  040E  3000               	movlw	0
  4047  040F  00A8               	movwf	?___flmul+2
  4048  0410  3000               	movlw	0
  4049  0411  00A7               	movwf	?___flmul+1
  4050  0412  3000               	movlw	0
  4051  0413  00A6               	movwf	?___flmul
  4052  0414  2F08               	goto	l720
  4053  0415                     l2807:
  4054  0415  0826               	movf	___flmul@b,w
  4055  0416  00AE               	movwf	??___flmul
  4056  0417  082E               	movf	??___flmul,w
  4057  0418  00F2               	movwf	__Umul8_16@multiplicand
  4058  0419  082C               	movf	___flmul@a+2,w
  4059  041A  120A  118A  27C9  120A  118A  	fcall	__Umul8_16
  4060  041F  0873               	movf	?__Umul8_16+1,w
  4061  0420  1283               	bcf	3,5	;RP0=0, select bank0
  4062  0421  1303               	bcf	3,6	;RP1=0, select bank0
  4063  0422  00BF               	movwf	___flmul@temp+1
  4064  0423  0872               	movf	?__Umul8_16,w
  4065  0424  00BE               	movwf	___flmul@temp
  4066  0425                     l2809:
  4067  0425  083E               	movf	___flmul@temp,w
  4068  0426  00AE               	movwf	??___flmul
  4069  0427  01AF               	clrf	??___flmul+1
  4070  0428  01B0               	clrf	??___flmul+2
  4071  0429  01B1               	clrf	??___flmul+3
  4072  042A  0831               	movf	??___flmul+3,w
  4073  042B  00B8               	movwf	___flmul@grs+3
  4074  042C  0830               	movf	??___flmul+2,w
  4075  042D  00B7               	movwf	___flmul@grs+2
  4076  042E  082F               	movf	??___flmul+1,w
  4077  042F  00B6               	movwf	___flmul@grs+1
  4078  0430  082E               	movf	??___flmul,w
  4079  0431  00B5               	movwf	___flmul@grs
  4080  0432                     l2811:
  4081  0432  083F               	movf	___flmul@temp+1,w
  4082  0433  00AE               	movwf	??___flmul
  4083  0434  01AF               	clrf	??___flmul+1
  4084  0435  01B0               	clrf	??___flmul+2
  4085  0436  01B1               	clrf	??___flmul+3
  4086  0437  0831               	movf	??___flmul+3,w
  4087  0438  00BD               	movwf	___flmul@prod+3
  4088  0439  0830               	movf	??___flmul+2,w
  4089  043A  00BC               	movwf	___flmul@prod+2
  4090  043B  082F               	movf	??___flmul+1,w
  4091  043C  00BB               	movwf	___flmul@prod+1
  4092  043D  082E               	movf	??___flmul,w
  4093  043E  00BA               	movwf	___flmul@prod
  4094  043F  0827               	movf	___flmul@b+1,w
  4095  0440  00AE               	movwf	??___flmul
  4096  0441  082E               	movf	??___flmul,w
  4097  0442  00F2               	movwf	__Umul8_16@multiplicand
  4098  0443  082B               	movf	___flmul@a+1,w
  4099  0444  120A  118A  27C9  120A  118A  	fcall	__Umul8_16
  4100  0449  0873               	movf	?__Umul8_16+1,w
  4101  044A  1283               	bcf	3,5	;RP0=0, select bank0
  4102  044B  1303               	bcf	3,6	;RP1=0, select bank0
  4103  044C  00BF               	movwf	___flmul@temp+1
  4104  044D  0872               	movf	?__Umul8_16,w
  4105  044E  00BE               	movwf	___flmul@temp
  4106  044F                     l2813:
  4107  044F  083E               	movf	___flmul@temp,w
  4108  0450  00AE               	movwf	??___flmul
  4109  0451  01AF               	clrf	??___flmul+1
  4110  0452  01B0               	clrf	??___flmul+2
  4111  0453  01B1               	clrf	??___flmul+3
  4112  0454  082E               	movf	??___flmul,w
  4113  0455  07B5               	addwf	___flmul@grs,f
  4114  0456  082F               	movf	??___flmul+1,w
  4115  0457  1103               	clrz
  4116  0458  1803               	skipnc
  4117  0459  3E01               	addlw	1
  4118  045A  1903               	skipnz
  4119  045B  2C5D               	goto	u3831
  4120  045C  07B6               	addwf	___flmul@grs+1,f
  4121  045D                     u3831:
  4122  045D  0830               	movf	??___flmul+2,w
  4123  045E  1103               	clrz
  4124  045F  1803               	skipnc
  4125  0460  3E01               	addlw	1
  4126  0461  1903               	skipnz
  4127  0462  2C64               	goto	u3832
  4128  0463  07B7               	addwf	___flmul@grs+2,f
  4129  0464                     u3832:
  4130  0464  0831               	movf	??___flmul+3,w
  4131  0465  1103               	clrz
  4132  0466  1803               	skipnc
  4133  0467  3E01               	addlw	1
  4134  0468  1903               	skipnz
  4135  0469  2C6B               	goto	u3833
  4136  046A  07B8               	addwf	___flmul@grs+3,f
  4137  046B                     u3833:
  4138  046B                     l2815:
  4139  046B  083F               	movf	___flmul@temp+1,w
  4140  046C  00AE               	movwf	??___flmul
  4141  046D  01AF               	clrf	??___flmul+1
  4142  046E  01B0               	clrf	??___flmul+2
  4143  046F  01B1               	clrf	??___flmul+3
  4144  0470  082E               	movf	??___flmul,w
  4145  0471  07BA               	addwf	___flmul@prod,f
  4146  0472  082F               	movf	??___flmul+1,w
  4147  0473  1103               	clrz
  4148  0474  1803               	skipnc
  4149  0475  3E01               	addlw	1
  4150  0476  1903               	skipnz
  4151  0477  2C79               	goto	u3841
  4152  0478  07BB               	addwf	___flmul@prod+1,f
  4153  0479                     u3841:
  4154  0479  0830               	movf	??___flmul+2,w
  4155  047A  1103               	clrz
  4156  047B  1803               	skipnc
  4157  047C  3E01               	addlw	1
  4158  047D  1903               	skipnz
  4159  047E  2C80               	goto	u3842
  4160  047F  07BC               	addwf	___flmul@prod+2,f
  4161  0480                     u3842:
  4162  0480  0831               	movf	??___flmul+3,w
  4163  0481  1103               	clrz
  4164  0482  1803               	skipnc
  4165  0483  3E01               	addlw	1
  4166  0484  1903               	skipnz
  4167  0485  2C87               	goto	u3843
  4168  0486  07BD               	addwf	___flmul@prod+3,f
  4169  0487                     u3843:
  4170  0487  0828               	movf	___flmul@b+2,w
  4171  0488  00AE               	movwf	??___flmul
  4172  0489  082E               	movf	??___flmul,w
  4173  048A  00F2               	movwf	__Umul8_16@multiplicand
  4174  048B  082A               	movf	___flmul@a,w
  4175  048C  120A  118A  27C9  120A  118A  	fcall	__Umul8_16
  4176  0491  0873               	movf	?__Umul8_16+1,w
  4177  0492  1283               	bcf	3,5	;RP0=0, select bank0
  4178  0493  1303               	bcf	3,6	;RP1=0, select bank0
  4179  0494  00BF               	movwf	___flmul@temp+1
  4180  0495  0872               	movf	?__Umul8_16,w
  4181  0496  00BE               	movwf	___flmul@temp
  4182  0497                     l2817:
  4183  0497  083E               	movf	___flmul@temp,w
  4184  0498  00AE               	movwf	??___flmul
  4185  0499  01AF               	clrf	??___flmul+1
  4186  049A  01B0               	clrf	??___flmul+2
  4187  049B  01B1               	clrf	??___flmul+3
  4188  049C  082E               	movf	??___flmul,w
  4189  049D  07B5               	addwf	___flmul@grs,f
  4190  049E  082F               	movf	??___flmul+1,w
  4191  049F  1103               	clrz
  4192  04A0  1803               	skipnc
  4193  04A1  3E01               	addlw	1
  4194  04A2  1903               	skipnz
  4195  04A3  2CA5               	goto	u3851
  4196  04A4  07B6               	addwf	___flmul@grs+1,f
  4197  04A5                     u3851:
  4198  04A5  0830               	movf	??___flmul+2,w
  4199  04A6  1103               	clrz
  4200  04A7  1803               	skipnc
  4201  04A8  3E01               	addlw	1
  4202  04A9  1903               	skipnz
  4203  04AA  2CAC               	goto	u3852
  4204  04AB  07B7               	addwf	___flmul@grs+2,f
  4205  04AC                     u3852:
  4206  04AC  0831               	movf	??___flmul+3,w
  4207  04AD  1103               	clrz
  4208  04AE  1803               	skipnc
  4209  04AF  3E01               	addlw	1
  4210  04B0  1903               	skipnz
  4211  04B1  2CB3               	goto	u3853
  4212  04B2  07B8               	addwf	___flmul@grs+3,f
  4213  04B3                     u3853:
  4214  04B3                     l2819:
  4215  04B3  083F               	movf	___flmul@temp+1,w
  4216  04B4  00AE               	movwf	??___flmul
  4217  04B5  01AF               	clrf	??___flmul+1
  4218  04B6  01B0               	clrf	??___flmul+2
  4219  04B7  01B1               	clrf	??___flmul+3
  4220  04B8  082E               	movf	??___flmul,w
  4221  04B9  07BA               	addwf	___flmul@prod,f
  4222  04BA  082F               	movf	??___flmul+1,w
  4223  04BB  1103               	clrz
  4224  04BC  1803               	skipnc
  4225  04BD  3E01               	addlw	1
  4226  04BE  1903               	skipnz
  4227  04BF  2CC1               	goto	u3861
  4228  04C0  07BB               	addwf	___flmul@prod+1,f
  4229  04C1                     u3861:
  4230  04C1  0830               	movf	??___flmul+2,w
  4231  04C2  1103               	clrz
  4232  04C3  1803               	skipnc
  4233  04C4  3E01               	addlw	1
  4234  04C5  1903               	skipnz
  4235  04C6  2CC8               	goto	u3862
  4236  04C7  07BC               	addwf	___flmul@prod+2,f
  4237  04C8                     u3862:
  4238  04C8  0831               	movf	??___flmul+3,w
  4239  04C9  1103               	clrz
  4240  04CA  1803               	skipnc
  4241  04CB  3E01               	addlw	1
  4242  04CC  1903               	skipnz
  4243  04CD  2CCF               	goto	u3863
  4244  04CE  07BD               	addwf	___flmul@prod+3,f
  4245  04CF                     u3863:
  4246  04CF                     l2821:
  4247  04CF  3008               	movlw	8
  4248  04D0  00AE               	movwf	??___flmul
  4249  04D1                     u3875:
  4250  04D1  1003               	clrc
  4251  04D2  0DB5               	rlf	___flmul@grs,f
  4252  04D3  0DB6               	rlf	___flmul@grs+1,f
  4253  04D4  0DB7               	rlf	___flmul@grs+2,f
  4254  04D5  0DB8               	rlf	___flmul@grs+3,f
  4255  04D6  0BAE               	decfsz	??___flmul,f
  4256  04D7  2CD1               	goto	u3875
  4257  04D8                     l2823:
  4258  04D8  0827               	movf	___flmul@b+1,w
  4259  04D9  00AE               	movwf	??___flmul
  4260  04DA  082E               	movf	??___flmul,w
  4261  04DB  00F2               	movwf	__Umul8_16@multiplicand
  4262  04DC  082A               	movf	___flmul@a,w
  4263  04DD  120A  118A  27C9  120A  118A  	fcall	__Umul8_16
  4264  04E2  0873               	movf	?__Umul8_16+1,w
  4265  04E3  1283               	bcf	3,5	;RP0=0, select bank0
  4266  04E4  1303               	bcf	3,6	;RP1=0, select bank0
  4267  04E5  00BF               	movwf	___flmul@temp+1
  4268  04E6  0872               	movf	?__Umul8_16,w
  4269  04E7  00BE               	movwf	___flmul@temp
  4270  04E8                     l2825:
  4271  04E8  083E               	movf	___flmul@temp,w
  4272  04E9  00AE               	movwf	??___flmul
  4273  04EA  083F               	movf	___flmul@temp+1,w
  4274  04EB  00AF               	movwf	??___flmul+1
  4275  04EC  01B0               	clrf	??___flmul+2
  4276  04ED  01B1               	clrf	??___flmul+3
  4277  04EE  082E               	movf	??___flmul,w
  4278  04EF  07B5               	addwf	___flmul@grs,f
  4279  04F0  082F               	movf	??___flmul+1,w
  4280  04F1  1103               	clrz
  4281  04F2  1803               	skipnc
  4282  04F3  3E01               	addlw	1
  4283  04F4  1903               	skipnz
  4284  04F5  2CF7               	goto	u3881
  4285  04F6  07B6               	addwf	___flmul@grs+1,f
  4286  04F7                     u3881:
  4287  04F7  0830               	movf	??___flmul+2,w
  4288  04F8  1103               	clrz
  4289  04F9  1803               	skipnc
  4290  04FA  3E01               	addlw	1
  4291  04FB  1903               	skipnz
  4292  04FC  2CFE               	goto	u3882
  4293  04FD  07B7               	addwf	___flmul@grs+2,f
  4294  04FE                     u3882:
  4295  04FE  0831               	movf	??___flmul+3,w
  4296  04FF  1103               	clrz
  4297  0500  1803               	skipnc
  4298  0501  3E01               	addlw	1
  4299  0502  1903               	skipnz
  4300  0503  2D05               	goto	u3883
  4301  0504  07B8               	addwf	___flmul@grs+3,f
  4302  0505                     u3883:
  4303  0505                     l2827:
  4304  0505  0826               	movf	___flmul@b,w
  4305  0506  00AE               	movwf	??___flmul
  4306  0507  082E               	movf	??___flmul,w
  4307  0508  00F2               	movwf	__Umul8_16@multiplicand
  4308  0509  082B               	movf	___flmul@a+1,w
  4309  050A  120A  118A  27C9  120A  118A  	fcall	__Umul8_16
  4310  050F  0873               	movf	?__Umul8_16+1,w
  4311  0510  1283               	bcf	3,5	;RP0=0, select bank0
  4312  0511  1303               	bcf	3,6	;RP1=0, select bank0
  4313  0512  00BF               	movwf	___flmul@temp+1
  4314  0513  0872               	movf	?__Umul8_16,w
  4315  0514  00BE               	movwf	___flmul@temp
  4316  0515                     l2829:
  4317  0515  083E               	movf	___flmul@temp,w
  4318  0516  00AE               	movwf	??___flmul
  4319  0517  083F               	movf	___flmul@temp+1,w
  4320  0518  00AF               	movwf	??___flmul+1
  4321  0519  01B0               	clrf	??___flmul+2
  4322  051A  01B1               	clrf	??___flmul+3
  4323  051B  082E               	movf	??___flmul,w
  4324  051C  07B5               	addwf	___flmul@grs,f
  4325  051D  082F               	movf	??___flmul+1,w
  4326  051E  1103               	clrz
  4327  051F  1803               	skipnc
  4328  0520  3E01               	addlw	1
  4329  0521  1903               	skipnz
  4330  0522  2D24               	goto	u3891
  4331  0523  07B6               	addwf	___flmul@grs+1,f
  4332  0524                     u3891:
  4333  0524  0830               	movf	??___flmul+2,w
  4334  0525  1103               	clrz
  4335  0526  1803               	skipnc
  4336  0527  3E01               	addlw	1
  4337  0528  1903               	skipnz
  4338  0529  2D2B               	goto	u3892
  4339  052A  07B7               	addwf	___flmul@grs+2,f
  4340  052B                     u3892:
  4341  052B  0831               	movf	??___flmul+3,w
  4342  052C  1103               	clrz
  4343  052D  1803               	skipnc
  4344  052E  3E01               	addlw	1
  4345  052F  1903               	skipnz
  4346  0530  2D32               	goto	u3893
  4347  0531  07B8               	addwf	___flmul@grs+3,f
  4348  0532                     u3893:
  4349  0532                     l2831:
  4350  0532  3008               	movlw	8
  4351  0533  00AE               	movwf	??___flmul
  4352  0534                     u3905:
  4353  0534  1003               	clrc
  4354  0535  0DB5               	rlf	___flmul@grs,f
  4355  0536  0DB6               	rlf	___flmul@grs+1,f
  4356  0537  0DB7               	rlf	___flmul@grs+2,f
  4357  0538  0DB8               	rlf	___flmul@grs+3,f
  4358  0539  0BAE               	decfsz	??___flmul,f
  4359  053A  2D34               	goto	u3905
  4360  053B  0826               	movf	___flmul@b,w
  4361  053C  00AE               	movwf	??___flmul
  4362  053D  082E               	movf	??___flmul,w
  4363  053E  00F2               	movwf	__Umul8_16@multiplicand
  4364  053F  082A               	movf	___flmul@a,w
  4365  0540  120A  118A  27C9  120A  118A  	fcall	__Umul8_16
  4366  0545  0873               	movf	?__Umul8_16+1,w
  4367  0546  1283               	bcf	3,5	;RP0=0, select bank0
  4368  0547  1303               	bcf	3,6	;RP1=0, select bank0
  4369  0548  00BF               	movwf	___flmul@temp+1
  4370  0549  0872               	movf	?__Umul8_16,w
  4371  054A  00BE               	movwf	___flmul@temp
  4372  054B                     l2833:
  4373  054B  083E               	movf	___flmul@temp,w
  4374  054C  00AE               	movwf	??___flmul
  4375  054D  083F               	movf	___flmul@temp+1,w
  4376  054E  00AF               	movwf	??___flmul+1
  4377  054F  01B0               	clrf	??___flmul+2
  4378  0550  01B1               	clrf	??___flmul+3
  4379  0551  082E               	movf	??___flmul,w
  4380  0552  07B5               	addwf	___flmul@grs,f
  4381  0553  082F               	movf	??___flmul+1,w
  4382  0554  1103               	clrz
  4383  0555  1803               	skipnc
  4384  0556  3E01               	addlw	1
  4385  0557  1903               	skipnz
  4386  0558  2D5A               	goto	u3911
  4387  0559  07B6               	addwf	___flmul@grs+1,f
  4388  055A                     u3911:
  4389  055A  0830               	movf	??___flmul+2,w
  4390  055B  1103               	clrz
  4391  055C  1803               	skipnc
  4392  055D  3E01               	addlw	1
  4393  055E  1903               	skipnz
  4394  055F  2D61               	goto	u3912
  4395  0560  07B7               	addwf	___flmul@grs+2,f
  4396  0561                     u3912:
  4397  0561  0831               	movf	??___flmul+3,w
  4398  0562  1103               	clrz
  4399  0563  1803               	skipnc
  4400  0564  3E01               	addlw	1
  4401  0565  1903               	skipnz
  4402  0566  2D68               	goto	u3913
  4403  0567  07B8               	addwf	___flmul@grs+3,f
  4404  0568                     u3913:
  4405  0568                     l2835:
  4406  0568  0827               	movf	___flmul@b+1,w
  4407  0569  00AE               	movwf	??___flmul
  4408  056A  082E               	movf	??___flmul,w
  4409  056B  00F2               	movwf	__Umul8_16@multiplicand
  4410  056C  082C               	movf	___flmul@a+2,w
  4411  056D  120A  118A  27C9  120A  118A  	fcall	__Umul8_16
  4412  0572  0873               	movf	?__Umul8_16+1,w
  4413  0573  1283               	bcf	3,5	;RP0=0, select bank0
  4414  0574  1303               	bcf	3,6	;RP1=0, select bank0
  4415  0575  00BF               	movwf	___flmul@temp+1
  4416  0576  0872               	movf	?__Umul8_16,w
  4417  0577  00BE               	movwf	___flmul@temp
  4418  0578  083E               	movf	___flmul@temp,w
  4419  0579  00AE               	movwf	??___flmul
  4420  057A  083F               	movf	___flmul@temp+1,w
  4421  057B  00AF               	movwf	??___flmul+1
  4422  057C  01B0               	clrf	??___flmul+2
  4423  057D  01B1               	clrf	??___flmul+3
  4424  057E  082E               	movf	??___flmul,w
  4425  057F  07BA               	addwf	___flmul@prod,f
  4426  0580  082F               	movf	??___flmul+1,w
  4427  0581  1103               	clrz
  4428  0582  1803               	skipnc
  4429  0583  3E01               	addlw	1
  4430  0584  1903               	skipnz
  4431  0585  2D87               	goto	u3921
  4432  0586  07BB               	addwf	___flmul@prod+1,f
  4433  0587                     u3921:
  4434  0587  0830               	movf	??___flmul+2,w
  4435  0588  1103               	clrz
  4436  0589  1803               	skipnc
  4437  058A  3E01               	addlw	1
  4438  058B  1903               	skipnz
  4439  058C  2D8E               	goto	u3922
  4440  058D  07BC               	addwf	___flmul@prod+2,f
  4441  058E                     u3922:
  4442  058E  0831               	movf	??___flmul+3,w
  4443  058F  1103               	clrz
  4444  0590  1803               	skipnc
  4445  0591  3E01               	addlw	1
  4446  0592  1903               	skipnz
  4447  0593  2D95               	goto	u3923
  4448  0594  07BD               	addwf	___flmul@prod+3,f
  4449  0595                     u3923:
  4450  0595                     l2837:
  4451  0595  0828               	movf	___flmul@b+2,w
  4452  0596  00AE               	movwf	??___flmul
  4453  0597  082E               	movf	??___flmul,w
  4454  0598  00F2               	movwf	__Umul8_16@multiplicand
  4455  0599  082B               	movf	___flmul@a+1,w
  4456  059A  120A  118A  27C9  120A  118A  	fcall	__Umul8_16
  4457  059F  0873               	movf	?__Umul8_16+1,w
  4458  05A0  1283               	bcf	3,5	;RP0=0, select bank0
  4459  05A1  1303               	bcf	3,6	;RP1=0, select bank0
  4460  05A2  00BF               	movwf	___flmul@temp+1
  4461  05A3  0872               	movf	?__Umul8_16,w
  4462  05A4  00BE               	movwf	___flmul@temp
  4463  05A5                     l2839:
  4464  05A5  083E               	movf	___flmul@temp,w
  4465  05A6  00AE               	movwf	??___flmul
  4466  05A7  083F               	movf	___flmul@temp+1,w
  4467  05A8  00AF               	movwf	??___flmul+1
  4468  05A9  01B0               	clrf	??___flmul+2
  4469  05AA  01B1               	clrf	??___flmul+3
  4470  05AB  082E               	movf	??___flmul,w
  4471  05AC  07BA               	addwf	___flmul@prod,f
  4472  05AD  082F               	movf	??___flmul+1,w
  4473  05AE  1103               	clrz
  4474  05AF  1803               	skipnc
  4475  05B0  3E01               	addlw	1
  4476  05B1  1903               	skipnz
  4477  05B2  2DB4               	goto	u3931
  4478  05B3  07BB               	addwf	___flmul@prod+1,f
  4479  05B4                     u3931:
  4480  05B4  0830               	movf	??___flmul+2,w
  4481  05B5  1103               	clrz
  4482  05B6  1803               	skipnc
  4483  05B7  3E01               	addlw	1
  4484  05B8  1903               	skipnz
  4485  05B9  2DBB               	goto	u3932
  4486  05BA  07BC               	addwf	___flmul@prod+2,f
  4487  05BB                     u3932:
  4488  05BB  0831               	movf	??___flmul+3,w
  4489  05BC  1103               	clrz
  4490  05BD  1803               	skipnc
  4491  05BE  3E01               	addlw	1
  4492  05BF  1903               	skipnz
  4493  05C0  2DC2               	goto	u3933
  4494  05C1  07BD               	addwf	___flmul@prod+3,f
  4495  05C2                     u3933:
  4496  05C2  0828               	movf	___flmul@b+2,w
  4497  05C3  00AE               	movwf	??___flmul
  4498  05C4  082E               	movf	??___flmul,w
  4499  05C5  00F2               	movwf	__Umul8_16@multiplicand
  4500  05C6  082C               	movf	___flmul@a+2,w
  4501  05C7  120A  118A  27C9  120A  118A  	fcall	__Umul8_16
  4502  05CC  0873               	movf	?__Umul8_16+1,w
  4503  05CD  1283               	bcf	3,5	;RP0=0, select bank0
  4504  05CE  1303               	bcf	3,6	;RP1=0, select bank0
  4505  05CF  00BF               	movwf	___flmul@temp+1
  4506  05D0  0872               	movf	?__Umul8_16,w
  4507  05D1  00BE               	movwf	___flmul@temp
  4508  05D2                     l2841:
  4509  05D2  083E               	movf	___flmul@temp,w
  4510  05D3  00AE               	movwf	??___flmul
  4511  05D4  083F               	movf	___flmul@temp+1,w
  4512  05D5  00AF               	movwf	??___flmul+1
  4513  05D6  01B0               	clrf	??___flmul+2
  4514  05D7  01B1               	clrf	??___flmul+3
  4515  05D8  3008               	movlw	8
  4516  05D9                     u3945:
  4517  05D9  1003               	clrc
  4518  05DA  0DAE               	rlf	??___flmul,f
  4519  05DB  0DAF               	rlf	??___flmul+1,f
  4520  05DC  0DB0               	rlf	??___flmul+2,f
  4521  05DD  0DB1               	rlf	??___flmul+3,f
  4522  05DE                     u3940:
  4523  05DE  3EFF               	addlw	-1
  4524  05DF  1D03               	skipz
  4525  05E0  2DD9               	goto	u3945
  4526  05E1  082E               	movf	??___flmul,w
  4527  05E2  07BA               	addwf	___flmul@prod,f
  4528  05E3  082F               	movf	??___flmul+1,w
  4529  05E4  1103               	clrz
  4530  05E5  1803               	skipnc
  4531  05E6  3E01               	addlw	1
  4532  05E7  1903               	skipnz
  4533  05E8  2DEA               	goto	u3951
  4534  05E9  07BB               	addwf	___flmul@prod+1,f
  4535  05EA                     u3951:
  4536  05EA  0830               	movf	??___flmul+2,w
  4537  05EB  1103               	clrz
  4538  05EC  1803               	skipnc
  4539  05ED  3E01               	addlw	1
  4540  05EE  1903               	skipnz
  4541  05EF  2DF1               	goto	u3952
  4542  05F0  07BC               	addwf	___flmul@prod+2,f
  4543  05F1                     u3952:
  4544  05F1  0831               	movf	??___flmul+3,w
  4545  05F2  1103               	clrz
  4546  05F3  1803               	skipnc
  4547  05F4  3E01               	addlw	1
  4548  05F5  1903               	skipnz
  4549  05F6  2DF8               	goto	u3953
  4550  05F7  07BD               	addwf	___flmul@prod+3,f
  4551  05F8                     u3953:
  4552  05F8                     l2843:
  4553  05F8  0835               	movf	___flmul@grs,w
  4554  05F9  00AE               	movwf	??___flmul
  4555  05FA  0836               	movf	___flmul@grs+1,w
  4556  05FB  00AF               	movwf	??___flmul+1
  4557  05FC  0837               	movf	___flmul@grs+2,w
  4558  05FD  00B0               	movwf	??___flmul+2
  4559  05FE  0838               	movf	___flmul@grs+3,w
  4560  05FF  00B1               	movwf	??___flmul+3
  4561  0600  3018               	movlw	24
  4562  0601                     u3965:
  4563  0601  1003               	clrc
  4564  0602  0CB1               	rrf	??___flmul+3,f
  4565  0603  0CB0               	rrf	??___flmul+2,f
  4566  0604  0CAF               	rrf	??___flmul+1,f
  4567  0605  0CAE               	rrf	??___flmul,f
  4568  0606                     u3960:
  4569  0606  3EFF               	addlw	-1
  4570  0607  1D03               	skipz
  4571  0608  2E01               	goto	u3965
  4572  0609  082E               	movf	??___flmul,w
  4573  060A  07BA               	addwf	___flmul@prod,f
  4574  060B  082F               	movf	??___flmul+1,w
  4575  060C  1103               	clrz
  4576  060D  1803               	skipnc
  4577  060E  3E01               	addlw	1
  4578  060F  1903               	skipnz
  4579  0610  2E12               	goto	u3971
  4580  0611  07BB               	addwf	___flmul@prod+1,f
  4581  0612                     u3971:
  4582  0612  0830               	movf	??___flmul+2,w
  4583  0613  1103               	clrz
  4584  0614  1803               	skipnc
  4585  0615  3E01               	addlw	1
  4586  0616  1903               	skipnz
  4587  0617  2E19               	goto	u3972
  4588  0618  07BC               	addwf	___flmul@prod+2,f
  4589  0619                     u3972:
  4590  0619  0831               	movf	??___flmul+3,w
  4591  061A  1103               	clrz
  4592  061B  1803               	skipnc
  4593  061C  3E01               	addlw	1
  4594  061D  1903               	skipnz
  4595  061E  2E20               	goto	u3973
  4596  061F  07BD               	addwf	___flmul@prod+3,f
  4597  0620                     u3973:
  4598  0620                     l2845:
  4599  0620  3008               	movlw	8
  4600  0621  00AE               	movwf	??___flmul
  4601  0622                     u3985:
  4602  0622  1003               	clrc
  4603  0623  0DB5               	rlf	___flmul@grs,f
  4604  0624  0DB6               	rlf	___flmul@grs+1,f
  4605  0625  0DB7               	rlf	___flmul@grs+2,f
  4606  0626  0DB8               	rlf	___flmul@grs+3,f
  4607  0627  0BAE               	decfsz	??___flmul,f
  4608  0628  2E22               	goto	u3985
  4609  0629                     l2847:
  4610  0629  0839               	movf	___flmul@bexp,w
  4611  062A  0734               	addwf	___flmul@aexp,w
  4612  062B  00AE               	movwf	??___flmul
  4613  062C  01AF               	clrf	??___flmul+1
  4614  062D  0DAF               	rlf	??___flmul+1,f
  4615  062E  082E               	movf	??___flmul,w
  4616  062F  3E82               	addlw	130
  4617  0630  00BE               	movwf	___flmul@temp
  4618  0631  082F               	movf	??___flmul+1,w
  4619  0632  1803               	skipnc
  4620  0633  3E01               	addlw	1
  4621  0634  3EFF               	addlw	255
  4622  0635  00BF               	movwf	___flmul@temp+1
  4623  0636  2E54               	goto	l2859
  4624  0637                     l2849:
  4625  0637  3001               	movlw	1
  4626  0638  00AE               	movwf	??___flmul
  4627  0639                     u3995:
  4628  0639  1003               	clrc
  4629  063A  0DBA               	rlf	___flmul@prod,f
  4630  063B  0DBB               	rlf	___flmul@prod+1,f
  4631  063C  0DBC               	rlf	___flmul@prod+2,f
  4632  063D  0DBD               	rlf	___flmul@prod+3,f
  4633  063E  0BAE               	decfsz	??___flmul,f
  4634  063F  2E39               	goto	u3995
  4635  0640                     l2851:
  4636  0640  1FB8               	btfss	___flmul@grs+3,7
  4637  0641  2E43               	goto	u4001
  4638  0642  2E44               	goto	u4000
  4639  0643                     u4001:
  4640  0643  2E45               	goto	l2855
  4641  0644                     u4000:
  4642  0644                     l2853:
  4643  0644  143A               	bsf	___flmul@prod,0
  4644  0645                     l2855:
  4645  0645  3001               	movlw	1
  4646  0646  00AE               	movwf	??___flmul
  4647  0647                     u4015:
  4648  0647  1003               	clrc
  4649  0648  0DB5               	rlf	___flmul@grs,f
  4650  0649  0DB6               	rlf	___flmul@grs+1,f
  4651  064A  0DB7               	rlf	___flmul@grs+2,f
  4652  064B  0DB8               	rlf	___flmul@grs+3,f
  4653  064C  0BAE               	decfsz	??___flmul,f
  4654  064D  2E47               	goto	u4015
  4655  064E                     l2857:
  4656  064E  30FF               	movlw	255
  4657  064F  07BE               	addwf	___flmul@temp,f
  4658  0650  1803               	skipnc
  4659  0651  0ABF               	incf	___flmul@temp+1,f
  4660  0652  30FF               	movlw	255
  4661  0653  07BF               	addwf	___flmul@temp+1,f
  4662  0654                     l2859:
  4663  0654  1FBC               	btfss	___flmul@prod+2,7
  4664  0655  2E57               	goto	u4021
  4665  0656  2E58               	goto	u4020
  4666  0657                     u4021:
  4667  0657  2E37               	goto	l2849
  4668  0658                     u4020:
  4669  0658                     l2861:
  4670  0658  01B4               	clrf	___flmul@aexp
  4671  0659                     l2863:
  4672  0659  1FB8               	btfss	___flmul@grs+3,7
  4673  065A  2E5C               	goto	u4031
  4674  065B  2E5D               	goto	u4030
  4675  065C                     u4031:
  4676  065C  2E79               	goto	l2871
  4677  065D                     u4030:
  4678  065D                     l2865:
  4679  065D  30FF               	movlw	255
  4680  065E  0535               	andwf	___flmul@grs,w
  4681  065F  00AE               	movwf	??___flmul
  4682  0660  30FF               	movlw	255
  4683  0661  0536               	andwf	___flmul@grs+1,w
  4684  0662  00AF               	movwf	??___flmul+1
  4685  0663  30FF               	movlw	255
  4686  0664  0537               	andwf	___flmul@grs+2,w
  4687  0665  00B0               	movwf	??___flmul+2
  4688  0666  307F               	movlw	127
  4689  0667  0538               	andwf	___flmul@grs+3,w
  4690  0668  00B1               	movwf	??___flmul+3
  4691  0669  0831               	movf	??___flmul+3,w
  4692  066A  0430               	iorwf	??___flmul+2,w
  4693  066B  042F               	iorwf	??___flmul+1,w
  4694  066C  042E               	iorwf	??___flmul,w
  4695  066D  1903               	skipnz
  4696  066E  2E70               	goto	u4041
  4697  066F  2E71               	goto	u4040
  4698  0670                     u4041:
  4699  0670  2E74               	goto	l726
  4700  0671                     u4040:
  4701  0671                     l2867:
  4702  0671  01B4               	clrf	___flmul@aexp
  4703  0672  0AB4               	incf	___flmul@aexp,f
  4704  0673  2E79               	goto	l2871
  4705  0674                     l726:
  4706  0674  1C3A               	btfss	___flmul@prod,0
  4707  0675  2E77               	goto	u4051
  4708  0676  2E78               	goto	u4050
  4709  0677                     u4051:
  4710  0677  2E79               	goto	l2871
  4711  0678                     u4050:
  4712  0678  2E71               	goto	l2867
  4713  0679                     l2871:
  4714  0679  0834               	movf	___flmul@aexp,w
  4715  067A  1903               	btfsc	3,2
  4716  067B  2E7D               	goto	u4061
  4717  067C  2E7E               	goto	u4060
  4718  067D                     u4061:
  4719  067D  2EAF               	goto	l2881
  4720  067E                     u4060:
  4721  067E                     l2873:
  4722  067E  3001               	movlw	1
  4723  067F  07BA               	addwf	___flmul@prod,f
  4724  0680  3000               	movlw	0
  4725  0681  1803               	skipnc
  4726  0682  3001               	movlw	1
  4727  0683  07BB               	addwf	___flmul@prod+1,f
  4728  0684  3000               	movlw	0
  4729  0685  1803               	skipnc
  4730  0686  3001               	movlw	1
  4731  0687  07BC               	addwf	___flmul@prod+2,f
  4732  0688  3000               	movlw	0
  4733  0689  1803               	skipnc
  4734  068A  3001               	movlw	1
  4735  068B  07BD               	addwf	___flmul@prod+3,f
  4736  068C                     l2875:
  4737  068C  1C3D               	btfss	___flmul@prod+3,0
  4738  068D  2E8F               	goto	u4071
  4739  068E  2E90               	goto	u4070
  4740  068F                     u4071:
  4741  068F  2EAF               	goto	l2881
  4742  0690                     u4070:
  4743  0690                     l2877:
  4744  0690  083A               	movf	___flmul@prod,w
  4745  0691  00AE               	movwf	??___flmul
  4746  0692  083B               	movf	___flmul@prod+1,w
  4747  0693  00AF               	movwf	??___flmul+1
  4748  0694  083C               	movf	___flmul@prod+2,w
  4749  0695  00B0               	movwf	??___flmul+2
  4750  0696  083D               	movf	___flmul@prod+3,w
  4751  0697  00B1               	movwf	??___flmul+3
  4752  0698  3001               	movlw	1
  4753  0699  00B2               	movwf	??___flmul+4
  4754  069A                     u4085:
  4755  069A  0D31               	rlf	??___flmul+3,w
  4756  069B  0CB1               	rrf	??___flmul+3,f
  4757  069C  0CB0               	rrf	??___flmul+2,f
  4758  069D  0CAF               	rrf	??___flmul+1,f
  4759  069E  0CAE               	rrf	??___flmul,f
  4760  069F                     u4080:
  4761  069F  0BB2               	decfsz	??___flmul+4,f
  4762  06A0  2E9A               	goto	u4085
  4763  06A1  0831               	movf	??___flmul+3,w
  4764  06A2  00BD               	movwf	___flmul@prod+3
  4765  06A3  0830               	movf	??___flmul+2,w
  4766  06A4  00BC               	movwf	___flmul@prod+2
  4767  06A5  082F               	movf	??___flmul+1,w
  4768  06A6  00BB               	movwf	___flmul@prod+1
  4769  06A7  082E               	movf	??___flmul,w
  4770  06A8  00BA               	movwf	___flmul@prod
  4771  06A9                     l2879:
  4772  06A9  3001               	movlw	1
  4773  06AA  07BE               	addwf	___flmul@temp,f
  4774  06AB  1803               	skipnc
  4775  06AC  0ABF               	incf	___flmul@temp+1,f
  4776  06AD  3000               	movlw	0
  4777  06AE  07BF               	addwf	___flmul@temp+1,f
  4778  06AF                     l2881:
  4779  06AF  083F               	movf	___flmul@temp+1,w
  4780  06B0  3A80               	xorlw	128
  4781  06B1  00FF               	movwf	btemp+1
  4782  06B2  3080               	movlw	128
  4783  06B3  027F               	subwf	btemp+1,w
  4784  06B4  1D03               	skipz
  4785  06B5  2EB8               	goto	u4095
  4786  06B6  30FF               	movlw	255
  4787  06B7  023E               	subwf	___flmul@temp,w
  4788  06B8                     u4095:
  4789  06B8  1C03               	skipc
  4790  06B9  2EBB               	goto	u4091
  4791  06BA  2EBC               	goto	u4090
  4792  06BB                     u4091:
  4793  06BB  2EC7               	goto	l2885
  4794  06BC                     u4090:
  4795  06BC                     l2883:
  4796  06BC  307F               	movlw	127
  4797  06BD  1283               	bcf	3,5	;RP0=0, select bank0
  4798  06BE  1303               	bcf	3,6	;RP1=0, select bank0
  4799  06BF  00BD               	movwf	___flmul@prod+3
  4800  06C0  3080               	movlw	128
  4801  06C1  00BC               	movwf	___flmul@prod+2
  4802  06C2  3000               	movlw	0
  4803  06C3  00BB               	movwf	___flmul@prod+1
  4804  06C4  3000               	movlw	0
  4805  06C5  00BA               	movwf	___flmul@prod
  4806  06C6  2EFC               	goto	l732
  4807  06C7                     l2885:
  4808  06C7  1283               	bcf	3,5	;RP0=0, select bank0
  4809  06C8  1303               	bcf	3,6	;RP1=0, select bank0
  4810  06C9  083F               	movf	___flmul@temp+1,w
  4811  06CA  3A80               	xorlw	128
  4812  06CB  00FF               	movwf	btemp+1
  4813  06CC  3080               	movlw	128
  4814  06CD  027F               	subwf	btemp+1,w
  4815  06CE  1D03               	skipz
  4816  06CF  2ED2               	goto	u4105
  4817  06D0  3001               	movlw	1
  4818  06D1  023E               	subwf	___flmul@temp,w
  4819  06D2                     u4105:
  4820  06D2  1803               	skipnc
  4821  06D3  2ED5               	goto	u4101
  4822  06D4  2ED6               	goto	u4100
  4823  06D5                     u4101:
  4824  06D5  2EE2               	goto	l2891
  4825  06D6                     u4100:
  4826  06D6                     l2887:
  4827  06D6  3000               	movlw	0
  4828  06D7  1283               	bcf	3,5	;RP0=0, select bank0
  4829  06D8  1303               	bcf	3,6	;RP1=0, select bank0
  4830  06D9  00BD               	movwf	___flmul@prod+3
  4831  06DA  3000               	movlw	0
  4832  06DB  00BC               	movwf	___flmul@prod+2
  4833  06DC  3000               	movlw	0
  4834  06DD  00BB               	movwf	___flmul@prod+1
  4835  06DE  3000               	movlw	0
  4836  06DF  00BA               	movwf	___flmul@prod
  4837  06E0                     l2889:
  4838  06E0  01B3               	clrf	___flmul@sign
  4839  06E1  2EFC               	goto	l732
  4840  06E2                     l2891:
  4841  06E2  1283               	bcf	3,5	;RP0=0, select bank0
  4842  06E3  1303               	bcf	3,6	;RP1=0, select bank0
  4843  06E4  083E               	movf	___flmul@temp,w
  4844  06E5  00AE               	movwf	??___flmul
  4845  06E6  082E               	movf	??___flmul,w
  4846  06E7  00B9               	movwf	___flmul@bexp
  4847  06E8  30FF               	movlw	255
  4848  06E9  05BA               	andwf	___flmul@prod,f
  4849  06EA  30FF               	movlw	255
  4850  06EB  05BB               	andwf	___flmul@prod+1,f
  4851  06EC  307F               	movlw	127
  4852  06ED  05BC               	andwf	___flmul@prod+2,f
  4853  06EE  3000               	movlw	0
  4854  06EF  05BD               	andwf	___flmul@prod+3,f
  4855  06F0                     l2893:
  4856  06F0  1C39               	btfss	___flmul@bexp,0
  4857  06F1  2EF3               	goto	u4111
  4858  06F2  2EF4               	goto	u4110
  4859  06F3                     u4111:
  4860  06F3  2EF5               	goto	l2897
  4861  06F4                     u4110:
  4862  06F4                     l2895:
  4863  06F4  17BC               	bsf	___flmul@prod+2,7
  4864  06F5                     l2897:
  4865  06F5  0839               	movf	___flmul@bexp,w
  4866  06F6  00AE               	movwf	??___flmul
  4867  06F7  1003               	clrc
  4868  06F8  0C2E               	rrf	??___flmul,w
  4869  06F9  00AF               	movwf	??___flmul+1
  4870  06FA  082F               	movf	??___flmul+1,w
  4871  06FB  00BD               	movwf	___flmul@prod+3
  4872  06FC                     l732:
  4873  06FC  0833               	movf	___flmul@sign,w
  4874  06FD  00AE               	movwf	??___flmul
  4875  06FE  082E               	movf	??___flmul,w
  4876  06FF  04BD               	iorwf	___flmul@prod+3,f
  4877  0700                     l2899:
  4878  0700  083D               	movf	___flmul@prod+3,w
  4879  0701  00A9               	movwf	?___flmul+3
  4880  0702  083C               	movf	___flmul@prod+2,w
  4881  0703  00A8               	movwf	?___flmul+2
  4882  0704  083B               	movf	___flmul@prod+1,w
  4883  0705  00A7               	movwf	?___flmul+1
  4884  0706  083A               	movf	___flmul@prod,w
  4885  0707  00A6               	movwf	?___flmul
  4886  0708                     l720:
  4887  0708  0008               	return
  4888  0709                     __end_of___flmul:
  4889                           
  4890                           	psect	text9
  4891  07C9                     __ptext9:	
  4892 ;; *************** function __Umul8_16 *****************
  4893 ;; Defined at:
  4894 ;;		line 4 in file "C:\Program Files\Microchip\xc8\v2.31\pic\sources\c90\common\Umul8_16.c"
  4895 ;; Parameters:    Size  Location     Type
  4896 ;;  multiplier      1    wreg     unsigned char 
  4897 ;;  multiplicand    1    2[COMMON] unsigned char 
  4898 ;; Auto vars:     Size  Location     Type
  4899 ;;  multiplier      1    4[BANK0 ] unsigned char 
  4900 ;;  word_mpld       2    2[BANK0 ] unsigned int 
  4901 ;;  product         2    0[BANK0 ] unsigned int 
  4902 ;; Return value:  Size  Location     Type
  4903 ;;                  2    2[COMMON] unsigned int 
  4904 ;; Registers used:
  4905 ;;		wreg, status,2, status,0
  4906 ;; Tracked objects:
  4907 ;;		On entry : 0/0
  4908 ;;		On exit  : 0/0
  4909 ;;		Unchanged: 0/0
  4910 ;; Data sizes:     COMMON   BANK0   BANK1   BANK3   BANK2
  4911 ;;      Params:         2       0       0       0       0
  4912 ;;      Locals:         0       5       0       0       0
  4913 ;;      Temps:          2       0       0       0       0
  4914 ;;      Totals:         4       5       0       0       0
  4915 ;;Total ram usage:        9 bytes
  4916 ;; Hardware stack levels used:    1
  4917 ;; Hardware stack levels required when called:    1
  4918 ;; This function calls:
  4919 ;;		Nothing
  4920 ;; This function is called by:
  4921 ;;		___flmul
  4922 ;; This function uses a non-reentrant model
  4923 ;;
  4924                           
  4925                           
  4926                           ;psect for function __Umul8_16
  4927  07C9                     __Umul8_16:
  4928                           
  4929                           ;incstack = 0
  4930                           ; Regs used in __Umul8_16: [wreg+status,2+status,0]
  4931                           ;__Umul8_16@multiplier stored from wreg
  4932  07C9  1283               	bcf	3,5	;RP0=0, select bank0
  4933  07CA  1303               	bcf	3,6	;RP1=0, select bank0
  4934  07CB  00A4               	movwf	__Umul8_16@multiplier
  4935  07CC                     l2713:
  4936  07CC  01A0               	clrf	__Umul8_16@product
  4937  07CD  01A1               	clrf	__Umul8_16@product+1
  4938  07CE                     l2715:
  4939  07CE  0872               	movf	__Umul8_16@multiplicand,w
  4940  07CF  00F4               	movwf	??__Umul8_16
  4941  07D0  01F5               	clrf	??__Umul8_16+1
  4942  07D1  0874               	movf	??__Umul8_16,w
  4943  07D2  00A2               	movwf	__Umul8_16@word_mpld
  4944  07D3  0875               	movf	??__Umul8_16+1,w
  4945  07D4  00A3               	movwf	__Umul8_16@word_mpld+1
  4946  07D5                     l2717:
  4947  07D5  1C24               	btfss	__Umul8_16@multiplier,0
  4948  07D6  2FD8               	goto	u3621
  4949  07D7  2FD9               	goto	u3620
  4950  07D8                     u3621:
  4951  07D8  2FDF               	goto	l739
  4952  07D9                     u3620:
  4953  07D9                     l2719:
  4954  07D9  0822               	movf	__Umul8_16@word_mpld,w
  4955  07DA  07A0               	addwf	__Umul8_16@product,f
  4956  07DB  1803               	skipnc
  4957  07DC  0AA1               	incf	__Umul8_16@product+1,f
  4958  07DD  0823               	movf	__Umul8_16@word_mpld+1,w
  4959  07DE  07A1               	addwf	__Umul8_16@product+1,f
  4960  07DF                     l739:
  4961  07DF  3001               	movlw	1
  4962  07E0                     u3635:
  4963  07E0  1003               	clrc
  4964  07E1  0DA2               	rlf	__Umul8_16@word_mpld,f
  4965  07E2  0DA3               	rlf	__Umul8_16@word_mpld+1,f
  4966  07E3  3EFF               	addlw	-1
  4967  07E4  1D03               	skipz
  4968  07E5  2FE0               	goto	u3635
  4969  07E6  1003               	clrc
  4970  07E7  0CA4               	rrf	__Umul8_16@multiplier,f
  4971  07E8                     l2721:
  4972  07E8  0824               	movf	__Umul8_16@multiplier,w
  4973  07E9  1D03               	btfss	3,2
  4974  07EA  2FEC               	goto	u3641
  4975  07EB  2FED               	goto	u3640
  4976  07EC                     u3641:
  4977  07EC  2FD5               	goto	l2717
  4978  07ED                     u3640:
  4979  07ED                     l2723:
  4980  07ED  0821               	movf	__Umul8_16@product+1,w
  4981  07EE  00F3               	movwf	?__Umul8_16+1
  4982  07EF  0820               	movf	__Umul8_16@product,w
  4983  07F0  00F2               	movwf	?__Umul8_16
  4984  07F1                     l741:
  4985  07F1  0008               	return
  4986  07F2                     __end_of__Umul8_16:
  4987                           
  4988                           	psect	text10
  4989  0A3B                     __ptext10:	
  4990 ;; *************** function ___flge *****************
  4991 ;; Defined at:
  4992 ;;		line 4 in file "C:\Program Files\Microchip\xc8\v2.31\pic\sources\c90\common\flge.c"
  4993 ;; Parameters:    Size  Location     Type
  4994 ;;  ff1             4    2[COMMON] unsigned int 
  4995 ;;  ff2             4    6[COMMON] unsigned int 
  4996 ;; Auto vars:     Size  Location     Type
  4997 ;;		None
  4998 ;; Return value:  Size  Location     Type
  4999 ;;		None               void
  5000 ;; Registers used:
  5001 ;;		wreg, status,2, status,0
  5002 ;; Tracked objects:
  5003 ;;		On entry : 0/0
  5004 ;;		On exit  : 0/0
  5005 ;;		Unchanged: 0/0
  5006 ;; Data sizes:     COMMON   BANK0   BANK1   BANK3   BANK2
  5007 ;;      Params:         8       0       0       0       0
  5008 ;;      Locals:         0       0       0       0       0
  5009 ;;      Temps:          0       4       0       0       0
  5010 ;;      Totals:         8       4       0       0       0
  5011 ;;Total ram usage:       12 bytes
  5012 ;; Hardware stack levels used:    1
  5013 ;; Hardware stack levels required when called:    1
  5014 ;; This function calls:
  5015 ;;		Nothing
  5016 ;; This function is called by:
  5017 ;;		_floattostr_
  5018 ;; This function uses a non-reentrant model
  5019 ;;
  5020                           
  5021                           
  5022                           ;psect for function ___flge
  5023  0A3B                     ___flge:
  5024  0A3B                     l2041:	
  5025                           ;incstack = 0
  5026                           ; Regs used in ___flge: [wreg+status,2+status,0]
  5027                           
  5028  0A3B  3000               	movlw	0
  5029  0A3C  0572               	andwf	___flge@ff1,w
  5030  0A3D  1283               	bcf	3,5	;RP0=0, select bank0
  5031  0A3E  1303               	bcf	3,6	;RP1=0, select bank0
  5032  0A3F  00A0               	movwf	??___flge
  5033  0A40  3000               	movlw	0
  5034  0A41  0573               	andwf	___flge@ff1+1,w
  5035  0A42  00A1               	movwf	??___flge+1
  5036  0A43  3080               	movlw	128
  5037  0A44  0574               	andwf	___flge@ff1+2,w
  5038  0A45  00A2               	movwf	??___flge+2
  5039  0A46  307F               	movlw	127
  5040  0A47  0575               	andwf	___flge@ff1+3,w
  5041  0A48  00A3               	movwf	??___flge+3
  5042  0A49  0823               	movf	??___flge+3,w
  5043  0A4A  0422               	iorwf	??___flge+2,w
  5044  0A4B  0421               	iorwf	??___flge+1,w
  5045  0A4C  0420               	iorwf	??___flge,w
  5046  0A4D  1D03               	skipz
  5047  0A4E  2A50               	goto	u2321
  5048  0A4F  2A51               	goto	u2320
  5049  0A50                     u2321:
  5050  0A50  2A59               	goto	l505
  5051  0A51                     u2320:
  5052  0A51                     l2043:
  5053  0A51  3000               	movlw	0
  5054  0A52  00F5               	movwf	___flge@ff1+3
  5055  0A53  3000               	movlw	0
  5056  0A54  00F4               	movwf	___flge@ff1+2
  5057  0A55  3000               	movlw	0
  5058  0A56  00F3               	movwf	___flge@ff1+1
  5059  0A57  3000               	movlw	0
  5060  0A58  00F2               	movwf	___flge@ff1
  5061  0A59                     l505:
  5062  0A59  3000               	movlw	0
  5063  0A5A  0576               	andwf	___flge@ff2,w
  5064  0A5B  00A0               	movwf	??___flge
  5065  0A5C  3000               	movlw	0
  5066  0A5D  0577               	andwf	___flge@ff2+1,w
  5067  0A5E  00A1               	movwf	??___flge+1
  5068  0A5F  3080               	movlw	128
  5069  0A60  0578               	andwf	___flge@ff2+2,w
  5070  0A61  00A2               	movwf	??___flge+2
  5071  0A62  307F               	movlw	127
  5072  0A63  0579               	andwf	___flge@ff2+3,w
  5073  0A64  00A3               	movwf	??___flge+3
  5074  0A65  0823               	movf	??___flge+3,w
  5075  0A66  0422               	iorwf	??___flge+2,w
  5076  0A67  0421               	iorwf	??___flge+1,w
  5077  0A68  0420               	iorwf	??___flge,w
  5078  0A69  1D03               	skipz
  5079  0A6A  2A6C               	goto	u2331
  5080  0A6B  2A6D               	goto	u2330
  5081  0A6C                     u2331:
  5082  0A6C  2A75               	goto	l2047
  5083  0A6D                     u2330:
  5084  0A6D                     l2045:
  5085  0A6D  3000               	movlw	0
  5086  0A6E  00F9               	movwf	___flge@ff2+3
  5087  0A6F  3000               	movlw	0
  5088  0A70  00F8               	movwf	___flge@ff2+2
  5089  0A71  3000               	movlw	0
  5090  0A72  00F7               	movwf	___flge@ff2+1
  5091  0A73  3000               	movlw	0
  5092  0A74  00F6               	movwf	___flge@ff2
  5093  0A75                     l2047:
  5094  0A75  1FF5               	btfss	___flge@ff1+3,7
  5095  0A76  2A78               	goto	u2341
  5096  0A77  2A79               	goto	u2340
  5097  0A78                     u2341:
  5098  0A78  2A9D               	goto	l2051
  5099  0A79                     u2340:
  5100  0A79                     l2049:
  5101  0A79  3000               	movlw	0
  5102  0A7A  00A0               	movwf	??___flge
  5103  0A7B  3000               	movlw	0
  5104  0A7C  00A1               	movwf	??___flge+1
  5105  0A7D  3000               	movlw	0
  5106  0A7E  00A2               	movwf	??___flge+2
  5107  0A7F  3080               	movlw	128
  5108  0A80  00A3               	movwf	??___flge+3
  5109  0A81  0872               	movf	___flge@ff1,w
  5110  0A82  02A0               	subwf	??___flge,f
  5111  0A83  0873               	movf	___flge@ff1+1,w
  5112  0A84  1C03               	skipc
  5113  0A85  0F73               	incfsz	___flge@ff1+1,w
  5114  0A86  2A88               	goto	u2351
  5115  0A87  2A89               	goto	u2352
  5116  0A88                     u2351:
  5117  0A88  02A1               	subwf	??___flge+1,f
  5118  0A89                     u2352:
  5119  0A89  0874               	movf	___flge@ff1+2,w
  5120  0A8A  1C03               	skipc
  5121  0A8B  0F74               	incfsz	___flge@ff1+2,w
  5122  0A8C  2A8E               	goto	u2353
  5123  0A8D  2A8F               	goto	u2354
  5124  0A8E                     u2353:
  5125  0A8E  02A2               	subwf	??___flge+2,f
  5126  0A8F                     u2354:
  5127  0A8F  0875               	movf	___flge@ff1+3,w
  5128  0A90  1C03               	skipc
  5129  0A91  0F75               	incfsz	___flge@ff1+3,w
  5130  0A92  2A94               	goto	u2355
  5131  0A93  2A95               	goto	u2356
  5132  0A94                     u2355:
  5133  0A94  02A3               	subwf	??___flge+3,f
  5134  0A95                     u2356:
  5135  0A95  0823               	movf	??___flge+3,w
  5136  0A96  00F5               	movwf	___flge@ff1+3
  5137  0A97  0822               	movf	??___flge+2,w
  5138  0A98  00F4               	movwf	___flge@ff1+2
  5139  0A99  0821               	movf	??___flge+1,w
  5140  0A9A  00F3               	movwf	___flge@ff1+1
  5141  0A9B  0820               	movf	??___flge,w
  5142  0A9C  00F2               	movwf	___flge@ff1
  5143  0A9D                     l2051:
  5144  0A9D  1FF9               	btfss	___flge@ff2+3,7
  5145  0A9E  2AA0               	goto	u2361
  5146  0A9F  2AA1               	goto	u2360
  5147  0AA0                     u2361:
  5148  0AA0  2AC5               	goto	l508
  5149  0AA1                     u2360:
  5150  0AA1                     l2053:
  5151  0AA1  3000               	movlw	0
  5152  0AA2  00A0               	movwf	??___flge
  5153  0AA3  3000               	movlw	0
  5154  0AA4  00A1               	movwf	??___flge+1
  5155  0AA5  3000               	movlw	0
  5156  0AA6  00A2               	movwf	??___flge+2
  5157  0AA7  3080               	movlw	128
  5158  0AA8  00A3               	movwf	??___flge+3
  5159  0AA9  0876               	movf	___flge@ff2,w
  5160  0AAA  02A0               	subwf	??___flge,f
  5161  0AAB  0877               	movf	___flge@ff2+1,w
  5162  0AAC  1C03               	skipc
  5163  0AAD  0F77               	incfsz	___flge@ff2+1,w
  5164  0AAE  2AB0               	goto	u2371
  5165  0AAF  2AB1               	goto	u2372
  5166  0AB0                     u2371:
  5167  0AB0  02A1               	subwf	??___flge+1,f
  5168  0AB1                     u2372:
  5169  0AB1  0878               	movf	___flge@ff2+2,w
  5170  0AB2  1C03               	skipc
  5171  0AB3  0F78               	incfsz	___flge@ff2+2,w
  5172  0AB4  2AB6               	goto	u2373
  5173  0AB5  2AB7               	goto	u2374
  5174  0AB6                     u2373:
  5175  0AB6  02A2               	subwf	??___flge+2,f
  5176  0AB7                     u2374:
  5177  0AB7  0879               	movf	___flge@ff2+3,w
  5178  0AB8  1C03               	skipc
  5179  0AB9  0F79               	incfsz	___flge@ff2+3,w
  5180  0ABA  2ABC               	goto	u2375
  5181  0ABB  2ABD               	goto	u2376
  5182  0ABC                     u2375:
  5183  0ABC  02A3               	subwf	??___flge+3,f
  5184  0ABD                     u2376:
  5185  0ABD  0823               	movf	??___flge+3,w
  5186  0ABE  00F9               	movwf	___flge@ff2+3
  5187  0ABF  0822               	movf	??___flge+2,w
  5188  0AC0  00F8               	movwf	___flge@ff2+2
  5189  0AC1  0821               	movf	??___flge+1,w
  5190  0AC2  00F7               	movwf	___flge@ff2+1
  5191  0AC3  0820               	movf	??___flge,w
  5192  0AC4  00F6               	movwf	___flge@ff2
  5193  0AC5                     l508:
  5194  0AC5  3080               	movlw	128
  5195  0AC6  06F5               	xorwf	___flge@ff1+3,f
  5196  0AC7  3080               	movlw	128
  5197  0AC8  06F9               	xorwf	___flge@ff2+3,f
  5198  0AC9  0879               	movf	___flge@ff2+3,w
  5199  0ACA  0275               	subwf	___flge@ff1+3,w
  5200  0ACB  1D03               	skipz
  5201  0ACC  2AD7               	goto	u2385
  5202  0ACD  0878               	movf	___flge@ff2+2,w
  5203  0ACE  0274               	subwf	___flge@ff1+2,w
  5204  0ACF  1D03               	skipz
  5205  0AD0  2AD7               	goto	u2385
  5206  0AD1  0877               	movf	___flge@ff2+1,w
  5207  0AD2  0273               	subwf	___flge@ff1+1,w
  5208  0AD3  1D03               	skipz
  5209  0AD4  2AD7               	goto	u2385
  5210  0AD5  0876               	movf	___flge@ff2,w
  5211  0AD6  0272               	subwf	___flge@ff1,w
  5212  0AD7                     u2385:
  5213  0AD7  1803               	skipnc
  5214  0AD8  2ADA               	goto	u2381
  5215  0AD9  2ADB               	goto	u2380
  5216  0ADA                     u2381:
  5217  0ADA  2ADD               	goto	l2057
  5218  0ADB                     u2380:
  5219  0ADB                     l2055:
  5220  0ADB  1003               	clrc
  5221  0ADC  2ADE               	goto	l509
  5222  0ADD                     l2057:
  5223  0ADD  1403               	setc
  5224  0ADE                     l509:
  5225  0ADE  0008               	return
  5226  0ADF                     __end_of___flge:
  5227                           
  5228                           	psect	text11
  5229  0B9B                     __ptext11:	
  5230 ;; *************** function ___fldiv *****************
  5231 ;; Defined at:
  5232 ;;		line 8 in file "C:\Program Files\Microchip\xc8\v2.31\pic\sources\c90\common\sprcdiv.c"
  5233 ;; Parameters:    Size  Location     Type
  5234 ;;  a               4   32[BANK0 ] unsigned int 
  5235 ;;  b               4   36[BANK0 ] unsigned int 
  5236 ;; Auto vars:     Size  Location     Type
  5237 ;;  grs             4   52[BANK0 ] unsigned long 
  5238 ;;  rem             4   45[BANK0 ] unsigned long 
  5239 ;;  new_exp         2   50[BANK0 ] int 
  5240 ;;  aexp            1   57[BANK0 ] unsigned char 
  5241 ;;  bexp            1   56[BANK0 ] unsigned char 
  5242 ;;  sign            1   49[BANK0 ] unsigned char 
  5243 ;; Return value:  Size  Location     Type
  5244 ;;                  4   32[BANK0 ] unsigned char 
  5245 ;; Registers used:
  5246 ;;		wreg, status,2, status,0, btemp+1
  5247 ;; Tracked objects:
  5248 ;;		On entry : 0/0
  5249 ;;		On exit  : 0/0
  5250 ;;		Unchanged: 0/0
  5251 ;; Data sizes:     COMMON   BANK0   BANK1   BANK3   BANK2
  5252 ;;      Params:         0       8       0       0       0
  5253 ;;      Locals:         0      13       0       0       0
  5254 ;;      Temps:          0       5       0       0       0
  5255 ;;      Totals:         0      26       0       0       0
  5256 ;;Total ram usage:       26 bytes
  5257 ;; Hardware stack levels used:    1
  5258 ;; Hardware stack levels required when called:    1
  5259 ;; This function calls:
  5260 ;;		Nothing
  5261 ;; This function is called by:
  5262 ;;		_main
  5263 ;;		_floattostr_
  5264 ;; This function uses a non-reentrant model
  5265 ;;
  5266                           
  5267                           
  5268                           ;psect for function ___fldiv
  5269  0B9B                     ___fldiv:
  5270  0B9B                     l2111:	
  5271                           ;incstack = 0
  5272                           ; Regs used in ___fldiv: [wreg+status,2+status,0+btemp+1]
  5273                           
  5274  0B9B  1283               	bcf	3,5	;RP0=0, select bank0
  5275  0B9C  1303               	bcf	3,6	;RP1=0, select bank0
  5276  0B9D  0847               	movf	___fldiv@b+3,w
  5277  0B9E  3980               	andlw	128
  5278  0B9F  00C8               	movwf	??___fldiv
  5279  0BA0  0848               	movf	??___fldiv,w
  5280  0BA1  00D1               	movwf	___fldiv@sign
  5281  0BA2                     l2113:
  5282  0BA2  0847               	movf	___fldiv@b+3,w
  5283  0BA3  00C8               	movwf	??___fldiv
  5284  0BA4  0748               	addwf	??___fldiv,w
  5285  0BA5  00C9               	movwf	??___fldiv+1
  5286  0BA6  0849               	movf	??___fldiv+1,w
  5287  0BA7  00D8               	movwf	___fldiv@bexp
  5288  0BA8                     l2115:
  5289  0BA8  1FC6               	btfss	___fldiv@b+2,7
  5290  0BA9  2BAB               	goto	u2501
  5291  0BAA  2BAC               	goto	u2500
  5292  0BAB                     u2501:
  5293  0BAB  2BAD               	goto	l2119
  5294  0BAC                     u2500:
  5295  0BAC                     l2117:
  5296  0BAC  1458               	bsf	___fldiv@bexp,0
  5297  0BAD                     l2119:
  5298  0BAD  0858               	movf	___fldiv@bexp,w
  5299  0BAE  1903               	btfsc	3,2
  5300  0BAF  2BB1               	goto	u2511
  5301  0BB0  2BB2               	goto	u2510
  5302  0BB1                     u2511:
  5303  0BB1  2BC2               	goto	l2129
  5304  0BB2                     u2510:
  5305  0BB2                     l2121:
  5306  0BB2  0A58               	incf	___fldiv@bexp,w
  5307  0BB3  1D03               	btfss	3,2
  5308  0BB4  2BB6               	goto	u2521
  5309  0BB5  2BB7               	goto	u2520
  5310  0BB6                     u2521:
  5311  0BB6  2BBF               	goto	l2125
  5312  0BB7                     u2520:
  5313  0BB7                     l2123:
  5314  0BB7  3000               	movlw	0
  5315  0BB8  00C7               	movwf	___fldiv@b+3
  5316  0BB9  3000               	movlw	0
  5317  0BBA  00C6               	movwf	___fldiv@b+2
  5318  0BBB  3000               	movlw	0
  5319  0BBC  00C5               	movwf	___fldiv@b+1
  5320  0BBD  3000               	movlw	0
  5321  0BBE  00C4               	movwf	___fldiv@b
  5322  0BBF                     l2125:
  5323  0BBF  17C6               	bsf	___fldiv@b+2,7
  5324  0BC0                     l2127:
  5325  0BC0  01C7               	clrf	___fldiv@b+3
  5326  0BC1  2BCA               	goto	l2131
  5327  0BC2                     l2129:
  5328  0BC2  3000               	movlw	0
  5329  0BC3  00C7               	movwf	___fldiv@b+3
  5330  0BC4  3000               	movlw	0
  5331  0BC5  00C6               	movwf	___fldiv@b+2
  5332  0BC6  3000               	movlw	0
  5333  0BC7  00C5               	movwf	___fldiv@b+1
  5334  0BC8  3000               	movlw	0
  5335  0BC9  00C4               	movwf	___fldiv@b
  5336  0BCA                     l2131:
  5337  0BCA  0843               	movf	___fldiv@a+3,w
  5338  0BCB  3980               	andlw	128
  5339  0BCC  00C8               	movwf	??___fldiv
  5340  0BCD  0848               	movf	??___fldiv,w
  5341  0BCE  06D1               	xorwf	___fldiv@sign,f
  5342  0BCF                     l2133:
  5343  0BCF  0843               	movf	___fldiv@a+3,w
  5344  0BD0  00C8               	movwf	??___fldiv
  5345  0BD1  0748               	addwf	??___fldiv,w
  5346  0BD2  00C9               	movwf	??___fldiv+1
  5347  0BD3  0849               	movf	??___fldiv+1,w
  5348  0BD4  00D9               	movwf	___fldiv@aexp
  5349  0BD5                     l2135:
  5350  0BD5  1FC2               	btfss	___fldiv@a+2,7
  5351  0BD6  2BD8               	goto	u2531
  5352  0BD7  2BD9               	goto	u2530
  5353  0BD8                     u2531:
  5354  0BD8  2BDA               	goto	l2139
  5355  0BD9                     u2530:
  5356  0BD9                     l2137:
  5357  0BD9  1459               	bsf	___fldiv@aexp,0
  5358  0BDA                     l2139:
  5359  0BDA  0859               	movf	___fldiv@aexp,w
  5360  0BDB  1903               	btfsc	3,2
  5361  0BDC  2BDE               	goto	u2541
  5362  0BDD  2BDF               	goto	u2540
  5363  0BDE                     u2541:
  5364  0BDE  2BEF               	goto	l2149
  5365  0BDF                     u2540:
  5366  0BDF                     l2141:
  5367  0BDF  0A59               	incf	___fldiv@aexp,w
  5368  0BE0  1D03               	btfss	3,2
  5369  0BE1  2BE3               	goto	u2551
  5370  0BE2  2BE4               	goto	u2550
  5371  0BE3                     u2551:
  5372  0BE3  2BEC               	goto	l2145
  5373  0BE4                     u2550:
  5374  0BE4                     l2143:
  5375  0BE4  3000               	movlw	0
  5376  0BE5  00C3               	movwf	___fldiv@a+3
  5377  0BE6  3000               	movlw	0
  5378  0BE7  00C2               	movwf	___fldiv@a+2
  5379  0BE8  3000               	movlw	0
  5380  0BE9  00C1               	movwf	___fldiv@a+1
  5381  0BEA  3000               	movlw	0
  5382  0BEB  00C0               	movwf	___fldiv@a
  5383  0BEC                     l2145:
  5384  0BEC  17C2               	bsf	___fldiv@a+2,7
  5385  0BED                     l2147:
  5386  0BED  01C3               	clrf	___fldiv@a+3
  5387  0BEE  2BF7               	goto	l680
  5388  0BEF                     l2149:
  5389  0BEF  3000               	movlw	0
  5390  0BF0  00C3               	movwf	___fldiv@a+3
  5391  0BF1  3000               	movlw	0
  5392  0BF2  00C2               	movwf	___fldiv@a+2
  5393  0BF3  3000               	movlw	0
  5394  0BF4  00C1               	movwf	___fldiv@a+1
  5395  0BF5  3000               	movlw	0
  5396  0BF6  00C0               	movwf	___fldiv@a
  5397  0BF7                     l680:
  5398  0BF7  0843               	movf	___fldiv@a+3,w
  5399  0BF8  0442               	iorwf	___fldiv@a+2,w
  5400  0BF9  0441               	iorwf	___fldiv@a+1,w
  5401  0BFA  0440               	iorwf	___fldiv@a,w
  5402  0BFB  1D03               	skipz
  5403  0BFC  2BFE               	goto	u2561
  5404  0BFD  2BFF               	goto	u2560
  5405  0BFE                     u2561:
  5406  0BFE  2C18               	goto	l2159
  5407  0BFF                     u2560:
  5408  0BFF                     l2151:
  5409  0BFF  3000               	movlw	0
  5410  0C00  00C7               	movwf	___fldiv@b+3
  5411  0C01  3000               	movlw	0
  5412  0C02  00C6               	movwf	___fldiv@b+2
  5413  0C03  3000               	movlw	0
  5414  0C04  00C5               	movwf	___fldiv@b+1
  5415  0C05  3000               	movlw	0
  5416  0C06  00C4               	movwf	___fldiv@b
  5417  0C07  3080               	movlw	128
  5418  0C08  04C6               	iorwf	___fldiv@b+2,f
  5419  0C09  307F               	movlw	127
  5420  0C0A  04C7               	iorwf	___fldiv@b+3,f
  5421  0C0B                     l2153:
  5422  0C0B  0851               	movf	___fldiv@sign,w
  5423  0C0C  00C8               	movwf	??___fldiv
  5424  0C0D  0848               	movf	??___fldiv,w
  5425  0C0E  04C7               	iorwf	___fldiv@b+3,f
  5426  0C0F                     l2155:
  5427  0C0F  0847               	movf	___fldiv@b+3,w
  5428  0C10  00C3               	movwf	?___fldiv+3
  5429  0C11  0846               	movf	___fldiv@b+2,w
  5430  0C12  00C2               	movwf	?___fldiv+2
  5431  0C13  0845               	movf	___fldiv@b+1,w
  5432  0C14  00C1               	movwf	?___fldiv+1
  5433  0C15  0844               	movf	___fldiv@b,w
  5434  0C16  00C0               	movwf	?___fldiv
  5435  0C17  2D77               	goto	l682
  5436  0C18                     l2159:
  5437  0C18  0858               	movf	___fldiv@bexp,w
  5438  0C19  1D03               	btfss	3,2
  5439  0C1A  2C1C               	goto	u2571
  5440  0C1B  2C1D               	goto	u2570
  5441  0C1C                     u2571:
  5442  0C1C  2C26               	goto	l2165
  5443  0C1D                     u2570:
  5444  0C1D                     l2161:
  5445  0C1D  3000               	movlw	0
  5446  0C1E  00C3               	movwf	?___fldiv+3
  5447  0C1F  3000               	movlw	0
  5448  0C20  00C2               	movwf	?___fldiv+2
  5449  0C21  3000               	movlw	0
  5450  0C22  00C1               	movwf	?___fldiv+1
  5451  0C23  3000               	movlw	0
  5452  0C24  00C0               	movwf	?___fldiv
  5453  0C25  2D77               	goto	l682
  5454  0C26                     l2165:
  5455  0C26  0858               	movf	___fldiv@bexp,w
  5456  0C27  00C8               	movwf	??___fldiv
  5457  0C28  01C9               	clrf	??___fldiv+1
  5458  0C29  0849               	movf	??___fldiv+1,w
  5459  0C2A  00CB               	movwf	??___fldiv+3
  5460  0C2B  0859               	movf	___fldiv@aexp,w
  5461  0C2C  0248               	subwf	??___fldiv,w
  5462  0C2D  00CA               	movwf	??___fldiv+2
  5463  0C2E  1C03               	skipc
  5464  0C2F  03CB               	decf	??___fldiv+3,f
  5465  0C30  084A               	movf	??___fldiv+2,w
  5466  0C31  3E7F               	addlw	127
  5467  0C32  00D2               	movwf	___fldiv@new_exp
  5468  0C33  084B               	movf	??___fldiv+3,w
  5469  0C34  1803               	skipnc
  5470  0C35  3E01               	addlw	1
  5471  0C36  3E00               	addlw	0
  5472  0C37  00D3               	movwf	___fldiv@new_exp+1
  5473  0C38                     l2167:
  5474  0C38  0847               	movf	___fldiv@b+3,w
  5475  0C39  00D0               	movwf	___fldiv@rem+3
  5476  0C3A  0846               	movf	___fldiv@b+2,w
  5477  0C3B  00CF               	movwf	___fldiv@rem+2
  5478  0C3C  0845               	movf	___fldiv@b+1,w
  5479  0C3D  00CE               	movwf	___fldiv@rem+1
  5480  0C3E  0844               	movf	___fldiv@b,w
  5481  0C3F  00CD               	movwf	___fldiv@rem
  5482  0C40                     l2169:
  5483  0C40  3000               	movlw	0
  5484  0C41  00C7               	movwf	___fldiv@b+3
  5485  0C42  3000               	movlw	0
  5486  0C43  00C6               	movwf	___fldiv@b+2
  5487  0C44  3000               	movlw	0
  5488  0C45  00C5               	movwf	___fldiv@b+1
  5489  0C46  3000               	movlw	0
  5490  0C47  00C4               	movwf	___fldiv@b
  5491  0C48                     l2171:
  5492  0C48  3000               	movlw	0
  5493  0C49  00D7               	movwf	___fldiv@grs+3
  5494  0C4A  3000               	movlw	0
  5495  0C4B  00D6               	movwf	___fldiv@grs+2
  5496  0C4C  3000               	movlw	0
  5497  0C4D  00D5               	movwf	___fldiv@grs+1
  5498  0C4E  3000               	movlw	0
  5499  0C4F  00D4               	movwf	___fldiv@grs
  5500  0C50                     l2173:
  5501  0C50  01D9               	clrf	___fldiv@aexp
  5502  0C51  2C9C               	goto	l2193
  5503  0C52                     l2175:
  5504  0C52  0859               	movf	___fldiv@aexp,w
  5505  0C53  1903               	btfsc	3,2
  5506  0C54  2C56               	goto	u2581
  5507  0C55  2C57               	goto	u2580
  5508  0C56                     u2581:
  5509  0C56  2C77               	goto	l2185
  5510  0C57                     u2580:
  5511  0C57                     l2177:
  5512  0C57  3001               	movlw	1
  5513  0C58  00C8               	movwf	??___fldiv
  5514  0C59                     u2595:
  5515  0C59  1003               	clrc
  5516  0C5A  0DCD               	rlf	___fldiv@rem,f
  5517  0C5B  0DCE               	rlf	___fldiv@rem+1,f
  5518  0C5C  0DCF               	rlf	___fldiv@rem+2,f
  5519  0C5D  0DD0               	rlf	___fldiv@rem+3,f
  5520  0C5E  0BC8               	decfsz	??___fldiv,f
  5521  0C5F  2C59               	goto	u2595
  5522  0C60  3001               	movlw	1
  5523  0C61  00C8               	movwf	??___fldiv
  5524  0C62                     u2605:
  5525  0C62  1003               	clrc
  5526  0C63  0DC4               	rlf	___fldiv@b,f
  5527  0C64  0DC5               	rlf	___fldiv@b+1,f
  5528  0C65  0DC6               	rlf	___fldiv@b+2,f
  5529  0C66  0DC7               	rlf	___fldiv@b+3,f
  5530  0C67  0BC8               	decfsz	??___fldiv,f
  5531  0C68  2C62               	goto	u2605
  5532  0C69                     l2179:
  5533  0C69  1FD7               	btfss	___fldiv@grs+3,7
  5534  0C6A  2C6C               	goto	u2611
  5535  0C6B  2C6D               	goto	u2610
  5536  0C6C                     u2611:
  5537  0C6C  2C6E               	goto	l2183
  5538  0C6D                     u2610:
  5539  0C6D                     l2181:
  5540  0C6D  1444               	bsf	___fldiv@b,0
  5541  0C6E                     l2183:
  5542  0C6E  3001               	movlw	1
  5543  0C6F  00C8               	movwf	??___fldiv
  5544  0C70                     u2625:
  5545  0C70  1003               	clrc
  5546  0C71  0DD4               	rlf	___fldiv@grs,f
  5547  0C72  0DD5               	rlf	___fldiv@grs+1,f
  5548  0C73  0DD6               	rlf	___fldiv@grs+2,f
  5549  0C74  0DD7               	rlf	___fldiv@grs+3,f
  5550  0C75  0BC8               	decfsz	??___fldiv,f
  5551  0C76  2C70               	goto	u2625
  5552  0C77                     l2185:
  5553  0C77  0843               	movf	___fldiv@a+3,w
  5554  0C78  0250               	subwf	___fldiv@rem+3,w
  5555  0C79  1D03               	skipz
  5556  0C7A  2C85               	goto	u2635
  5557  0C7B  0842               	movf	___fldiv@a+2,w
  5558  0C7C  024F               	subwf	___fldiv@rem+2,w
  5559  0C7D  1D03               	skipz
  5560  0C7E  2C85               	goto	u2635
  5561  0C7F  0841               	movf	___fldiv@a+1,w
  5562  0C80  024E               	subwf	___fldiv@rem+1,w
  5563  0C81  1D03               	skipz
  5564  0C82  2C85               	goto	u2635
  5565  0C83  0840               	movf	___fldiv@a,w
  5566  0C84  024D               	subwf	___fldiv@rem,w
  5567  0C85                     u2635:
  5568  0C85  1C03               	skipc
  5569  0C86  2C88               	goto	u2631
  5570  0C87  2C89               	goto	u2630
  5571  0C88                     u2631:
  5572  0C88  2C98               	goto	l2191
  5573  0C89                     u2630:
  5574  0C89                     l2187:
  5575  0C89  1757               	bsf	___fldiv@grs+3,6
  5576  0C8A                     l2189:
  5577  0C8A  0840               	movf	___fldiv@a,w
  5578  0C8B  02CD               	subwf	___fldiv@rem,f
  5579  0C8C  0841               	movf	___fldiv@a+1,w
  5580  0C8D  1C03               	skipc
  5581  0C8E  0F41               	incfsz	___fldiv@a+1,w
  5582  0C8F  02CE               	subwf	___fldiv@rem+1,f
  5583  0C90  0842               	movf	___fldiv@a+2,w
  5584  0C91  1C03               	skipc
  5585  0C92  0F42               	incfsz	___fldiv@a+2,w
  5586  0C93  02CF               	subwf	___fldiv@rem+2,f
  5587  0C94  0843               	movf	___fldiv@a+3,w
  5588  0C95  1C03               	skipc
  5589  0C96  0F43               	incfsz	___fldiv@a+3,w
  5590  0C97  02D0               	subwf	___fldiv@rem+3,f
  5591  0C98                     l2191:
  5592  0C98  3001               	movlw	1
  5593  0C99  00C8               	movwf	??___fldiv
  5594  0C9A  0848               	movf	??___fldiv,w
  5595  0C9B  07D9               	addwf	___fldiv@aexp,f
  5596  0C9C                     l2193:
  5597  0C9C  301A               	movlw	26
  5598  0C9D  0259               	subwf	___fldiv@aexp,w
  5599  0C9E  1C03               	skipc
  5600  0C9F  2CA1               	goto	u2641
  5601  0CA0  2CA2               	goto	u2640
  5602  0CA1                     u2641:
  5603  0CA1  2C52               	goto	l2175
  5604  0CA2                     u2640:
  5605  0CA2                     l2195:
  5606  0CA2  0850               	movf	___fldiv@rem+3,w
  5607  0CA3  044F               	iorwf	___fldiv@rem+2,w
  5608  0CA4  044E               	iorwf	___fldiv@rem+1,w
  5609  0CA5  044D               	iorwf	___fldiv@rem,w
  5610  0CA6  1903               	skipnz
  5611  0CA7  2CA9               	goto	u2651
  5612  0CA8  2CAA               	goto	u2650
  5613  0CA9                     u2651:
  5614  0CA9  2CC9               	goto	l2209
  5615  0CAA                     u2650:
  5616  0CAA                     l2197:
  5617  0CAA  1454               	bsf	___fldiv@grs,0
  5618  0CAB  2CC9               	goto	l2209
  5619  0CAC                     l2199:
  5620  0CAC  3001               	movlw	1
  5621  0CAD  00C8               	movwf	??___fldiv
  5622  0CAE                     u2665:
  5623  0CAE  1003               	clrc
  5624  0CAF  0DC4               	rlf	___fldiv@b,f
  5625  0CB0  0DC5               	rlf	___fldiv@b+1,f
  5626  0CB1  0DC6               	rlf	___fldiv@b+2,f
  5627  0CB2  0DC7               	rlf	___fldiv@b+3,f
  5628  0CB3  0BC8               	decfsz	??___fldiv,f
  5629  0CB4  2CAE               	goto	u2665
  5630  0CB5                     l2201:
  5631  0CB5  1FD7               	btfss	___fldiv@grs+3,7
  5632  0CB6  2CB8               	goto	u2671
  5633  0CB7  2CB9               	goto	u2670
  5634  0CB8                     u2671:
  5635  0CB8  2CBA               	goto	l2205
  5636  0CB9                     u2670:
  5637  0CB9                     l2203:
  5638  0CB9  1444               	bsf	___fldiv@b,0
  5639  0CBA                     l2205:
  5640  0CBA  3001               	movlw	1
  5641  0CBB  00C8               	movwf	??___fldiv
  5642  0CBC                     u2685:
  5643  0CBC  1003               	clrc
  5644  0CBD  0DD4               	rlf	___fldiv@grs,f
  5645  0CBE  0DD5               	rlf	___fldiv@grs+1,f
  5646  0CBF  0DD6               	rlf	___fldiv@grs+2,f
  5647  0CC0  0DD7               	rlf	___fldiv@grs+3,f
  5648  0CC1  0BC8               	decfsz	??___fldiv,f
  5649  0CC2  2CBC               	goto	u2685
  5650  0CC3                     l2207:
  5651  0CC3  30FF               	movlw	255
  5652  0CC4  07D2               	addwf	___fldiv@new_exp,f
  5653  0CC5  1803               	skipnc
  5654  0CC6  0AD3               	incf	___fldiv@new_exp+1,f
  5655  0CC7  30FF               	movlw	255
  5656  0CC8  07D3               	addwf	___fldiv@new_exp+1,f
  5657  0CC9                     l2209:
  5658  0CC9  1FC6               	btfss	___fldiv@b+2,7
  5659  0CCA  2CCC               	goto	u2691
  5660  0CCB  2CCD               	goto	u2690
  5661  0CCC                     u2691:
  5662  0CCC  2CAC               	goto	l2199
  5663  0CCD                     u2690:
  5664  0CCD                     l2211:
  5665  0CCD  01D9               	clrf	___fldiv@aexp
  5666  0CCE                     l2213:
  5667  0CCE  1FD7               	btfss	___fldiv@grs+3,7
  5668  0CCF  2CD1               	goto	u2701
  5669  0CD0  2CD2               	goto	u2700
  5670  0CD1                     u2701:
  5671  0CD1  2CEE               	goto	l2221
  5672  0CD2                     u2700:
  5673  0CD2                     l2215:
  5674  0CD2  30FF               	movlw	255
  5675  0CD3  0554               	andwf	___fldiv@grs,w
  5676  0CD4  00C8               	movwf	??___fldiv
  5677  0CD5  30FF               	movlw	255
  5678  0CD6  0555               	andwf	___fldiv@grs+1,w
  5679  0CD7  00C9               	movwf	??___fldiv+1
  5680  0CD8  30FF               	movlw	255
  5681  0CD9  0556               	andwf	___fldiv@grs+2,w
  5682  0CDA  00CA               	movwf	??___fldiv+2
  5683  0CDB  307F               	movlw	127
  5684  0CDC  0557               	andwf	___fldiv@grs+3,w
  5685  0CDD  00CB               	movwf	??___fldiv+3
  5686  0CDE  084B               	movf	??___fldiv+3,w
  5687  0CDF  044A               	iorwf	??___fldiv+2,w
  5688  0CE0  0449               	iorwf	??___fldiv+1,w
  5689  0CE1  0448               	iorwf	??___fldiv,w
  5690  0CE2  1903               	skipnz
  5691  0CE3  2CE5               	goto	u2711
  5692  0CE4  2CE6               	goto	u2710
  5693  0CE5                     u2711:
  5694  0CE5  2CE9               	goto	l696
  5695  0CE6                     u2710:
  5696  0CE6                     l2217:
  5697  0CE6  01D9               	clrf	___fldiv@aexp
  5698  0CE7  0AD9               	incf	___fldiv@aexp,f
  5699  0CE8  2CEE               	goto	l2221
  5700  0CE9                     l696:
  5701  0CE9  1C44               	btfss	___fldiv@b,0
  5702  0CEA  2CEC               	goto	u2721
  5703  0CEB  2CED               	goto	u2720
  5704  0CEC                     u2721:
  5705  0CEC  2CEE               	goto	l2221
  5706  0CED                     u2720:
  5707  0CED  2CE6               	goto	l2217
  5708  0CEE                     l2221:
  5709  0CEE  0859               	movf	___fldiv@aexp,w
  5710  0CEF  1903               	btfsc	3,2
  5711  0CF0  2CF2               	goto	u2731
  5712  0CF1  2CF3               	goto	u2730
  5713  0CF2                     u2731:
  5714  0CF2  2D24               	goto	l2231
  5715  0CF3                     u2730:
  5716  0CF3                     l2223:
  5717  0CF3  3001               	movlw	1
  5718  0CF4  07C4               	addwf	___fldiv@b,f
  5719  0CF5  3000               	movlw	0
  5720  0CF6  1803               	skipnc
  5721  0CF7  3001               	movlw	1
  5722  0CF8  07C5               	addwf	___fldiv@b+1,f
  5723  0CF9  3000               	movlw	0
  5724  0CFA  1803               	skipnc
  5725  0CFB  3001               	movlw	1
  5726  0CFC  07C6               	addwf	___fldiv@b+2,f
  5727  0CFD  3000               	movlw	0
  5728  0CFE  1803               	skipnc
  5729  0CFF  3001               	movlw	1
  5730  0D00  07C7               	addwf	___fldiv@b+3,f
  5731  0D01                     l2225:
  5732  0D01  1C47               	btfss	___fldiv@b+3,0
  5733  0D02  2D04               	goto	u2741
  5734  0D03  2D05               	goto	u2740
  5735  0D04                     u2741:
  5736  0D04  2D24               	goto	l2231
  5737  0D05                     u2740:
  5738  0D05                     l2227:
  5739  0D05  0844               	movf	___fldiv@b,w
  5740  0D06  00C8               	movwf	??___fldiv
  5741  0D07  0845               	movf	___fldiv@b+1,w
  5742  0D08  00C9               	movwf	??___fldiv+1
  5743  0D09  0846               	movf	___fldiv@b+2,w
  5744  0D0A  00CA               	movwf	??___fldiv+2
  5745  0D0B  0847               	movf	___fldiv@b+3,w
  5746  0D0C  00CB               	movwf	??___fldiv+3
  5747  0D0D  3001               	movlw	1
  5748  0D0E  00CC               	movwf	??___fldiv+4
  5749  0D0F                     u2755:
  5750  0D0F  0D4B               	rlf	??___fldiv+3,w
  5751  0D10  0CCB               	rrf	??___fldiv+3,f
  5752  0D11  0CCA               	rrf	??___fldiv+2,f
  5753  0D12  0CC9               	rrf	??___fldiv+1,f
  5754  0D13  0CC8               	rrf	??___fldiv,f
  5755  0D14                     u2750:
  5756  0D14  0BCC               	decfsz	??___fldiv+4,f
  5757  0D15  2D0F               	goto	u2755
  5758  0D16  084B               	movf	??___fldiv+3,w
  5759  0D17  00C7               	movwf	___fldiv@b+3
  5760  0D18  084A               	movf	??___fldiv+2,w
  5761  0D19  00C6               	movwf	___fldiv@b+2
  5762  0D1A  0849               	movf	??___fldiv+1,w
  5763  0D1B  00C5               	movwf	___fldiv@b+1
  5764  0D1C  0848               	movf	??___fldiv,w
  5765  0D1D  00C4               	movwf	___fldiv@b
  5766  0D1E                     l2229:
  5767  0D1E  3001               	movlw	1
  5768  0D1F  07D2               	addwf	___fldiv@new_exp,f
  5769  0D20  1803               	skipnc
  5770  0D21  0AD3               	incf	___fldiv@new_exp+1,f
  5771  0D22  3000               	movlw	0
  5772  0D23  07D3               	addwf	___fldiv@new_exp+1,f
  5773  0D24                     l2231:
  5774  0D24  0853               	movf	___fldiv@new_exp+1,w
  5775  0D25  3A80               	xorlw	128
  5776  0D26  00FF               	movwf	btemp+1
  5777  0D27  3080               	movlw	128
  5778  0D28  027F               	subwf	btemp+1,w
  5779  0D29  1D03               	skipz
  5780  0D2A  2D2D               	goto	u2765
  5781  0D2B  30FF               	movlw	255
  5782  0D2C  0252               	subwf	___fldiv@new_exp,w
  5783  0D2D                     u2765:
  5784  0D2D  1C03               	skipc
  5785  0D2E  2D30               	goto	u2761
  5786  0D2F  2D31               	goto	u2760
  5787  0D30                     u2761:
  5788  0D30  2D3F               	goto	l2235
  5789  0D31                     u2760:
  5790  0D31                     l2233:
  5791  0D31  30FF               	movlw	255
  5792  0D32  1283               	bcf	3,5	;RP0=0, select bank0
  5793  0D33  1303               	bcf	3,6	;RP1=0, select bank0
  5794  0D34  00D2               	movwf	___fldiv@new_exp
  5795  0D35  3000               	movlw	0
  5796  0D36  00D3               	movwf	___fldiv@new_exp+1
  5797  0D37  3000               	movlw	0
  5798  0D38  00C7               	movwf	___fldiv@b+3
  5799  0D39  3000               	movlw	0
  5800  0D3A  00C6               	movwf	___fldiv@b+2
  5801  0D3B  3000               	movlw	0
  5802  0D3C  00C5               	movwf	___fldiv@b+1
  5803  0D3D  3000               	movlw	0
  5804  0D3E  00C4               	movwf	___fldiv@b
  5805  0D3F                     l2235:
  5806  0D3F  1283               	bcf	3,5	;RP0=0, select bank0
  5807  0D40  1303               	bcf	3,6	;RP1=0, select bank0
  5808  0D41  0853               	movf	___fldiv@new_exp+1,w
  5809  0D42  3A80               	xorlw	128
  5810  0D43  00FF               	movwf	btemp+1
  5811  0D44  3080               	movlw	128
  5812  0D45  027F               	subwf	btemp+1,w
  5813  0D46  1D03               	skipz
  5814  0D47  2D4A               	goto	u2775
  5815  0D48  3001               	movlw	1
  5816  0D49  0252               	subwf	___fldiv@new_exp,w
  5817  0D4A                     u2775:
  5818  0D4A  1803               	skipnc
  5819  0D4B  2D4D               	goto	u2771
  5820  0D4C  2D4E               	goto	u2770
  5821  0D4D                     u2771:
  5822  0D4D  2D5B               	goto	l702
  5823  0D4E                     u2770:
  5824  0D4E                     l2237:
  5825  0D4E  1283               	bcf	3,5	;RP0=0, select bank0
  5826  0D4F  1303               	bcf	3,6	;RP1=0, select bank0
  5827  0D50  01D2               	clrf	___fldiv@new_exp
  5828  0D51  01D3               	clrf	___fldiv@new_exp+1
  5829  0D52                     l2239:
  5830  0D52  3000               	movlw	0
  5831  0D53  00C7               	movwf	___fldiv@b+3
  5832  0D54  3000               	movlw	0
  5833  0D55  00C6               	movwf	___fldiv@b+2
  5834  0D56  3000               	movlw	0
  5835  0D57  00C5               	movwf	___fldiv@b+1
  5836  0D58  3000               	movlw	0
  5837  0D59  00C4               	movwf	___fldiv@b
  5838  0D5A                     l2241:
  5839  0D5A  01D1               	clrf	___fldiv@sign
  5840  0D5B                     l702:
  5841  0D5B  1283               	bcf	3,5	;RP0=0, select bank0
  5842  0D5C  1303               	bcf	3,6	;RP1=0, select bank0
  5843  0D5D  0852               	movf	___fldiv@new_exp,w
  5844  0D5E  00C8               	movwf	??___fldiv
  5845  0D5F  0848               	movf	??___fldiv,w
  5846  0D60  00D8               	movwf	___fldiv@bexp
  5847  0D61                     l2243:
  5848  0D61  1C58               	btfss	___fldiv@bexp,0
  5849  0D62  2D64               	goto	u2781
  5850  0D63  2D65               	goto	u2780
  5851  0D64                     u2781:
  5852  0D64  2D67               	goto	l2247
  5853  0D65                     u2780:
  5854  0D65                     l2245:
  5855  0D65  17C6               	bsf	___fldiv@b+2,7
  5856  0D66  2D6B               	goto	l704
  5857  0D67                     l2247:
  5858  0D67  307F               	movlw	127
  5859  0D68  00C8               	movwf	??___fldiv
  5860  0D69  0848               	movf	??___fldiv,w
  5861  0D6A  05C6               	andwf	___fldiv@b+2,f
  5862  0D6B                     l704:
  5863  0D6B  0858               	movf	___fldiv@bexp,w
  5864  0D6C  00C8               	movwf	??___fldiv
  5865  0D6D  1003               	clrc
  5866  0D6E  0C48               	rrf	??___fldiv,w
  5867  0D6F  00C9               	movwf	??___fldiv+1
  5868  0D70  0849               	movf	??___fldiv+1,w
  5869  0D71  00C7               	movwf	___fldiv@b+3
  5870  0D72  0851               	movf	___fldiv@sign,w
  5871  0D73  00C8               	movwf	??___fldiv
  5872  0D74  0848               	movf	??___fldiv,w
  5873  0D75  04C7               	iorwf	___fldiv@b+3,f
  5874  0D76  2C0F               	goto	l2155
  5875  0D77                     l682:
  5876  0D77  0008               	return
  5877  0D78                     __end_of___fldiv:
  5878                           
  5879                           	psect	text12
  5880  0874                     __ptext12:	
  5881 ;; *************** function _Lcd_Write_String *****************
  5882 ;; Defined at:
  5883 ;;		line 98 in file "LCD.c"
  5884 ;; Parameters:    Size  Location     Type
  5885 ;;  a               2    7[COMMON] PTR unsigned char 
  5886 ;;		 -> texto(20), STR_1(11), 
  5887 ;; Auto vars:     Size  Location     Type
  5888 ;;  i               2    3[BANK0 ] int 
  5889 ;; Return value:  Size  Location     Type
  5890 ;;                  1    wreg      void 
  5891 ;; Registers used:
  5892 ;;		wreg, fsr0l, fsr0h, status,2, status,0, btemp+1, pclath, cstack
  5893 ;; Tracked objects:
  5894 ;;		On entry : 0/0
  5895 ;;		On exit  : 0/0
  5896 ;;		Unchanged: 0/0
  5897 ;; Data sizes:     COMMON   BANK0   BANK1   BANK3   BANK2
  5898 ;;      Params:         2       0       0       0       0
  5899 ;;      Locals:         0       2       0       0       0
  5900 ;;      Temps:          0       3       0       0       0
  5901 ;;      Totals:         2       5       0       0       0
  5902 ;;Total ram usage:        7 bytes
  5903 ;; Hardware stack levels used:    1
  5904 ;; Hardware stack levels required when called:    3
  5905 ;; This function calls:
  5906 ;;		_Lcd_Write_Char
  5907 ;; This function is called by:
  5908 ;;		_main
  5909 ;; This function uses a non-reentrant model
  5910 ;;
  5911                           
  5912                           
  5913                           ;psect for function _Lcd_Write_String
  5914  0874                     _Lcd_Write_String:
  5915  0874                     l2903:	
  5916                           ;incstack = 0
  5917                           ; Regs used in _Lcd_Write_String: [wreg-fsr0h+status,2+status,0+btemp+1+pclath+cstack]
  5918                           
  5919                           
  5920                           ;LCD.c: 99:     int i;;LCD.c: 100:     for (i = 0; a[i] != '\0'; i++)
  5921  0874  1283               	bcf	3,5	;RP0=0, select bank0
  5922  0875  1303               	bcf	3,6	;RP1=0, select bank0
  5923  0876  01A3               	clrf	Lcd_Write_String@i
  5924  0877  01A4               	clrf	Lcd_Write_String@i+1
  5925  0878  289D               	goto	l2909
  5926  0879                     l2905:
  5927                           
  5928                           ;LCD.c: 101:         Lcd_Write_Char(a[i]);
  5929  0879  0823               	movf	Lcd_Write_String@i,w
  5930  087A  0777               	addwf	Lcd_Write_String@a,w
  5931  087B  00A1               	movwf	??_Lcd_Write_String+1
  5932  087C  0878               	movf	Lcd_Write_String@a+1,w
  5933  087D  00A0               	movwf	??_Lcd_Write_String
  5934  087E  1803               	skipnc
  5935  087F  0AA0               	incf	??_Lcd_Write_String,f
  5936  0880  1FA3               	btfss	Lcd_Write_String@i,7
  5937  0881  2883               	goto	u4120
  5938  0882  03A0               	decf	??_Lcd_Write_String,f
  5939  0883                     u4120:
  5940  0883  1283               	bcf	3,5	;RP0=0, select bank0
  5941  0884  1303               	bcf	3,6	;RP1=0, select bank0
  5942  0885  0820               	movf	??_Lcd_Write_String,w
  5943  0886  00A2               	movwf	??_Lcd_Write_String+2
  5944  0887  0822               	movf	??_Lcd_Write_String+2,w
  5945  0888  00FF               	movwf	btemp+1
  5946  0889  0821               	movf	??_Lcd_Write_String+1,w
  5947  088A  0084               	movwf	4
  5948  088B  160A  118A  2000  120A  158A  	fcall	stringtab
  5949  0890  120A  158A  203B  120A  158A  	fcall	_Lcd_Write_Char
  5950  0895                     l2907:
  5951  0895  3001               	movlw	1
  5952  0896  1283               	bcf	3,5	;RP0=0, select bank0
  5953  0897  1303               	bcf	3,6	;RP1=0, select bank0
  5954  0898  07A3               	addwf	Lcd_Write_String@i,f
  5955  0899  1803               	skipnc
  5956  089A  0AA4               	incf	Lcd_Write_String@i+1,f
  5957  089B  3000               	movlw	0
  5958  089C  07A4               	addwf	Lcd_Write_String@i+1,f
  5959  089D                     l2909:
  5960  089D  0823               	movf	Lcd_Write_String@i,w
  5961  089E  0777               	addwf	Lcd_Write_String@a,w
  5962  089F  00A1               	movwf	??_Lcd_Write_String+1
  5963  08A0  0878               	movf	Lcd_Write_String@a+1,w
  5964  08A1  00A0               	movwf	??_Lcd_Write_String
  5965  08A2  1803               	skipnc
  5966  08A3  0AA0               	incf	??_Lcd_Write_String,f
  5967  08A4  1FA3               	btfss	Lcd_Write_String@i,7
  5968  08A5  28A7               	goto	u4130
  5969  08A6  03A0               	decf	??_Lcd_Write_String,f
  5970  08A7                     u4130:
  5971  08A7  1283               	bcf	3,5	;RP0=0, select bank0
  5972  08A8  1303               	bcf	3,6	;RP1=0, select bank0
  5973  08A9  0820               	movf	??_Lcd_Write_String,w
  5974  08AA  00A2               	movwf	??_Lcd_Write_String+2
  5975  08AB  0822               	movf	??_Lcd_Write_String+2,w
  5976  08AC  00FF               	movwf	btemp+1
  5977  08AD  0821               	movf	??_Lcd_Write_String+1,w
  5978  08AE  0084               	movwf	4
  5979  08AF  160A  118A  2000  120A  158A  	fcall	stringtab
  5980  08B4  3A00               	xorlw	0
  5981  08B5  1D03               	skipz
  5982  08B6  28B8               	goto	u4141
  5983  08B7  28B9               	goto	u4140
  5984  08B8                     u4141:
  5985  08B8  2879               	goto	l2905
  5986  08B9                     u4140:
  5987  08B9                     l239:
  5988  08B9  0008               	return
  5989  08BA                     __end_of_Lcd_Write_String:
  5990                           
  5991                           	psect	text13
  5992  083B                     __ptext13:	
  5993 ;; *************** function _Lcd_Write_Char *****************
  5994 ;; Defined at:
  5995 ;;		line 83 in file "LCD.c"
  5996 ;; Parameters:    Size  Location     Type
  5997 ;;  a               1    wreg     unsigned char 
  5998 ;; Auto vars:     Size  Location     Type
  5999 ;;  a               1    6[COMMON] unsigned char 
  6000 ;;  y               1    5[COMMON] unsigned char 
  6001 ;;  temp            1    4[COMMON] unsigned char 
  6002 ;; Return value:  Size  Location     Type
  6003 ;;                  1    wreg      void 
  6004 ;; Registers used:
  6005 ;;		wreg, status,2, status,0, pclath, cstack
  6006 ;; Tracked objects:
  6007 ;;		On entry : 0/0
  6008 ;;		On exit  : 0/0
  6009 ;;		Unchanged: 0/0
  6010 ;; Data sizes:     COMMON   BANK0   BANK1   BANK3   BANK2
  6011 ;;      Params:         0       0       0       0       0
  6012 ;;      Locals:         3       0       0       0       0
  6013 ;;      Temps:          1       0       0       0       0
  6014 ;;      Totals:         4       0       0       0       0
  6015 ;;Total ram usage:        4 bytes
  6016 ;; Hardware stack levels used:    1
  6017 ;; Hardware stack levels required when called:    2
  6018 ;; This function calls:
  6019 ;;		_Lcd_Port
  6020 ;; This function is called by:
  6021 ;;		_Lcd_Write_String
  6022 ;; This function uses a non-reentrant model
  6023 ;;
  6024                           
  6025                           
  6026                           ;psect for function _Lcd_Write_Char
  6027  083B                     _Lcd_Write_Char:
  6028                           
  6029                           ;incstack = 0
  6030                           ; Regs used in _Lcd_Write_Char: [wreg+status,2+status,0+pclath+cstack]
  6031                           ;Lcd_Write_Char@a stored from wreg
  6032  083B  00F6               	movwf	Lcd_Write_Char@a
  6033  083C                     l2021:
  6034                           
  6035                           ;LCD.c: 84:     char temp, y;;LCD.c: 85:     temp = a & 0x0F;
  6036  083C  0876               	movf	Lcd_Write_Char@a,w
  6037  083D  390F               	andlw	15
  6038  083E  00F3               	movwf	??_Lcd_Write_Char
  6039  083F  0873               	movf	??_Lcd_Write_Char,w
  6040  0840  00F4               	movwf	Lcd_Write_Char@temp
  6041                           
  6042                           ;LCD.c: 86:     y = a & 0xF0;
  6043  0841  0876               	movf	Lcd_Write_Char@a,w
  6044  0842  39F0               	andlw	240
  6045  0843  00F3               	movwf	??_Lcd_Write_Char
  6046  0844  0873               	movf	??_Lcd_Write_Char,w
  6047  0845  00F5               	movwf	Lcd_Write_Char@y
  6048  0846                     l2023:
  6049                           
  6050                           ;LCD.c: 87:     PORTBbits.RB4 = 1;
  6051  0846  1283               	bcf	3,5	;RP0=0, select bank0
  6052  0847  1303               	bcf	3,6	;RP1=0, select bank0
  6053  0848  1606               	bsf	6,4	;volatile
  6054  0849                     l2025:
  6055                           
  6056                           ;LCD.c: 88:     Lcd_Port(y >> 4);
  6057  0849  0875               	movf	Lcd_Write_Char@y,w
  6058  084A  00F3               	movwf	??_Lcd_Write_Char
  6059  084B  3004               	movlw	4
  6060  084C                     u2315:
  6061  084C  1003               	clrc
  6062  084D  0CF3               	rrf	??_Lcd_Write_Char,f
  6063  084E  3EFF               	addlw	-1
  6064  084F  1D03               	skipz
  6065  0850  284C               	goto	u2315
  6066  0851  0873               	movf	??_Lcd_Write_Char,w
  6067  0852  160A  118A  27BA  120A  158A  	fcall	_Lcd_Port
  6068  0857                     l2027:
  6069                           
  6070                           ;LCD.c: 89:     RB5 = 1;
  6071  0857  1283               	bcf	3,5	;RP0=0, select bank0
  6072  0858  1303               	bcf	3,6	;RP1=0, select bank0
  6073  0859  1686               	bsf	6,5	;volatile
  6074  085A                     l2029:
  6075                           
  6076                           ;LCD.c: 90:     _delay((unsigned long)((40)*(8000000/4000000.0)));
  6077  085A  301A               	movlw	26
  6078  085B  00F3               	movwf	??_Lcd_Write_Char
  6079  085C                     u4287:
  6080  085C  0BF3               	decfsz	??_Lcd_Write_Char,f
  6081  085D  285C               	goto	u4287
  6082  085E  0000               	nop
  6083  085F                     l2031:
  6084                           
  6085                           ;LCD.c: 91:     RB5 = 0;
  6086  085F  1283               	bcf	3,5	;RP0=0, select bank0
  6087  0860  1303               	bcf	3,6	;RP1=0, select bank0
  6088  0861  1286               	bcf	6,5	;volatile
  6089  0862                     l2033:
  6090                           
  6091                           ;LCD.c: 92:     Lcd_Port(temp);
  6092  0862  0874               	movf	Lcd_Write_Char@temp,w
  6093  0863  160A  118A  27BA  120A  158A  	fcall	_Lcd_Port
  6094  0868                     l2035:
  6095                           
  6096                           ;LCD.c: 93:     RB5 = 1;
  6097  0868  1283               	bcf	3,5	;RP0=0, select bank0
  6098  0869  1303               	bcf	3,6	;RP1=0, select bank0
  6099  086A  1686               	bsf	6,5	;volatile
  6100  086B                     l2037:
  6101                           
  6102                           ;LCD.c: 94:     _delay((unsigned long)((40)*(8000000/4000000.0)));
  6103  086B  301A               	movlw	26
  6104  086C  00F3               	movwf	??_Lcd_Write_Char
  6105  086D                     u4297:
  6106  086D  0BF3               	decfsz	??_Lcd_Write_Char,f
  6107  086E  286D               	goto	u4297
  6108  086F  0000               	nop
  6109  0870                     l2039:
  6110                           
  6111                           ;LCD.c: 95:     RB5 = 0;
  6112  0870  1283               	bcf	3,5	;RP0=0, select bank0
  6113  0871  1303               	bcf	3,6	;RP1=0, select bank0
  6114  0872  1286               	bcf	6,5	;volatile
  6115  0873                     l233:
  6116  0873  0008               	return
  6117  0874                     __end_of_Lcd_Write_Char:
  6118                           
  6119                           	psect	text14
  6120  090A                     __ptext14:	
  6121 ;; *************** function _Lcd_Set_Cursor *****************
  6122 ;; Defined at:
  6123 ;;		line 48 in file "LCD.c"
  6124 ;; Parameters:    Size  Location     Type
  6125 ;;  a               1    wreg     unsigned char 
  6126 ;;  b               1    6[COMMON] unsigned char 
  6127 ;; Auto vars:     Size  Location     Type
  6128 ;;  a               1    0[BANK0 ] unsigned char 
  6129 ;;  temp            1    3[BANK0 ] unsigned char 
  6130 ;;  y               1    2[BANK0 ] unsigned char 
  6131 ;;  z               1    1[BANK0 ] unsigned char 
  6132 ;; Return value:  Size  Location     Type
  6133 ;;                  1    wreg      void 
  6134 ;; Registers used:
  6135 ;;		wreg, status,2, status,0, pclath, cstack
  6136 ;; Tracked objects:
  6137 ;;		On entry : 0/0
  6138 ;;		On exit  : 0/0
  6139 ;;		Unchanged: 0/0
  6140 ;; Data sizes:     COMMON   BANK0   BANK1   BANK3   BANK2
  6141 ;;      Params:         1       0       0       0       0
  6142 ;;      Locals:         0       4       0       0       0
  6143 ;;      Temps:          2       0       0       0       0
  6144 ;;      Totals:         3       4       0       0       0
  6145 ;;Total ram usage:        7 bytes
  6146 ;; Hardware stack levels used:    1
  6147 ;; Hardware stack levels required when called:    3
  6148 ;; This function calls:
  6149 ;;		_Lcd_Cmd
  6150 ;; This function is called by:
  6151 ;;		_main
  6152 ;; This function uses a non-reentrant model
  6153 ;;
  6154                           
  6155                           
  6156                           ;psect for function _Lcd_Set_Cursor
  6157  090A                     _Lcd_Set_Cursor:
  6158                           
  6159                           ;incstack = 0
  6160                           ; Regs used in _Lcd_Set_Cursor: [wreg+status,2+status,0+pclath+cstack]
  6161                           ;Lcd_Set_Cursor@a stored from wreg
  6162  090A  1283               	bcf	3,5	;RP0=0, select bank0
  6163  090B  1303               	bcf	3,6	;RP1=0, select bank0
  6164  090C  00A0               	movwf	Lcd_Set_Cursor@a
  6165  090D                     l2491:
  6166                           
  6167                           ;LCD.c: 49:     char temp, z, y;;LCD.c: 50:     if (a == 1) {
  6168  090D  0320               	decf	Lcd_Set_Cursor@a,w
  6169  090E  1D03               	btfss	3,2
  6170  090F  2911               	goto	u3301
  6171  0910  2912               	goto	u3300
  6172  0911                     u3301:
  6173  0911  2937               	goto	l2501
  6174  0912                     u3300:
  6175  0912                     l2493:
  6176                           
  6177                           ;LCD.c: 51:         temp = 0x80 + b - 1;
  6178  0912  0876               	movf	Lcd_Set_Cursor@b,w
  6179  0913  3E7F               	addlw	127
  6180  0914  00F7               	movwf	??_Lcd_Set_Cursor
  6181  0915  0877               	movf	??_Lcd_Set_Cursor,w
  6182  0916  00A3               	movwf	Lcd_Set_Cursor@temp
  6183                           
  6184                           ;LCD.c: 52:         z = temp >> 4;
  6185  0917  0823               	movf	Lcd_Set_Cursor@temp,w
  6186  0918  00F7               	movwf	??_Lcd_Set_Cursor
  6187  0919  3004               	movlw	4
  6188  091A                     u3315:
  6189  091A  1003               	clrc
  6190  091B  0CF7               	rrf	??_Lcd_Set_Cursor,f
  6191  091C  3EFF               	addlw	-1
  6192  091D  1D03               	skipz
  6193  091E  291A               	goto	u3315
  6194  091F  0877               	movf	??_Lcd_Set_Cursor,w
  6195  0920  00F8               	movwf	??_Lcd_Set_Cursor+1
  6196  0921  0878               	movf	??_Lcd_Set_Cursor+1,w
  6197  0922  00A1               	movwf	Lcd_Set_Cursor@z
  6198  0923                     l2495:
  6199                           
  6200                           ;LCD.c: 53:         y = temp & 0x0F;
  6201  0923  0823               	movf	Lcd_Set_Cursor@temp,w
  6202  0924  390F               	andlw	15
  6203  0925  00F7               	movwf	??_Lcd_Set_Cursor
  6204  0926  0877               	movf	??_Lcd_Set_Cursor,w
  6205  0927  00A2               	movwf	Lcd_Set_Cursor@y
  6206  0928                     l2497:
  6207                           
  6208                           ;LCD.c: 54:         Lcd_Cmd(z);
  6209  0928  0821               	movf	Lcd_Set_Cursor@z,w
  6210  0929  160A  118A  27A0  120A  158A  	fcall	_Lcd_Cmd
  6211  092E                     l2499:
  6212                           
  6213                           ;LCD.c: 55:         Lcd_Cmd(y);
  6214  092E  1283               	bcf	3,5	;RP0=0, select bank0
  6215  092F  1303               	bcf	3,6	;RP1=0, select bank0
  6216  0930  0822               	movf	Lcd_Set_Cursor@y,w
  6217  0931  160A  118A  27A0  120A  158A  	fcall	_Lcd_Cmd
  6218                           
  6219                           ;LCD.c: 56:     } else if (a == 2) {
  6220  0936  2961               	goto	l227
  6221  0937                     l2501:
  6222  0937  3002               	movlw	2
  6223  0938  0620               	xorwf	Lcd_Set_Cursor@a,w
  6224  0939  1D03               	btfss	3,2
  6225  093A  293C               	goto	u3321
  6226  093B  293D               	goto	u3320
  6227  093C                     u3321:
  6228  093C  2961               	goto	l227
  6229  093D                     u3320:
  6230  093D                     l2503:
  6231                           
  6232                           ;LCD.c: 57:         temp = 0xC0 + b - 1;
  6233  093D  0876               	movf	Lcd_Set_Cursor@b,w
  6234  093E  3EBF               	addlw	191
  6235  093F  00F7               	movwf	??_Lcd_Set_Cursor
  6236  0940  0877               	movf	??_Lcd_Set_Cursor,w
  6237  0941  00A3               	movwf	Lcd_Set_Cursor@temp
  6238                           
  6239                           ;LCD.c: 58:         z = temp >> 4;
  6240  0942  0823               	movf	Lcd_Set_Cursor@temp,w
  6241  0943  00F7               	movwf	??_Lcd_Set_Cursor
  6242  0944  3004               	movlw	4
  6243  0945                     u3335:
  6244  0945  1003               	clrc
  6245  0946  0CF7               	rrf	??_Lcd_Set_Cursor,f
  6246  0947  3EFF               	addlw	-1
  6247  0948  1D03               	skipz
  6248  0949  2945               	goto	u3335
  6249  094A  0877               	movf	??_Lcd_Set_Cursor,w
  6250  094B  00F8               	movwf	??_Lcd_Set_Cursor+1
  6251  094C  0878               	movf	??_Lcd_Set_Cursor+1,w
  6252  094D  00A1               	movwf	Lcd_Set_Cursor@z
  6253  094E                     l2505:
  6254                           
  6255                           ;LCD.c: 59:         y = temp & 0x0F;
  6256  094E  0823               	movf	Lcd_Set_Cursor@temp,w
  6257  094F  390F               	andlw	15
  6258  0950  00F7               	movwf	??_Lcd_Set_Cursor
  6259  0951  0877               	movf	??_Lcd_Set_Cursor,w
  6260  0952  00A2               	movwf	Lcd_Set_Cursor@y
  6261  0953                     l2507:
  6262                           
  6263                           ;LCD.c: 60:         Lcd_Cmd(z);
  6264  0953  0821               	movf	Lcd_Set_Cursor@z,w
  6265  0954  160A  118A  27A0  120A  158A  	fcall	_Lcd_Cmd
  6266  0959                     l2509:
  6267                           
  6268                           ;LCD.c: 61:         Lcd_Cmd(y);
  6269  0959  1283               	bcf	3,5	;RP0=0, select bank0
  6270  095A  1303               	bcf	3,6	;RP1=0, select bank0
  6271  095B  0822               	movf	Lcd_Set_Cursor@y,w
  6272  095C  160A  118A  27A0  120A  158A  	fcall	_Lcd_Cmd
  6273  0961                     l227:
  6274  0961  0008               	return
  6275  0962                     __end_of_Lcd_Set_Cursor:
  6276                           
  6277                           	psect	text15
  6278  0962                     __ptext15:	
  6279 ;; *************** function _Lcd_Init *****************
  6280 ;; Defined at:
  6281 ;;		line 65 in file "LCD.c"
  6282 ;; Parameters:    Size  Location     Type
  6283 ;;		None
  6284 ;; Auto vars:     Size  Location     Type
  6285 ;;		None
  6286 ;; Return value:  Size  Location     Type
  6287 ;;                  1    wreg      void 
  6288 ;; Registers used:
  6289 ;;		wreg, status,2, status,0, pclath, cstack
  6290 ;; Tracked objects:
  6291 ;;		On entry : 0/0
  6292 ;;		On exit  : 0/0
  6293 ;;		Unchanged: 0/0
  6294 ;; Data sizes:     COMMON   BANK0   BANK1   BANK3   BANK2
  6295 ;;      Params:         0       0       0       0       0
  6296 ;;      Locals:         0       0       0       0       0
  6297 ;;      Temps:          2       0       0       0       0
  6298 ;;      Totals:         2       0       0       0       0
  6299 ;;Total ram usage:        2 bytes
  6300 ;; Hardware stack levels used:    1
  6301 ;; Hardware stack levels required when called:    3
  6302 ;; This function calls:
  6303 ;;		_Lcd_Cmd
  6304 ;;		_Lcd_Port
  6305 ;; This function is called by:
  6306 ;;		_main
  6307 ;; This function uses a non-reentrant model
  6308 ;;
  6309                           
  6310                           
  6311                           ;psect for function _Lcd_Init
  6312  0962                     _Lcd_Init:
  6313  0962                     l2479:	
  6314                           ;incstack = 0
  6315                           ; Regs used in _Lcd_Init: [wreg+status,2+status,0+pclath+cstack]
  6316                           
  6317                           
  6318                           ;LCD.c: 66:     Lcd_Port(0x00);
  6319  0962  3000               	movlw	0
  6320  0963  160A  118A  27BA  120A  158A  	fcall	_Lcd_Port
  6321  0968                     l2481:
  6322                           
  6323                           ;LCD.c: 67:     _delay((unsigned long)((20)*(8000000/4000.0)));
  6324  0968  3034               	movlw	52
  6325  0969  00F7               	movwf	??_Lcd_Init+1
  6326  096A  30F1               	movlw	241
  6327  096B  00F6               	movwf	??_Lcd_Init
  6328  096C                     u4307:
  6329  096C  0BF6               	decfsz	??_Lcd_Init,f
  6330  096D  296C               	goto	u4307
  6331  096E  0BF7               	decfsz	??_Lcd_Init+1,f
  6332  096F  296C               	goto	u4307
  6333  0970  2971               	nop2
  6334  0971                     l2483:
  6335                           
  6336                           ;LCD.c: 68:     Lcd_Cmd(0x03);
  6337  0971  3003               	movlw	3
  6338  0972  160A  118A  27A0  120A  158A  	fcall	_Lcd_Cmd
  6339                           
  6340                           ;LCD.c: 69:     _delay((unsigned long)((5)*(8000000/4000.0)));
  6341  0977  300D               	movlw	13
  6342  0978  00F7               	movwf	??_Lcd_Init+1
  6343  0979  30FB               	movlw	251
  6344  097A  00F6               	movwf	??_Lcd_Init
  6345  097B                     u4317:
  6346  097B  0BF6               	decfsz	??_Lcd_Init,f
  6347  097C  297B               	goto	u4317
  6348  097D  0BF7               	decfsz	??_Lcd_Init+1,f
  6349  097E  297B               	goto	u4317
  6350  097F  2980               	nop2
  6351  0980                     l2485:
  6352                           
  6353                           ;LCD.c: 70:     Lcd_Cmd(0x03);
  6354  0980  3003               	movlw	3
  6355  0981  160A  118A  27A0  120A  158A  	fcall	_Lcd_Cmd
  6356  0986                     l2487:
  6357                           
  6358                           ;LCD.c: 71:     _delay((unsigned long)((11)*(8000000/4000.0)));
  6359  0986  301D               	movlw	29
  6360  0987  00F7               	movwf	??_Lcd_Init+1
  6361  0988  3091               	movlw	145
  6362  0989  00F6               	movwf	??_Lcd_Init
  6363  098A                     u4327:
  6364  098A  0BF6               	decfsz	??_Lcd_Init,f
  6365  098B  298A               	goto	u4327
  6366  098C  0BF7               	decfsz	??_Lcd_Init+1,f
  6367  098D  298A               	goto	u4327
  6368                           
  6369                           ;LCD.c: 72:     Lcd_Cmd(0x03);
  6370  098E  3003               	movlw	3
  6371  098F  160A  118A  27A0  120A  158A  	fcall	_Lcd_Cmd
  6372                           
  6373                           ;LCD.c: 74:     Lcd_Cmd(0x02);
  6374  0994  3002               	movlw	2
  6375  0995  160A  118A  27A0  120A  158A  	fcall	_Lcd_Cmd
  6376                           
  6377                           ;LCD.c: 75:     Lcd_Cmd(0x02);
  6378  099A  3002               	movlw	2
  6379  099B  160A  118A  27A0  120A  158A  	fcall	_Lcd_Cmd
  6380                           
  6381                           ;LCD.c: 76:     Lcd_Cmd(0x08);
  6382  09A0  3008               	movlw	8
  6383  09A1  160A  118A  27A0  120A  158A  	fcall	_Lcd_Cmd
  6384                           
  6385                           ;LCD.c: 77:     Lcd_Cmd(0x00);
  6386  09A6  3000               	movlw	0
  6387  09A7  160A  118A  27A0  120A  158A  	fcall	_Lcd_Cmd
  6388                           
  6389                           ;LCD.c: 78:     Lcd_Cmd(0x0C);
  6390  09AC  300C               	movlw	12
  6391  09AD  160A  118A  27A0  120A  158A  	fcall	_Lcd_Cmd
  6392                           
  6393                           ;LCD.c: 79:     Lcd_Cmd(0x00);
  6394  09B2  3000               	movlw	0
  6395  09B3  160A  118A  27A0  120A  158A  	fcall	_Lcd_Cmd
  6396                           
  6397                           ;LCD.c: 80:     Lcd_Cmd(0x06);
  6398  09B8  3006               	movlw	6
  6399  09B9  160A  118A  27A0  120A  158A  	fcall	_Lcd_Cmd
  6400  09BE                     l230:
  6401  09BE  0008               	return
  6402  09BF                     __end_of_Lcd_Init:
  6403                           
  6404                           	psect	text16
  6405  07F2                     __ptext16:	
  6406 ;; *************** function _Lcd_Clear *****************
  6407 ;; Defined at:
  6408 ;;		line 43 in file "LCD.c"
  6409 ;; Parameters:    Size  Location     Type
  6410 ;;		None
  6411 ;; Auto vars:     Size  Location     Type
  6412 ;;		None
  6413 ;; Return value:  Size  Location     Type
  6414 ;;                  1    wreg      void 
  6415 ;; Registers used:
  6416 ;;		wreg, status,2, status,0, pclath, cstack
  6417 ;; Tracked objects:
  6418 ;;		On entry : 0/0
  6419 ;;		On exit  : 0/0
  6420 ;;		Unchanged: 0/0
  6421 ;; Data sizes:     COMMON   BANK0   BANK1   BANK3   BANK2
  6422 ;;      Params:         0       0       0       0       0
  6423 ;;      Locals:         0       0       0       0       0
  6424 ;;      Temps:          0       0       0       0       0
  6425 ;;      Totals:         0       0       0       0       0
  6426 ;;Total ram usage:        0 bytes
  6427 ;; Hardware stack levels used:    1
  6428 ;; Hardware stack levels required when called:    3
  6429 ;; This function calls:
  6430 ;;		_Lcd_Cmd
  6431 ;; This function is called by:
  6432 ;;		_main
  6433 ;; This function uses a non-reentrant model
  6434 ;;
  6435                           
  6436                           
  6437                           ;psect for function _Lcd_Clear
  6438  07F2                     _Lcd_Clear:
  6439  07F2                     l2489:	
  6440                           ;incstack = 0
  6441                           ; Regs used in _Lcd_Clear: [wreg+status,2+status,0+pclath+cstack]
  6442                           
  6443                           
  6444                           ;LCD.c: 44:     Lcd_Cmd(0);
  6445  07F2  3000               	movlw	0
  6446  07F3  160A  118A  27A0  120A  118A  	fcall	_Lcd_Cmd
  6447                           
  6448                           ;LCD.c: 45:     Lcd_Cmd(1);
  6449  07F8  3001               	movlw	1
  6450  07F9  160A  118A  27A0  120A  118A  	fcall	_Lcd_Cmd
  6451  07FE                     l221:
  6452  07FE  0008               	return
  6453  07FF                     __end_of_Lcd_Clear:
  6454                           
  6455                           	psect	text17
  6456  17A0                     __ptext17:	
  6457 ;; *************** function _Lcd_Cmd *****************
  6458 ;; Defined at:
  6459 ;;		line 35 in file "LCD.c"
  6460 ;; Parameters:    Size  Location     Type
  6461 ;;  a               1    wreg     unsigned char 
  6462 ;; Auto vars:     Size  Location     Type
  6463 ;;  a               1    5[COMMON] unsigned char 
  6464 ;; Return value:  Size  Location     Type
  6465 ;;                  1    wreg      void 
  6466 ;; Registers used:
  6467 ;;		wreg, status,2, status,0, pclath, cstack
  6468 ;; Tracked objects:
  6469 ;;		On entry : 0/0
  6470 ;;		On exit  : 0/0
  6471 ;;		Unchanged: 0/0
  6472 ;; Data sizes:     COMMON   BANK0   BANK1   BANK3   BANK2
  6473 ;;      Params:         0       0       0       0       0
  6474 ;;      Locals:         1       0       0       0       0
  6475 ;;      Temps:          2       0       0       0       0
  6476 ;;      Totals:         3       0       0       0       0
  6477 ;;Total ram usage:        3 bytes
  6478 ;; Hardware stack levels used:    1
  6479 ;; Hardware stack levels required when called:    2
  6480 ;; This function calls:
  6481 ;;		_Lcd_Port
  6482 ;; This function is called by:
  6483 ;;		_Lcd_Clear
  6484 ;;		_Lcd_Set_Cursor
  6485 ;;		_Lcd_Init
  6486 ;;		_Lcd_Shift_Right
  6487 ;;		_Lcd_Shift_Left
  6488 ;; This function uses a non-reentrant model
  6489 ;;
  6490                           
  6491                           
  6492                           ;psect for function _Lcd_Cmd
  6493  17A0                     _Lcd_Cmd:
  6494                           
  6495                           ;incstack = 0
  6496                           ; Regs used in _Lcd_Cmd: [wreg+status,2+status,0+pclath+cstack]
  6497                           ;Lcd_Cmd@a stored from wreg
  6498  17A0  00F5               	movwf	Lcd_Cmd@a
  6499  17A1                     l2011:
  6500                           
  6501                           ;LCD.c: 36:     PORTBbits.RB4 = 0;
  6502  17A1  1283               	bcf	3,5	;RP0=0, select bank0
  6503  17A2  1303               	bcf	3,6	;RP1=0, select bank0
  6504  17A3  1206               	bcf	6,4	;volatile
  6505  17A4                     l2013:
  6506                           
  6507                           ;LCD.c: 37:     Lcd_Port(a);
  6508  17A4  0875               	movf	Lcd_Cmd@a,w
  6509  17A5  160A  118A  27BA  160A  118A  	fcall	_Lcd_Port
  6510  17AA                     l2015:
  6511                           
  6512                           ;LCD.c: 38:     RB5 = 1;
  6513  17AA  1283               	bcf	3,5	;RP0=0, select bank0
  6514  17AB  1303               	bcf	3,6	;RP1=0, select bank0
  6515  17AC  1686               	bsf	6,5	;volatile
  6516  17AD                     l2017:
  6517                           
  6518                           ;LCD.c: 39:     _delay((unsigned long)((4)*(8000000/4000.0)));
  6519  17AD  300B               	movlw	11
  6520  17AE  00F4               	movwf	??_Lcd_Cmd+1
  6521  17AF  3062               	movlw	98
  6522  17B0  00F3               	movwf	??_Lcd_Cmd
  6523  17B1                     u4337:
  6524  17B1  0BF3               	decfsz	??_Lcd_Cmd,f
  6525  17B2  2FB1               	goto	u4337
  6526  17B3  0BF4               	decfsz	??_Lcd_Cmd+1,f
  6527  17B4  2FB1               	goto	u4337
  6528  17B5  0000               	nop
  6529  17B6                     l2019:
  6530                           
  6531                           ;LCD.c: 40:     RB5 = 0;
  6532  17B6  1283               	bcf	3,5	;RP0=0, select bank0
  6533  17B7  1303               	bcf	3,6	;RP1=0, select bank0
  6534  17B8  1286               	bcf	6,5	;volatile
  6535  17B9                     l218:
  6536  17B9  0008               	return
  6537  17BA                     __end_of_Lcd_Cmd:
  6538                           
  6539                           	psect	text18
  6540  17BA                     __ptext18:	
  6541 ;; *************** function _Lcd_Port *****************
  6542 ;; Defined at:
  6543 ;;		line 13 in file "LCD.c"
  6544 ;; Parameters:    Size  Location     Type
  6545 ;;  a               1    wreg     unsigned char 
  6546 ;; Auto vars:     Size  Location     Type
  6547 ;;  a               1    2[COMMON] unsigned char 
  6548 ;; Return value:  Size  Location     Type
  6549 ;;                  1    wreg      void 
  6550 ;; Registers used:
  6551 ;;		wreg
  6552 ;; Tracked objects:
  6553 ;;		On entry : 0/0
  6554 ;;		On exit  : 0/0
  6555 ;;		Unchanged: 0/0
  6556 ;; Data sizes:     COMMON   BANK0   BANK1   BANK3   BANK2
  6557 ;;      Params:         0       0       0       0       0
  6558 ;;      Locals:         1       0       0       0       0
  6559 ;;      Temps:          0       0       0       0       0
  6560 ;;      Totals:         1       0       0       0       0
  6561 ;;Total ram usage:        1 bytes
  6562 ;; Hardware stack levels used:    1
  6563 ;; Hardware stack levels required when called:    1
  6564 ;; This function calls:
  6565 ;;		Nothing
  6566 ;; This function is called by:
  6567 ;;		_Lcd_Cmd
  6568 ;;		_Lcd_Init
  6569 ;;		_Lcd_Write_Char
  6570 ;; This function uses a non-reentrant model
  6571 ;;
  6572                           
  6573                           
  6574                           ;psect for function _Lcd_Port
  6575  17BA                     _Lcd_Port:
  6576                           
  6577                           ;incstack = 0
  6578                           ; Regs used in _Lcd_Port: [wreg]
  6579                           ;Lcd_Port@a stored from wreg
  6580  17BA  00F2               	movwf	Lcd_Port@a
  6581  17BB                     l1793:
  6582                           
  6583                           ;LCD.c: 14:     if (a & 1)
  6584  17BB  1C72               	btfss	Lcd_Port@a,0
  6585  17BC  2FBE               	goto	u1781
  6586  17BD  2FBF               	goto	u1780
  6587  17BE                     u1781:
  6588  17BE  2FC3               	goto	l207
  6589  17BF                     u1780:
  6590  17BF                     l1795:
  6591                           
  6592                           ;LCD.c: 15:         RB0 = 1;
  6593  17BF  1283               	bcf	3,5	;RP0=0, select bank0
  6594  17C0  1303               	bcf	3,6	;RP1=0, select bank0
  6595  17C1  1406               	bsf	6,0	;volatile
  6596  17C2  2FC6               	goto	l208
  6597  17C3                     l207:	
  6598                           ;LCD.c: 16:     else
  6599                           
  6600                           
  6601                           ;LCD.c: 17:         RB0 = 0;
  6602  17C3  1283               	bcf	3,5	;RP0=0, select bank0
  6603  17C4  1303               	bcf	3,6	;RP1=0, select bank0
  6604  17C5  1006               	bcf	6,0	;volatile
  6605  17C6                     l208:
  6606                           
  6607                           ;LCD.c: 19:     if (a & 2)
  6608  17C6  1CF2               	btfss	Lcd_Port@a,1
  6609  17C7  2FC9               	goto	u1791
  6610  17C8  2FCA               	goto	u1790
  6611  17C9                     u1791:
  6612  17C9  2FCC               	goto	l209
  6613  17CA                     u1790:
  6614  17CA                     l1797:
  6615                           
  6616                           ;LCD.c: 20:         RB1 = 1;
  6617  17CA  1486               	bsf	6,1	;volatile
  6618  17CB  2FCD               	goto	l210
  6619  17CC                     l209:	
  6620                           ;LCD.c: 21:     else
  6621                           
  6622                           
  6623                           ;LCD.c: 22:         RB1 = 0;
  6624  17CC  1086               	bcf	6,1	;volatile
  6625  17CD                     l210:
  6626                           
  6627                           ;LCD.c: 24:     if (a & 4)
  6628  17CD  1D72               	btfss	Lcd_Port@a,2
  6629  17CE  2FD0               	goto	u1801
  6630  17CF  2FD1               	goto	u1800
  6631  17D0                     u1801:
  6632  17D0  2FD3               	goto	l211
  6633  17D1                     u1800:
  6634  17D1                     l1799:
  6635                           
  6636                           ;LCD.c: 25:         RB2 = 1;
  6637  17D1  1506               	bsf	6,2	;volatile
  6638  17D2  2FD4               	goto	l212
  6639  17D3                     l211:	
  6640                           ;LCD.c: 26:     else
  6641                           
  6642                           
  6643                           ;LCD.c: 27:         RB2 = 0;
  6644  17D3  1106               	bcf	6,2	;volatile
  6645  17D4                     l212:
  6646                           
  6647                           ;LCD.c: 29:     if (a & 8)
  6648  17D4  1DF2               	btfss	Lcd_Port@a,3
  6649  17D5  2FD7               	goto	u1811
  6650  17D6  2FD8               	goto	u1810
  6651  17D7                     u1811:
  6652  17D7  2FDA               	goto	l213
  6653  17D8                     u1810:
  6654  17D8                     l1801:
  6655                           
  6656                           ;LCD.c: 30:         RB3 = 1;
  6657  17D8  1586               	bsf	6,3	;volatile
  6658  17D9  2FDB               	goto	l215
  6659  17DA                     l213:	
  6660                           ;LCD.c: 31:     else
  6661                           
  6662                           
  6663                           ;LCD.c: 32:         RB3 = 0;
  6664  17DA  1186               	bcf	6,3	;volatile
  6665  17DB                     l215:
  6666  17DB  0008               	return
  6667  17DC                     __end_of_Lcd_Port:
  6668                           
  6669                           	psect	text19
  6670  17DC                     __ptext19:	
  6671 ;; *************** function _isr *****************
  6672 ;; Defined at:
  6673 ;;		line 62 in file "main.c"
  6674 ;; Parameters:    Size  Location     Type
  6675 ;;		None
  6676 ;; Auto vars:     Size  Location     Type
  6677 ;;		None
  6678 ;; Return value:  Size  Location     Type
  6679 ;;                  1    wreg      void 
  6680 ;; Registers used:
  6681 ;;		wreg, status,2
  6682 ;; Tracked objects:
  6683 ;;		On entry : 0/0
  6684 ;;		On exit  : 0/0
  6685 ;;		Unchanged: 0/0
  6686 ;; Data sizes:     COMMON   BANK0   BANK1   BANK3   BANK2
  6687 ;;      Params:         0       0       0       0       0
  6688 ;;      Locals:         0       0       0       0       0
  6689 ;;      Temps:          2       0       0       0       0
  6690 ;;      Totals:         2       0       0       0       0
  6691 ;;Total ram usage:        2 bytes
  6692 ;; Hardware stack levels used:    1
  6693 ;; This function calls:
  6694 ;;		Nothing
  6695 ;; This function is called by:
  6696 ;;		Interrupt level 1
  6697 ;; This function uses a non-reentrant model
  6698 ;;
  6699                           
  6700                           
  6701                           ;psect for function _isr
  6702  17DC                     _isr:
  6703  17DC                     i1l2609:
  6704                           
  6705                           ;main.c: 63:     (INTCONbits.GIE = 0);
  6706  17DC  138B               	bcf	11,7	;volatile
  6707                           
  6708                           ;main.c: 64:     if (PIR2bits.CCP2IF == 1){
  6709  17DD  1283               	bcf	3,5	;RP0=0, select bank0
  6710  17DE  1303               	bcf	3,6	;RP1=0, select bank0
  6711  17DF  1C0D               	btfss	13,0	;volatile
  6712  17E0  2FE2               	goto	u348_21
  6713  17E1  2FE3               	goto	u348_20
  6714  17E2                     u348_21:
  6715  17E2  2FF8               	goto	i1l2625
  6716  17E3                     u348_20:
  6717  17E3                     i1l2611:
  6718                           
  6719                           ;main.c: 65:         PORTA = 0X01;
  6720  17E3  3001               	movlw	1
  6721  17E4  0085               	movwf	5	;volatile
  6722  17E5                     i1l2613:
  6723                           
  6724                           ;main.c: 66:         TMR1ON = 0;
  6725  17E5  1010               	bcf	16,0	;volatile
  6726                           
  6727                           ;main.c: 67:         frecu=(CCPR2H << 8 ) | CCPR2L;
  6728  17E6  081C               	movf	28,w	;volatile
  6729  17E7  1683               	bsf	3,5	;RP0=1, select bank1
  6730  17E8  1303               	bcf	3,6	;RP1=0, select bank1
  6731  17E9  00C0               	movwf	(_frecu+1)^(0+128)
  6732  17EA  1283               	bcf	3,5	;RP0=0, select bank0
  6733  17EB  1303               	bcf	3,6	;RP1=0, select bank0
  6734  17EC  081B               	movf	27,w	;volatile
  6735  17ED  1683               	bsf	3,5	;RP0=1, select bank1
  6736  17EE  1303               	bcf	3,6	;RP1=0, select bank1
  6737  17EF  00BF               	movwf	_frecu^(0+128)
  6738  17F0                     i1l2615:
  6739                           
  6740                           ;main.c: 68:         flag_frec=1;
  6741  17F0  01A4               	clrf	_flag_frec^(0+128)
  6742  17F1  0AA4               	incf	_flag_frec^(0+128),f
  6743  17F2                     i1l2617:
  6744                           
  6745                           ;main.c: 69:         TMR1L = 0X00;
  6746  17F2  1283               	bcf	3,5	;RP0=0, select bank0
  6747  17F3  1303               	bcf	3,6	;RP1=0, select bank0
  6748  17F4  018E               	clrf	14	;volatile
  6749  17F5                     i1l2619:
  6750                           
  6751                           ;main.c: 70:         TMR1H = 0X00;
  6752  17F5  018F               	clrf	15	;volatile
  6753  17F6                     i1l2621:
  6754                           
  6755                           ;main.c: 71:         PIR2bits.CCP2IF = 0;
  6756  17F6  100D               	bcf	13,0	;volatile
  6757  17F7                     i1l2623:
  6758                           
  6759                           ;main.c: 72:         TMR1ON = 1;
  6760  17F7  1410               	bsf	16,0	;volatile
  6761  17F8                     i1l2625:
  6762                           
  6763                           ;main.c: 76:     (INTCONbits.GIE = 1);
  6764  17F8  178B               	bsf	11,7	;volatile
  6765  17F9                     i1l92:
  6766  17F9  0871               	movf	??_isr+1,w
  6767  17FA  008A               	movwf	10
  6768  17FB  0E70               	swapf	??_isr,w
  6769  17FC  0083               	movwf	3
  6770  17FD  0EFE               	swapf	btemp,f
  6771  17FE  0E7E               	swapf	btemp,w
  6772  17FF  0009               	retfie
  6773  1800                     __end_of_isr:
  6774  007E                     btemp	set	126	;btemp
  6775  007E                     wtemp0	set	126
  6776                           
  6777                           	psect	intentry
  6778  0004                     __pintentry:	
  6779                           ;incstack = 0
  6780                           ; Regs used in _isr: [wreg+status,2]
  6781                           
  6782  0004                     interrupt_function:
  6783  007E                     saved_w	set	btemp
  6784  0004  00FE               	movwf	btemp
  6785  0005  0E03               	swapf	3,w
  6786  0006  00F0               	movwf	??_isr
  6787  0007  080A               	movf	10,w
  6788  0008  00F1               	movwf	??_isr+1
  6789  0009  160A  118A  2FDC   	ljmp	_isr
  6790                           
  6791                           	psect	config
  6792                           
  6793                           ;Config register CONFIG1 @ 0x2007
  6794                           ;	Oscillator Selection bits
  6795                           ;	FOSC = INTRC_CLKOUT, INTOSC oscillator: CLKOUT function on RA6/OSC2/CLKOUT pin, I/O fu
      +                          nction on RA7/OSC1/CLKIN
  6796                           ;	Watchdog Timer Enable bit
  6797                           ;	WDTE = OFF, WDT disabled and can be enabled by SWDTEN bit of the WDTCON register
  6798                           ;	Power-up Timer Enable bit
  6799                           ;	PWRTE = OFF, PWRT disabled
  6800                           ;	RE3/MCLR pin function select bit
  6801                           ;	MCLRE = OFF, RE3/MCLR pin function is digital input, MCLR internally tied to VDD
  6802                           ;	Code Protection bit
  6803                           ;	CP = OFF, Program memory code protection is disabled
  6804                           ;	Data Code Protection bit
  6805                           ;	CPD = OFF, Data memory code protection is disabled
  6806                           ;	Brown Out Reset Selection bits
  6807                           ;	BOREN = OFF, BOR disabled
  6808                           ;	Internal External Switchover bit
  6809                           ;	IESO = OFF, Internal/External Switchover mode is disabled
  6810                           ;	Fail-Safe Clock Monitor Enabled bit
  6811                           ;	FCMEN = OFF, Fail-Safe Clock Monitor is disabled
  6812                           ;	Low Voltage Programming Enable bit
  6813                           ;	LVP = OFF, RB3 pin has digital I/O, HV on MCLR must be used for programming
  6814                           ;	In-Circuit Debugger Mode bit
  6815                           ;	DEBUG = 0x1, unprogrammed default
  6816  2007                     	org	8199
  6817  2007  20D5               	dw	8405
  6818                           
  6819                           ;Config register CONFIG2 @ 0x2008
  6820                           ;	Brown-out Reset Selection bit
  6821                           ;	BOR4V = BOR40V, Brown-out Reset set to 4.0V
  6822                           ;	Flash Program Memory Self Write Enable bits
  6823                           ;	WRT = OFF, Write protection off
  6824  2008                     	org	8200
  6825  2008  3FFF               	dw	16383

Data Sizes:
    Strings     11
    Constant    0
    Data        0
    BSS         35
    Persistent  0
    Stack       0

Auto Spaces:
    Space          Size  Autos    Used
    COMMON           14     10      12
    BANK0            80     79      79
    BANK1            80     28      61
    BANK3            96      0       0
    BANK2            96      0       0

Pointer List with Targets:

    Lcd_Write_String@a	PTR unsigned char  size(2) Largest target is 20
		 -> texto(BANK1[20]), STR_1(CODE[11]), 

    floattostr_@cadena_	PTR unsigned char  size(1) Largest target is 20
		 -> texto(BANK1[20]), 


Critical Paths under _main in COMMON

    _main->___xxtofl
    _floattostr_->___flge
    _floattostr_->___xxtofl
    ___flsub->___xxtofl
    ___flmul->___xxtofl
    ___fldiv->___xxtofl
    _Lcd_Write_String->_Lcd_Write_Char
    _Lcd_Write_Char->_Lcd_Port
    _Lcd_Set_Cursor->_Lcd_Cmd
    _Lcd_Init->_Lcd_Cmd
    _Lcd_Clear->_Lcd_Cmd
    _Lcd_Cmd->_Lcd_Port

Critical Paths under _isr in COMMON

    None.

Critical Paths under _main in BANK0

    _main->_floattostr_
    _floattostr_->___fladd
    ___flsub->___fladd
    ___fladd->___fldiv
    ___flmul->___xxtofl
    ___fldiv->___flmul

Critical Paths under _isr in BANK0

    None.

Critical Paths under _main in BANK1

    _main->_floattostr_
    _floattostr_->___flsub

Critical Paths under _isr in BANK1

    None.

Critical Paths under _main in BANK3

    None.

Critical Paths under _isr in BANK3

    None.

Critical Paths under _main in BANK2

    None.

Critical Paths under _isr in BANK2

    None.

Call Graph Tables:

 ---------------------------------------------------------------------------------
 (Depth) Function   	        Calls       Base Space   Used Autos Params    Refs
 ---------------------------------------------------------------------------------
 (0) _main                                                 2     2      0   21113
                                             26 BANK1      2     2      0
                          _Lcd_Clear
                           _Lcd_Init
                     _Lcd_Set_Cursor
                   _Lcd_Write_String
                            ___fldiv
                            ___flmul
                           ___xxtofl
                        _floattostr_
                              _setup
 ---------------------------------------------------------------------------------
 (1) _setup                                                0     0      0       0
 ---------------------------------------------------------------------------------
 (1) _floattostr_                                         19    13      6   13793
                                             78 BANK0      1     1      0
                                              8 BANK1     18    12      6
                            ___fladd
                            ___fldiv
                             ___flge
                            ___flmul
                            ___flneg
                            ___flsub
                            ___fltol
                           ___xxtofl
 ---------------------------------------------------------------------------------
 (2) ___xxtofl                                            14    10      4     550
                                              2 COMMON     8     4      4
                                              0 BANK0      6     6      0
 ---------------------------------------------------------------------------------
 (2) ___fltol                                             11     7      4     427
                                              2 COMMON     6     2      4
                                              0 BANK0      5     5      0
 ---------------------------------------------------------------------------------
 (2) ___flsub                                              8     0      8    2485
                                              0 BANK1      8     0      8
                            ___fladd
                           ___xxtofl (ARG)
 ---------------------------------------------------------------------------------
 (3) ___fladd                                             20    12      8    2288
                                             58 BANK0     20    12      8
                            ___fldiv (ARG)
 ---------------------------------------------------------------------------------
 (2) ___flneg                                              4     0      4     121
                                              2 COMMON     4     0      4
 ---------------------------------------------------------------------------------
 (2) ___flmul                                             26    18      8    3713
                                              6 BANK0     26    18      8
                          __Umul8_16
                           ___xxtofl (ARG)
 ---------------------------------------------------------------------------------
 (3) __Umul8_16                                            9     7      2     980
                                              2 COMMON     4     2      2
                                              0 BANK0      5     5      0
 ---------------------------------------------------------------------------------
 (2) ___flge                                              12     4      8     942
                                              2 COMMON     8     0      8
                                              0 BANK0      4     4      0
 ---------------------------------------------------------------------------------
 (2) ___fldiv                                             26    18      8    1729
                                             32 BANK0     26    18      8
                            ___flmul (ARG)
                           ___xxtofl (ARG)
 ---------------------------------------------------------------------------------
 (1) _Lcd_Write_String                                     7     5      2     488
                                              7 COMMON     2     0      2
                                              0 BANK0      5     5      0
                     _Lcd_Write_Char
 ---------------------------------------------------------------------------------
 (2) _Lcd_Write_Char                                       4     4      0     178
                                              3 COMMON     4     4      0
                           _Lcd_Port
 ---------------------------------------------------------------------------------
 (1) _Lcd_Set_Cursor                                       7     6      1     532
                                              6 COMMON     3     2      1
                                              0 BANK0      4     4      0
                            _Lcd_Cmd
 ---------------------------------------------------------------------------------
 (1) _Lcd_Init                                             2     2      0     198
                                              6 COMMON     2     2      0
                            _Lcd_Cmd
                           _Lcd_Port
 ---------------------------------------------------------------------------------
 (1) _Lcd_Clear                                            0     0      0     110
                            _Lcd_Cmd
 ---------------------------------------------------------------------------------
 (2) _Lcd_Cmd                                              3     3      0     110
                                              3 COMMON     3     3      0
                           _Lcd_Port
 ---------------------------------------------------------------------------------
 (3) _Lcd_Port                                             1     1      0      88
                                              2 COMMON     1     1      0
 ---------------------------------------------------------------------------------
 Estimated maximum stack depth 3
 ---------------------------------------------------------------------------------
 (Depth) Function   	        Calls       Base Space   Used Autos Params    Refs
 ---------------------------------------------------------------------------------
 (4) _isr                                                  2     2      0       0
                                              0 COMMON     2     2      0
 ---------------------------------------------------------------------------------
 Estimated maximum stack depth 4
 ---------------------------------------------------------------------------------

 Call Graph Graphs:

 _main (ROOT)
   _Lcd_Clear
     _Lcd_Cmd
       _Lcd_Port
   _Lcd_Init
     _Lcd_Cmd
       _Lcd_Port
     _Lcd_Port
   _Lcd_Set_Cursor
     _Lcd_Cmd
       _Lcd_Port
   _Lcd_Write_String
     _Lcd_Write_Char
       _Lcd_Port
   ___fldiv
     ___flmul (ARG)
       __Umul8_16
       ___xxtofl (ARG)
     ___xxtofl (ARG)
   ___flmul
     __Umul8_16
     ___xxtofl (ARG)
   ___xxtofl
   _floattostr_
     ___fladd
       ___fldiv (ARG)
         ___flmul (ARG)
           __Umul8_16
           ___xxtofl (ARG)
         ___xxtofl (ARG)
     ___fldiv
       ___flmul (ARG)
         __Umul8_16
         ___xxtofl (ARG)
       ___xxtofl (ARG)
     ___flge
     ___flmul
       __Umul8_16
       ___xxtofl (ARG)
     ___flneg
     ___flsub
       ___fladd
         ___fldiv (ARG)
           ___flmul (ARG)
             __Umul8_16
             ___xxtofl (ARG)
           ___xxtofl (ARG)
       ___xxtofl (ARG)
     ___fltol
     ___xxtofl
   _setup

 _isr (ROOT)

 Address spaces:
Name               Size   Autos  Total    Cost      Usage
BITCOMMON            E      0       0       0        0.0%
EEDATA             100      0       0       0        0.0%
NULL                 0      0       0       0        0.0%
CODE                 0      0       0       0        0.0%
COMMON               E      A       C       1       85.7%
BITSFR0              0      0       0       1        0.0%
SFR0                 0      0       0       1        0.0%
BITSFR1              0      0       0       2        0.0%
SFR1                 0      0       0       2        0.0%
STACK                0      0       0       2        0.0%
ABS                  0      0      98       3        0.0%
BITBANK0            50      0       0       4        0.0%
BITSFR3              0      0       0       4        0.0%
SFR3                 0      0       0       4        0.0%
BANK0               50     4F      4F       5       98.8%
BITSFR2              0      0       0       5        0.0%
SFR2                 0      0       0       5        0.0%
BITBANK1            50      0       0       6        0.0%
BANK1               50     1C      3D       7       76.2%
BITBANK3            60      0       0       8        0.0%
BANK3               60      0       0       9        0.0%
BITBANK2            60      0       0      10        0.0%
BANK2               60      0       0      11        0.0%
DATA                 0      0      98      12        0.0%


Microchip Technology PIC Macro Assembler V2.31 build 20201012212115 
Symbol Table                                                                                   Sun Aug 29 23:22:28 2021

             ___fldiv@aexp 0059               ___fldiv@bexp 0058                          pc 0002  
             ___fldiv@sign 0051                         fsr 0004        __Umul8_16@word_mpld 0022  
                      l105 083A                        l210 17CD                        l211 17D3  
                      l212 17D4                        l213 17DA                        l221 07FE  
                      l230 09BE                        l215 17DB                        l207 17C3  
                      l135 03A7                        l208 17C6                        l209 17CC  
                      l233 0873                        l218 17B9                        l227 0961  
                      l239 08B9                        l505 0A59                        l513 0813  
                      l508 0AC5                        l524 0A25                        l509 0ADE  
                      l517 0A3A                        l702 0D5B                        l630 0E59  
                      l527 0A3A                        l704 0D6B                        l720 0708  
                      l624 0DDB                        l732 06FC                        l628 0E82  
                      l741 07F1                        l645 0F4D                        l637 0FFF  
                      l726 0674                        l670 0909                        l655 0F93  
                      l680 0BF7                        l649 0F71                        l682 0D77  
                      l666 0FF3                        l658 0FD1                        l770 0B48  
                      l739 07DF                        l667 0FFF                        l764 0B03  
                      l766 0B9A                        l696 0CE9                        l777 0B64  
                      l778 0B70                        _GIE 005F                        _RB0 0030  
                      _RB1 0031                        _RB2 0032                        _RB3 0033  
                      _RB5 0035                        _isr 17DC                        fsr0 0004  
       floattostr_@cadena_ 00CD                        indf 0000               ___flmul@aexp 0034  
             ___flmul@bexp 0039               ___flmul@sign 0033               ___flmul@temp 003E  
             ___flmul@prod 003A               ?_floattostr_ 00C9         floattostr_@largo_n 00D5  
             ___fltol@exp1 0077                       l2011 17A1                       l2013 17A4  
                     l2021 083C                       l2015 17AA                       l2031 085F  
                     l2023 0846                       l2111 0B9B                       l2017 17AD  
                     l2033 0862                       l2025 0849                       l2201 0CB5  
                     l2121 0BB2                       l2113 0BA2                       l2041 0A3B  
                     l2105 08BA                       l3001 0709                       l2019 17B6  
                     l2035 0868                       l2027 0857                       l2211 0CCD  
                     l2203 0CB9                       l2131 0BCA                       l2123 0BB7  
                     l2115 0BA8                       l2051 0A9D                       l2043 0A51  
                     l2107 08BE                       l3011 0734                       l3003 0720  
                     l2037 086B                       l2029 085A                       l2221 0CEE  
                     l2213 0CCE                       l2205 0CBA                       l2141 0BDF  
                     l2133 0BCF                       l2125 0BBF                       l2117 0BAC  
                     l2053 0AA1                       l2045 0A6D                       l2061 0809  
                     l3021 07A8                       l3013 073A                       l3005 0729  
                     l2039 0870                       l2223 0CF3                       l2231 0D24  
                     l2215 0CD2                       l2207 0CC3                       l2151 0BFF  
                     l2143 0BE4                       l2135 0BD5                       l2127 0BC0  
                     l2119 0BAD                       l2055 0ADB                       l2047 0A75  
                     l2063 0811                       l3023 07B4                       l3015 0790  
                     l3007 072C                       l2241 0D5A                       l2233 0D31  
                     l2225 0D01                       l2217 0CE6                       l2209 0CC9  
                     l2161 0C1D                       l2153 0C0B                       l2145 0BEC  
                     l2137 0BD9                       l2129 0BC2                       l2057 0ADD  
                     l2049 0A79                       l2065 0813                       l2401 0B0B  
                     l3025 07BD                       l3017 0792                       l3009 072D  
                     l2243 0D61                       l2235 0D3F                       l2227 0D05  
                     l2171 0C48                       l2155 0C0F                       l2147 0BED  
                     l2139 0BDA                       l2411 0B2D                       l3019 0793  
                     l2501 0937                       l2245 0D65                       l2237 0D4E  
                     l2229 0D1E                       l2181 0C6D                       l2173 0C50  
                     l2165 0C26                       l2149 0BEF                       l2421 0B5E  
                     l2413 0B31                       l2405 0B14                       l2503 093D  
                     l2247 0D67                       l2239 0D52                       l2191 0C98  
                     l2183 0C6E                       l2175 0C52                       l2167 0C38  
                     l2159 0C18                       l2431 0B91                       l2423 0B68  
                     l2415 0B3F                       l2407 0B19                       l1801 17D8  
                     l2505 094E                       l2177 0C57                       l2185 0C77  
                     l2193 0C9C                       l2169 0C40                       l2433 0B92  
                     l2425 0B72                       l2417 0B4F                       l2409 0B26  
                     l2441 0820                       l2507 0953                       l2195 0CA2  
                     l2187 0C89                       l2179 0C69                       l1811 0D8A  
                     l1803 0D78                       l2427 0B88                       l2419 0B5A  
                     l2451 0827                       l2443 0823                       l2509 0959  
                     l2197 0CAA                       l2189 0C8A                       l1901 0E86  
                     l1813 0D8F                       l1821 0D9F                       l1805 0D7F  
                     l2429 0B8D                       l2461 082E                       l2453 082A  
                     l2445 0824                       l2437 0814                       l2199 0CAC  
                     l1911 0EAF                       l1903 0E8B                       l1831 0DB9  
                     l1823 0DA7                       l1815 0D94                       l1807 0D85  
                     l2471 0835                       l2463 082F                       l2455 082B  
                     l2447 0825                       l2439 081E                       l2481 0968  
                     l2721 07E8                       l2713 07CC                       l2801 0407  
                     l1921 0EC3                       l1913 0EB3                       l1841 0DD0  
                     l1833 0DBD                       l1825 0DAC                       l1817 0D9C  
                     l1809 0D89                       l2393 0AE2                       l2473 0836  
                     l2465 0830                       l2457 082C                       l2449 0826  
                     l2483 0971                       l2491 090D                       l2723 07ED  
                     l2715 07CE                       l2811 0432                       l2803 040C  
                     l1931 0F2B                       l1923 0ECC                       l1915 0EBC  
                     l1907 0E94                       l1851 0DE9                       l1843 0DD1  
                     l1835 0DBE                       l1827 0DB2                       l1819 0D9D  
                     l2395 0AE7                       l2475 0837                       l2467 0833  
                     l2459 082D                       l2485 0980                       l2493 0912  
                     l2717 07D5                       l2821 04CF                       l2813 044F  
                     l1933 0F30                       l1917 0EBE                       l1909 0EAB  
                     l1925 0ED1                       l1861 0DFD                       l1853 0DED  
                     l1837 0DC3                       l1845 0DD3                       l1829 0DB3  
                     l2741 09F5                       l2733 09D5                       l2397 0AEB  
                     l2477 0838                       l2469 0834                       l2487 0986  
                     l2479 0962                       l2495 0923                       l2903 0874  
                     l2719 07D9                       l2831 0532                       l2823 04D8  
                     l2815 046B                       l2807 0415                       l1951 0F78  
                     l1943 0F63                       l1927 0EE7                       l1935 0F3F  
                     l1919 0EC2                       l1871 0E11                       l1863 0E01  
                     l1855 0DF1                       l1847 0DE1                       l1839 0DC8  
                     l2743 09F9                       l2751 0A13                       l2735 09EA  
                     l2727 09BF                       l2399 0AFB                       l2911 001E  
                     l1793 17BB                       l2489 07F2                       l2497 0928  
                     l2905 0879                       l2841 05D2                       l2833 054B  
                     l2825 04E8                       l2817 0497                       l2809 0425  
                     l1961 0F86                       l1953 0F7A                       l1945 0F6C  
                     l1937 0F55                       l1929 0F25                       l1873 0E15  
                     l1865 0E05                       l1857 0DF5                       l1849 0DE5  
                     l1881 0E25                       l2761 0A2F                       l2737 09EB  
                     l2729 09CC                       l2921 0055                       l2913 0027  
                     l1795 17BF                       l2499 092E                       l2907 0895  
                     l2851 0640                       l2843 05F8                       l2835 0568  
                     l2827 0505                       l2819 04B3                       l2771 03BA  
                     l2763 03A8                       l1971 0F9D                       l1963 0F8A  
                     l1955 0F7F                       l1947 0F70                       l1939 0F5A  
                     l1891 0E68                       l1883 0E26                       l1875 0E19  
                     l1867 0E09                       l1859 0DF9                       l2739 09F3  
                     l2931 00CD                       l2923 006C                       l2915 0029  
                     l1797 17CA                       l2909 089D                       l2861 0658  
                     l2853 0644                       l2845 0620                       l2837 0595  
                     l2829 0515                       l2781 03D6                       l2773 03BF  
                     l2765 03AF                       l1981 0FDB                       l1973 0FAB  
                     l1965 0F90                       l1949 0F75                       l1957 0F81  
                     l1893 0E6C                       l1885 0E3D                       l1877 0E1D  
                     l1869 0E0D                       l2757 0A1A                       l2749 0A01  
                     l2941 0153                       l2933 00E9                       l2917 0042  
                     l1799 17D1                       l2871 0679                       l2863 0659  
                     l2855 0645                       l2847 0629                       l2839 05A5  
                     l2791 03EB                       l2783 03DB                       l2775 03C4  
                     l2767 03B5                       l1991 0FEF                       l1983 0FE3  
                     l1975 0FAF                       l1959 0F85                       l1895 0E6D  
                     l1887 0E5D                       l1879 0E21                       l2759 0A2A  
                     l2951 0230                       l2943 0171                       l2935 0128  
                     l2927 0088                       l2919 004F                       l2873 067E  
                     l2881 06AF                       l2865 065D                       l2857 064E  
                     l2849 0637                       l2793 03F0                       l2785 03E1  
                     l2777 03CC                       l2769 03B9                       l1993 0FFA  
                     l1985 0FE8                       l1977 0FCD                       l1969 0F98  
                     l1897 0E76                       l1889 0E66                       l2961 0272  
                     l2953 0249                       l2945 01B0                       l2929 00C7  
                     l2937 012E                       l2891 06E2                       l2883 06BC  
                     l2875 068C                       l2867 0671                       l2859 0654  
                     l2795 03F8                       l2787 03E5                       l2779 03CE  
                     l1995 0FFE                       l1987 0FE9                       l1979 0FD6  
                     l1899 0E7A                       l2971 02A2                       l2963 0284  
                     l2955 0259                       l2947 01B6                       l2939 0149  
                     l2893 06F0                       l2885 06C7                       l2877 0690  
                     l2797 03FA                       l2789 03E6                       l1989 0FED  
                     l2981 02DE                       l2973 02A8                       l2965 0288  
                     l2957 025F                       l2949 01CC                       l2895 06F4  
                     l2887 06D6                       l2879 06A9                       l2799 0402  
                     l2991 030E                       l2983 02EC                       l2975 02AE  
                     l2967 0290                       l2959 026C                       l2897 06F5  
                     l2889 06E0                       l2993 0346                       l2985 02F2  
                     l2969 0295                       l2977 02C4                       l2899 0700  
                     l2995 0385                       l2987 02FC                       l2979 02C9  
                     l2989 0308                       l2997 038B                       l2999 03A1  
                     ?_isr 0070                       STR_1 1010                       u2001 0E9D  
                     u2010 0EAF                       u2002 0EA4                       u2011 0EAE  
                     u2003 0EAB                       u2100 0F5A                       u2020 0EB3  
                     u2101 0F59                       u2021 0EB2                       u2030 0EC2  
                     u2031 0EC1                       u2200 0FAF                       u2120 0F70  
                     u2201 0FAE                       u2121 0F6F                       u2210 0FBE  
                     u2130 0F75                       u2050 0EE7                       u2131 0F74  
                     u2115 0F65                       u2051 0EE6                       u2220 0FCD  
                     u2140 0F7F                       u2221 0FCC                       u2141 0F7E  
                     u2061 0EFE                       u2053 0EE3                       u2045 0EC5  
                     u2230 0FD6                       u2150 0F85                       u2070 0F12  
                     u2062 0EFF                       u2231 0FD5                       u2215 0FB9  
                     u2151 0F84                       u2071 0F13                       u2063 0F04  
                     u2320 0A51                       u4000 0644                       u2240 0FDB  
                     u2160 0F8A                       u2080 0F30                       u2072 0F18  
                     u2064 0F05                       u3200 0B2C                       u2321 0A50  
                     u4001 0643                       u2241 0FDA                       u2161 0F89  
                     u2081 0F2F                       u2073 0F19                       u2065 0F0A  
                     u3201 0B2B                       u2330 0A6D                       u2250 0FE8  
                     u2170 0F90                       u2090 0F55                       u2066 0F0B  
                     u2315 084C                       u2331 0A6C                       u2251 0FE7  
                     u2171 0F8F                       u2091 0F54                       u3300 0912  
                     u2500 0BAC                       u2340 0A79                       u4100 06D6  
                     u4020 0658                       u2260 0FED                       u2180 0F97  
                     u3220 0B4E                       u3301 0911                       u2501 0BAB  
                     u2341 0A78                       u4101 06D5                       u4021 0657  
                     u2261 0FEC                       u2181 0F96                       u3221 0B4D  
                     u2510 0BB2                       u4110 06F4                       u4030 065D  
                     u2270 0FFE                       u2190 0F9D                       u2511 0BB1  
                     u2351 0A88                       u4111 06F3                       u4031 065C  
                     u4015 0647                       u2271 0FFD                       u2191 0F9C  
                     u3215 0B40                       u1800 17D1                       u3320 093D  
                     u4120 0883                       u2520 0BB7                       u2360 0AA1  
                     u2352 0A89                       u4040 0671                       u3240 0B5E  
                     u3160 0AE7                       u4200 0249                       u1801 17D0  
                     u3321 093C                       u2521 0BB6                       u2361 0AA0  
                     u2353 0A8E                       u4105 06D2                       u4041 0670  
                     u3241 0B5D                       u3161 0AE6                       u4201 0248  
                     u1810 17D8                       u4130 08A7                       u2610 0C6D  
                     u2530 0BD9                       u2354 0A8F                       u4050 0678  
                     u3250 0B64                       u3170 0AEB                       u4210 025F  
                     u1811 17D7                       u3315 091A                       u2611 0C6C  
                     u2531 0BD8                       u2371 0AB0                       u2355 0A94  
                     u4051 0677                       u3251 0B63                       u3235 0B53  
                     u3171 0AEA                       u4211 025E                       u4140 08B9  
                     u2700 0CD2                       u2540 0BDF                       u2380 0ADB  
                     u2372 0AB1                       u2356 0A95                       u4060 067E  
                     u1900 0DE5                       u1820 0D89                       u3260 0B68  
                     u3180 0B0B                       u4220 0288                       u4141 08B8  
                     u2701 0CD1                       u2605 0C62                       u2541 0BDE  
                     u2381 0ADA                       u2373 0AB6                       u4061 067D  
                     u1901 0DE4                       u1821 0D88                       u3261 0B67  
                     u3181 0B0A                       u4221 0287                       u2710 0CE6  
                     u2630 0C89                       u2550 0BE4                       u2374 0AB7  
                     u4070 0690                       u2390 0811                       u1910 0E3D  
                     u1830 0D8F                       u3270 0B7D                       u4230 02C4  
                     u4150 0042                       u3335 0945                       u2711 0CE5  
                     u2631 0C88                       u2551 0BE3                       u2375 0ABC  
                     u4071 068F                       u2391 0810                       u1911 0E3C  
                     u1831 0D8E                       u4231 02C3                       u4151 0041  
                     u2720 0CED                       u2640 0CA2                       u2560 0BFF  
                     u2376 0ABD                       u4080 069F                       u1920 0E48  
                     u1840 0D94                       u3280 0B8D                       u4240 02FC  
                     u4160 0087                       u2721 0CEC                       u2641 0CA1  
                     u2625 0C70                       u2561 0BFE                       u2385 0AD7  
                     u1921 0E46                       u1841 0D93                       u3281 0B8C  
                     u4241 02FB                       u4161 0086                       u2730 0CF3  
                     u2650 0CAA                       u2570 0C1D                       u4090 06BC  
                     u1930 0E49                       u1850 0DB2                       u3290 0B91  
                     u4250 03A1                       u4170 00E8                       u4307 096C  
                     u2731 0CF2                       u2651 0CA9                       u2635 0C85  
                     u2571 0C1C                       u4091 06BB                       u1915 0E39  
                     u1851 0DB1                       u3291 0B90                       u3275 0B78  
                     u3195 0B1E                       u4251 03A0                       u4235 02C0  
                     u4171 00E7                       u1780 17BF                       u2740 0D05  
                     u2580 0C57                       u3620 07D9                       u1940 0E5D  
                     u1860 0DBD                       u3700 0A12                       u4180 0149  
                     u4260 0734                       u1781 17BE                       u4317 097B  
                     u2741 0D04                       u2581 0C56                       u3621 07D8  
                     u4085 069A                       u1941 0E5C                       u1861 0DBC  
                     u3701 0A11                       u4245 02F8                       u4181 0148  
                     u4261 0733                       u1790 17CA                       u2750 0D14  
                     u2670 0CB9                       u1950 0E6C                       u1870 0DC3  
                     u3710 0A19                       u4190 01CC                       u4270 073A  
                     _AZUL 00A9                       u1791 17C9                       u4327 098A  
                     u2671 0CB8                       u4095 06B8                       u1951 0E6B  
                     u1871 0DC2                       u3711 0A18                       u4255 039D  
                     u4191 01CB                       u4271 0739                       u2760 0D31  
                     u3640 07ED                       u3800 03F0                       u1880 0DC8  
                     u4337 17B1                       u2761 0D30                       u2665 0CAE  
                     u3641 07EC                       u3801 03EF                       u1881 0DC7  
                     u2770 0D4E                       u2690 0CCD                       u3810 0407  
                     u1970 0E82                       u1890 0DE1                       u3730 0A2A  
                     u3650 09CC                       u2771 0D4D                       u2755 0D0F  
                     u2691 0CCC                       u2595 0C59                       u3635 07E0  
                     u3811 0406                       u1971 0E81                       u1891 0DE0  
                     u3731 0A29                       u3651 09CB                       u4195 01C8  
                     _PEIE 005E                       u2780 0D65                       u3820 040C  
                     u1980 0E86                       u3740 0A2F                       u3660 09E3  
                     u2781 0D64                       u2765 0D2D                       u2685 0CBC  
                     u3821 040B                       u1981 0E85                       u1965 0E6F  
                     u3741 0A2E                       u3725 0A1C                       u3750 03B9  
                     u1990 0E8B                       u3670 09F9                       u4287 085C  
                     u2775 0D4A                       u3911 055A                       u3831 045D  
                     u3751 03B8                       u1991 0E8A                       u3671 09F8  
                     u3912 0561                       u3832 0464                       u3760 03BF  
                     u3680 0A00                       u4297 086D                       u3921 0587  
                     u3913 0568                       u3905 0534                       u3841 0479  
                     u3833 046B                       u3761 03BE                       u3681 09FF  
                     u3665 09DE                       u3922 058E                       u3842 0480  
                     u3770 03C4                       u3931 05B4                       u3923 0595  
                     u3851 04A5                       u3843 0487                       u3771 03C3  
                     u3940 05DE                       u3932 05BB                       u3852 04AC  
                     u3780 03E5                       u3933 05C2                       u3861 04C1  
                     u3853 04B3                       u3781 03E4                       u3862 04C8  
                     u3790 03EB                       u3951 05EA                       u3863 04CF  
                     u3791 03EA                       u3695 0A02                       u3960 0606  
                     u3952 05F1                       u3953 05F8                       u3945 05D9  
                     u3881 04F7                       u3882 04FE                       u3971 0612  
                     u3891 0524                       u3883 0505                       u3875 04D1  
                     i1l92 17F9                       u3972 0619                       u3892 052B  
                     u3973 0620                       u3965 0601                       u3893 0532  
                     u3985 0622                       u3995 0639                       _POS1 007B  
                     _POS2 007A                       _POS3 00A7                       _ROJO 00AA  
        ?_Lcd_Write_String 0077         floattostr_@numero_ 00C9                       _main 0709  
                     btemp 007E                       start 000C         ??_Lcd_Write_String 0020  
          ___fldiv@new_exp 0052            __end_of_Lcd_Cmd 17BA                      ??_isr 0070  
      floattostr_@cont_for 00D7              ___fltol@sign1 0076            __end_of___fladd 1000  
                    ?_main 0070            __end_of___fldiv 0D78            __end_of___flneg 0814  
          __end_of___flmul 0709            __end_of___flsub 090A            __end_of___fltol 0A3B  
                    _ANSEL 0188                      _T1CON 0010                      _TMR1H 000F  
                    _VERDE 00A8                      _TMR1L 000E                      _PORTA 0005  
                    _PORTB 0006                      _PORTC 0007                      _PORTD 0008  
                    _PORTE 0009    __size_of_Lcd_Set_Cursor 0058                      _TRISA 0085  
                    _TRISB 0086                      _TRISC 0087                      _TRISD 0088  
                    _SSPIE 0463                      _TRISE 0089                      _SSPIF 0063  
                    _frecu 00BF                      _setup 0814                      _texto 00AB  
                    pclath 000A                      status 0003                      wtemp0 007E  
         __end_of_Lcd_Init 09BF           __end_of_Lcd_Port 17DC            __initialization 000F  
             __end_of_main 07C9                     ??_main 00DB         __size_of_Lcd_Clear 000D  
                   _CCPR2H 001C                     _CCPR2L 001B                     ?_setup 0070  
                   _ANSELH 0189                     _COLORH 00A6                     _COLORL 00A5  
                   i1l2611 17E3                     i1l2621 17F6                     i1l2613 17E5  
                   i1l2623 17F7                     i1l2615 17F0                     i1l2617 17F2  
                   i1l2625 17F8                     i1l2609 17DC                     i1l2619 17F5  
                   u348_20 17E3                     u348_21 17E2                  ??_Lcd_Cmd 0073  
                   _TMR1ON 0080    __size_of_Lcd_Write_Char 0039                     _SSPADD 0093  
                   _TRISC3 043B                     _TRISC4 043C                     _SSPCON 0014  
                   _SSPBUF 0013           __end_of___xxtofl 0B9B                     ___flge 0A3B  
                ??___fladd 0062                  ??___fldiv 0048                  ??___flneg 0076  
     floattostr_@tempo_int 00CF                  ??___flmul 002E                  ??___flsub 007A  
                ??___fltol 0020         __size_of__Umul8_16 0029                     saved_w 007E  
          Lcd_Set_Cursor@a 0020            Lcd_Set_Cursor@b 0076            Lcd_Set_Cursor@y 0022  
          Lcd_Set_Cursor@z 0021                 ___flge@ff1 0072                 ___flge@ff2 0076  
             ___xxtofl@arg 0022               ___xxtofl@exp 0021               ___xxtofl@val 0072  
    floattostr_@decimales_ 00CE       __size_of_floattostr_ 038A    __end_of__initialization 001A  
               ___flneg@f1 0072          __end_of_Lcd_Clear 07FF                 ___fltol@f1 0072  
           __pcstackCOMMON 0070              __end_of_setup 083B             _Lcd_Set_Cursor 090A  
                ?_Lcd_Init 0070                  ?_Lcd_Port 0070                    ??_setup 0072  
               __pbssBANK1 00A0    floattostr_@largo_entera 00D9          __end_of__Umul8_16 07F2  
               __pmaintext 0709                    ?___flge 0072                 __pintentry 0004  
                  _CCP2CON 001D  __size_of_Lcd_Write_String 0046     __end_of_Lcd_Set_Cursor 0962  
                ?___xxtofl 0072                 ??_Lcd_Init 0076                 ??_Lcd_Port 0072  
                  _SSPCON2 0091                    _SSPSTAT 0094                 __stringtab 1000  
           _Lcd_Write_Char 083B                    _Lcd_Cmd 17A0                 _frecuencia 00A0  
          __size_of___flge 00A4                    ___fladd 0D78                    ___fldiv 0B9B  
                  ___flneg 0809                    ___flmul 03A8                    ___flsub 08BA  
                  ___fltol 09BF            ?_Lcd_Set_Cursor 0076                    __ptext1 0814  
                  __ptext2 001E                    __ptext3 0ADF                    __ptext4 09BF  
                  __ptext5 08BA                    __ptext6 0D78                    __ptext7 0809  
                  __ptext8 03A8                    __ptext9 07C9               __size_of_isr 0024  
               ??___xxtofl 0076                    clrloop0 0802     __end_of_Lcd_Write_Char 0874  
     end_of_initialization 001A                  Lcd_Port@a 0072                  _PORTBbits 0006  
                _PORTCbits 0007                  _PORTEbits 0009                ___fladd@grs 006D  
            ___xxtofl@sign 0020                  _TRISCbits 0087                ___fldiv@grs 0054  
              ___fldiv@rem 004D            ?_Lcd_Write_Char 0070          Lcd_Write_String@a 0077  
        Lcd_Write_String@i 0023                ___flmul@grs 0035                  _Lcd_Clear 07F2  
           __end_of___flge 0ADF           _Lcd_Write_String 0874        start_initialization 000F  
              __end_of_isr 1800              ??_floattostr_ 006E          __size_of_Lcd_Init 005D  
        __size_of_Lcd_Port 0022                 ?_Lcd_Clear 0070                   ??___flge 0020  
                __Umul8_16 07C9            Lcd_Write_Char@a 0076            Lcd_Write_Char@y 0075  
                ___fladd@a 005E                  ___fladd@b 005A                  ___fldiv@a 0040  
                ___fldiv@b 0044                  ___flmul@a 002A                  ___flmul@b 0026  
              __pbssCOMMON 007A                  ___flsub@a 00C1                  ___flsub@b 00C5  
                ___latbits 0002              __pcstackBANK0 0020              __pcstackBANK1 00C1  
        __size_of___xxtofl 00BC                   ?_Lcd_Cmd 0070        __end_of_floattostr_ 03A8  
         ??_Lcd_Set_Cursor 0077                   ?___fladd 005A                   ?___fldiv 0040  
                 ?___flneg 0072                  _flag_frec 00A4                   ?___flmul 0026  
                 ?___flsub 00C1                   ?___fltol 0072                 ?__Umul8_16 0072  
                __pstrings 1000             __size_of_setup 0027          interrupt_function 0004  
                clear_ram0 0801                   _PIE2bits 008D                   Lcd_Cmd@a 0075  
                 _PIR2bits 000D                ??_Lcd_Clear 0076                __stringbase 100F  
         ??_Lcd_Write_Char 0073                   _Lcd_Init 0962                   _Lcd_Port 17BA  
              _floattostr_ 001E   __end_of_Lcd_Write_String 08BA           __size_of_Lcd_Cmd 001A  
              ??__Umul8_16 0074           __size_of___fladd 0288           __size_of___fldiv 01DD  
         __size_of___flneg 000B           __size_of___flmul 0361           __size_of___flsub 0050  
         __size_of___fltol 007C         __end_of__stringtab 1010     floattostr_@tempo_float 00D1  
                 ___xxtofl 0ADF                   __ptext10 0A3B                   __ptext11 0B9B  
                 __ptext12 0874                   __ptext13 083B                   __ptext14 090A  
                 __ptext15 0962                   __ptext16 07F2                   __ptext17 17A0  
                 __ptext18 17BA                   __ptext19 17DC              __size_of_main 00C0  
               _INTCONbits 000B         Lcd_Write_Char@temp 0074                   intlevel1 0000  
                stringcode 100A                 _OSCCONbits 008F         Lcd_Set_Cursor@temp 0023  
   __Umul8_16@multiplicand 0072                   stringdir 100A                   stringtab 1000  
              _SSPCON2bits 0091              ___fladd@signs 006A               ___fladd@aexp 006B  
             ___fladd@bexp 006C       __Umul8_16@multiplier 0024          __Umul8_16@product 0020  
