

Microchip MPLAB XC8 Assembler V2.31 build 20201012212115 
                                                                                               Sun Sep 05 19:09:59 2021

Microchip MPLAB XC8 C Compiler v2.31 (Free license) build 20201012212115 Og1 
     1                           	processor	16F887
     2                           	pagewidth 120
     3                           	opt	flic
     4                           	psect	strings,global,class=STRING,delta=2,noexec
     5                           	psect	cinit,global,class=CODE,merge=1,delta=2
     6                           	psect	bssCOMMON,global,class=COMMON,space=1,delta=1,noexec
     7                           	psect	bssBANK0,global,class=BANK0,space=1,delta=1,noexec
     8                           	psect	bssBANK1,global,class=BANK1,space=1,delta=1,noexec
     9                           	psect	clrtext,global,class=CODE,delta=2
    10                           	psect	cstackBANK1,global,class=BANK1,space=1,delta=1,noexec
    11                           	psect	cstackCOMMON,global,class=COMMON,space=1,delta=1,noexec
    12                           	psect	cstackBANK0,global,class=BANK0,space=1,delta=1,noexec
    13                           	psect	maintext,global,class=CODE,split=1,delta=2
    14                           	psect	text1,local,class=CODE,merge=1,delta=2
    15                           	psect	text2,local,class=CODE,merge=1,delta=2
    16                           	psect	text3,local,class=CODE,merge=1,delta=2
    17                           	psect	text4,local,class=CODE,merge=1,delta=2,group=1
    18                           	psect	text5,local,class=CODE,merge=1,delta=2,group=1
    19                           	psect	text6,local,class=CODE,merge=1,delta=2,group=1
    20                           	psect	text7,local,class=CODE,merge=1,delta=2,group=1
    21                           	psect	text8,local,class=CODE,merge=1,delta=2,group=1
    22                           	psect	text9,local,class=CODE,merge=1,delta=2,group=1
    23                           	psect	text10,local,class=CODE,merge=1,delta=2,group=1
    24                           	psect	text11,local,class=CODE,merge=1,delta=2,group=1
    25                           	psect	text12,local,class=CODE,merge=1,delta=2,group=1
    26                           	psect	text13,local,class=CODE,merge=1,delta=2
    27                           	psect	text14,local,class=CODE,merge=1,delta=2
    28                           	psect	text15,local,class=CODE,merge=1,delta=2
    29                           	psect	text16,local,class=CODE,merge=1,delta=2
    30                           	psect	text17,local,class=CODE,merge=1,delta=2
    31                           	psect	text18,local,class=CODE,merge=1,delta=2
    32                           	psect	text19,local,class=CODE,merge=1,delta=2
    33                           	psect	text20,local,class=CODE,merge=1,delta=2
    34                           	psect	intentry,global,class=CODE,delta=2
    35                           	psect	config,global,abs,ovrld,class=CONFIG,space=4,delta=2,noexec
    36                           	dabs	1,0x7E,2
    37  0000                     
    38                           ; Version 2.20
    39                           ; Generated 12/02/2020 GMT
    40                           ; 
    41                           ; Copyright © 2020, Microchip Technology Inc. and its subsidiaries ("Microchip")
    42                           ; All rights reserved.
    43                           ; 
    44                           ; This software is developed by Microchip Technology Inc. and its subsidiaries ("Microch
      +                          ip").
    45                           ; 
    46                           ; Redistribution and use in source and binary forms, with or without modification, are
    47                           ; permitted provided that the following conditions are met:
    48                           ; 
    49                           ;     1. Redistributions of source code must retain the above copyright notice, this lis
      +                          t of
    50                           ;        conditions and the following disclaimer.
    51                           ; 
    52                           ;     2. Redistributions in binary form must reproduce the above copyright notice, this 
      +                          list
    53                           ;        of conditions and the following disclaimer in the documentation and/or other
    54                           ;        materials provided with the distribution.
    55                           ; 
    56                           ;     3. Microchip's name may not be used to endorse or promote products derived from th
      +                          is
    57                           ;        software without specific prior written permission.
    58                           ; 
    59                           ; THIS SOFTWARE IS PROVIDED BY MICROCHIP "AS IS" AND ANY EXPRESS OR IMPLIED WARRANTIES,
    60                           ; INCLUDING, BUT NOT LIMITED TO, THE IMPLIED WARRANTIES OF MERCHANTABILITY AND FITNESS F
      +                          OR
    61                           ; PURPOSE ARE DISCLAIMED.  IN NO EVENT SHALL MICROCHIP BE LIABLE FOR ANY DIRECT, INDIREC
      +                          T,
    62                           ; INCIDENTAL, SPECIAL, EXEMPLARY, OR CONSEQUENTIAL DAMAGES (INCLUDING BUT NOT LIMITED TO
    63                           ; PROCUREMENT OF SUBSTITUTE GOODS OR SERVICES; LOSS OF USE, DATA OR PROFITS; OR BUSINESS
    64                           ; INTERRUPTION) HOWSOEVER CAUSED AND ON ANY THEORY OF LIABILITY, WHETHER IN CONTRACT, ST
      +                          RICT
    65                           ; LIABILITY, OR TORT (INCLUDING NEGLIGENCE OR OTHERWISE) ARISING IN ANY WAY OUT OF THE U
      +                          SE OF
    66                           ; THIS SOFTWARE, EVEN IF ADVISED OF THE POSSIBILITY OF SUCH DAMAGE.
    67                           ; 
    68                           ; 
    69                           ; Code-generator required, PIC16F887 Definitions
    70                           ; 
    71                           ; SFR Addresses
    72  0000                     	;# 
    73  0001                     	;# 
    74  0002                     	;# 
    75  0003                     	;# 
    76  0004                     	;# 
    77  0005                     	;# 
    78  0006                     	;# 
    79  0007                     	;# 
    80  0008                     	;# 
    81  0009                     	;# 
    82  000A                     	;# 
    83  000B                     	;# 
    84  000C                     	;# 
    85  000D                     	;# 
    86  000E                     	;# 
    87  000E                     	;# 
    88  000F                     	;# 
    89  0010                     	;# 
    90  0011                     	;# 
    91  0012                     	;# 
    92  0013                     	;# 
    93  0014                     	;# 
    94  0015                     	;# 
    95  0015                     	;# 
    96  0016                     	;# 
    97  0017                     	;# 
    98  0018                     	;# 
    99  0019                     	;# 
   100  001A                     	;# 
   101  001B                     	;# 
   102  001B                     	;# 
   103  001C                     	;# 
   104  001D                     	;# 
   105  001E                     	;# 
   106  001F                     	;# 
   107  0081                     	;# 
   108  0085                     	;# 
   109  0086                     	;# 
   110  0087                     	;# 
   111  0088                     	;# 
   112  0089                     	;# 
   113  008C                     	;# 
   114  008D                     	;# 
   115  008E                     	;# 
   116  008F                     	;# 
   117  0090                     	;# 
   118  0091                     	;# 
   119  0092                     	;# 
   120  0093                     	;# 
   121  0093                     	;# 
   122  0093                     	;# 
   123  0094                     	;# 
   124  0095                     	;# 
   125  0096                     	;# 
   126  0097                     	;# 
   127  0098                     	;# 
   128  0099                     	;# 
   129  009A                     	;# 
   130  009B                     	;# 
   131  009C                     	;# 
   132  009D                     	;# 
   133  009E                     	;# 
   134  009F                     	;# 
   135  0105                     	;# 
   136  0107                     	;# 
   137  0108                     	;# 
   138  0109                     	;# 
   139  010C                     	;# 
   140  010C                     	;# 
   141  010D                     	;# 
   142  010E                     	;# 
   143  010F                     	;# 
   144  0185                     	;# 
   145  0187                     	;# 
   146  0188                     	;# 
   147  0189                     	;# 
   148  018C                     	;# 
   149  018D                     	;# 
   150  0000                     	;# 
   151  0001                     	;# 
   152  0002                     	;# 
   153  0003                     	;# 
   154  0004                     	;# 
   155  0005                     	;# 
   156  0006                     	;# 
   157  0007                     	;# 
   158  0008                     	;# 
   159  0009                     	;# 
   160  000A                     	;# 
   161  000B                     	;# 
   162  000C                     	;# 
   163  000D                     	;# 
   164  000E                     	;# 
   165  000E                     	;# 
   166  000F                     	;# 
   167  0010                     	;# 
   168  0011                     	;# 
   169  0012                     	;# 
   170  0013                     	;# 
   171  0014                     	;# 
   172  0015                     	;# 
   173  0015                     	;# 
   174  0016                     	;# 
   175  0017                     	;# 
   176  0018                     	;# 
   177  0019                     	;# 
   178  001A                     	;# 
   179  001B                     	;# 
   180  001B                     	;# 
   181  001C                     	;# 
   182  001D                     	;# 
   183  001E                     	;# 
   184  001F                     	;# 
   185  0081                     	;# 
   186  0085                     	;# 
   187  0086                     	;# 
   188  0087                     	;# 
   189  0088                     	;# 
   190  0089                     	;# 
   191  008C                     	;# 
   192  008D                     	;# 
   193  008E                     	;# 
   194  008F                     	;# 
   195  0090                     	;# 
   196  0091                     	;# 
   197  0092                     	;# 
   198  0093                     	;# 
   199  0093                     	;# 
   200  0093                     	;# 
   201  0094                     	;# 
   202  0095                     	;# 
   203  0096                     	;# 
   204  0097                     	;# 
   205  0098                     	;# 
   206  0099                     	;# 
   207  009A                     	;# 
   208  009B                     	;# 
   209  009C                     	;# 
   210  009D                     	;# 
   211  009E                     	;# 
   212  009F                     	;# 
   213  0105                     	;# 
   214  0107                     	;# 
   215  0108                     	;# 
   216  0109                     	;# 
   217  010C                     	;# 
   218  010C                     	;# 
   219  010D                     	;# 
   220  010E                     	;# 
   221  010F                     	;# 
   222  0185                     	;# 
   223  0187                     	;# 
   224  0188                     	;# 
   225  0189                     	;# 
   226  018C                     	;# 
   227  018D                     	;# 
   228  0000                     	;# 
   229  0001                     	;# 
   230  0002                     	;# 
   231  0003                     	;# 
   232  0004                     	;# 
   233  0005                     	;# 
   234  0006                     	;# 
   235  0007                     	;# 
   236  0008                     	;# 
   237  0009                     	;# 
   238  000A                     	;# 
   239  000B                     	;# 
   240  000C                     	;# 
   241  000D                     	;# 
   242  000E                     	;# 
   243  000E                     	;# 
   244  000F                     	;# 
   245  0010                     	;# 
   246  0011                     	;# 
   247  0012                     	;# 
   248  0013                     	;# 
   249  0014                     	;# 
   250  0015                     	;# 
   251  0015                     	;# 
   252  0016                     	;# 
   253  0017                     	;# 
   254  0018                     	;# 
   255  0019                     	;# 
   256  001A                     	;# 
   257  001B                     	;# 
   258  001B                     	;# 
   259  001C                     	;# 
   260  001D                     	;# 
   261  001E                     	;# 
   262  001F                     	;# 
   263  0081                     	;# 
   264  0085                     	;# 
   265  0086                     	;# 
   266  0087                     	;# 
   267  0088                     	;# 
   268  0089                     	;# 
   269  008C                     	;# 
   270  008D                     	;# 
   271  008E                     	;# 
   272  008F                     	;# 
   273  0090                     	;# 
   274  0091                     	;# 
   275  0092                     	;# 
   276  0093                     	;# 
   277  0093                     	;# 
   278  0093                     	;# 
   279  0094                     	;# 
   280  0095                     	;# 
   281  0096                     	;# 
   282  0097                     	;# 
   283  0098                     	;# 
   284  0099                     	;# 
   285  009A                     	;# 
   286  009B                     	;# 
   287  009C                     	;# 
   288  009D                     	;# 
   289  009E                     	;# 
   290  009F                     	;# 
   291  0105                     	;# 
   292  0107                     	;# 
   293  0108                     	;# 
   294  0109                     	;# 
   295  010C                     	;# 
   296  010C                     	;# 
   297  010D                     	;# 
   298  010E                     	;# 
   299  010F                     	;# 
   300  0185                     	;# 
   301  0187                     	;# 
   302  0188                     	;# 
   303  0189                     	;# 
   304  018C                     	;# 
   305  018D                     	;# 
   306  0000                     	;# 
   307  0001                     	;# 
   308  0002                     	;# 
   309  0003                     	;# 
   310  0004                     	;# 
   311  0005                     	;# 
   312  0006                     	;# 
   313  0007                     	;# 
   314  0008                     	;# 
   315  0009                     	;# 
   316  000A                     	;# 
   317  000B                     	;# 
   318  000C                     	;# 
   319  000D                     	;# 
   320  000E                     	;# 
   321  000E                     	;# 
   322  000F                     	;# 
   323  0010                     	;# 
   324  0011                     	;# 
   325  0012                     	;# 
   326  0013                     	;# 
   327  0014                     	;# 
   328  0015                     	;# 
   329  0015                     	;# 
   330  0016                     	;# 
   331  0017                     	;# 
   332  0018                     	;# 
   333  0019                     	;# 
   334  001A                     	;# 
   335  001B                     	;# 
   336  001B                     	;# 
   337  001C                     	;# 
   338  001D                     	;# 
   339  001E                     	;# 
   340  001F                     	;# 
   341  0081                     	;# 
   342  0085                     	;# 
   343  0086                     	;# 
   344  0087                     	;# 
   345  0088                     	;# 
   346  0089                     	;# 
   347  008C                     	;# 
   348  008D                     	;# 
   349  008E                     	;# 
   350  008F                     	;# 
   351  0090                     	;# 
   352  0091                     	;# 
   353  0092                     	;# 
   354  0093                     	;# 
   355  0093                     	;# 
   356  0093                     	;# 
   357  0094                     	;# 
   358  0095                     	;# 
   359  0096                     	;# 
   360  0097                     	;# 
   361  0098                     	;# 
   362  0099                     	;# 
   363  009A                     	;# 
   364  009B                     	;# 
   365  009C                     	;# 
   366  009D                     	;# 
   367  009E                     	;# 
   368  009F                     	;# 
   369  0105                     	;# 
   370  0107                     	;# 
   371  0108                     	;# 
   372  0109                     	;# 
   373  010C                     	;# 
   374  010C                     	;# 
   375  010D                     	;# 
   376  010E                     	;# 
   377  010F                     	;# 
   378  0185                     	;# 
   379  0187                     	;# 
   380  0188                     	;# 
   381  0189                     	;# 
   382  018C                     	;# 
   383  018D                     	;# 
   384  0006                     _PORTBbits	set	6
   385  0014                     _SSPCON	set	20
   386  0012                     _T2CON	set	18
   387  0017                     _CCP1CON	set	23
   388  001D                     _CCP2CON	set	29
   389  0010                     _T1CON	set	16
   390  0009                     _PORTEbits	set	9
   391  0009                     _PORTE	set	9
   392  0008                     _PORTD	set	8
   393  0007                     _PORTC	set	7
   394  0006                     _PORTB	set	6
   395  0005                     _PORTA	set	5
   396  0015                     _CCPR1L	set	21
   397  0007                     _PORTCbits	set	7
   398  0013                     _SSPBUF	set	19
   399  0014                     _SSPCONbits	set	20
   400  000C                     _PIR1bits	set	12
   401  000F                     _TMR1H	set	15
   402  000E                     _TMR1L	set	14
   403  001B                     _CCPR2L	set	27
   404  001C                     _CCPR2H	set	28
   405  000D                     _PIR2bits	set	13
   406  000B                     _INTCONbits	set	11
   407  0035                     _RB5	set	53
   408  0033                     _RB3	set	51
   409  0032                     _RB2	set	50
   410  0031                     _RB1	set	49
   411  0030                     _RB0	set	48
   412  0063                     _SSPIF	set	99
   413  005E                     _PEIE	set	94
   414  005F                     _GIE	set	95
   415  0080                     _TMR1ON	set	128
   416  0091                     _SSPCON2bits	set	145
   417  0087                     _TRISCbits	set	135
   418  0094                     _SSPSTAT	set	148
   419  0093                     _SSPADD	set	147
   420  0091                     _SSPCON2	set	145
   421  0092                     _PR2	set	146
   422  008D                     _PIE2bits	set	141
   423  008F                     _OSCCONbits	set	143
   424  0087                     _TRISC	set	135
   425  0086                     _TRISB	set	134
   426  0089                     _TRISE	set	137
   427  0088                     _TRISD	set	136
   428  0085                     _TRISA	set	133
   429  0094                     _SSPSTATbits	set	148
   430  0463                     _SSPIE	set	1123
   431  043C                     _TRISC4	set	1084
   432  043B                     _TRISC3	set	1083
   433  04A0                     _BF	set	1184
   434  0189                     _ANSELH	set	393
   435  0188                     _ANSEL	set	392
   436                           
   437                           	psect	strings
   438  1000                     __pstrings:
   439  1000                     stringtab:
   440  1000                     __stringtab:
   441                           
   442                           ;	String table - string pointers are 1 byte each
   443  1000  1BFF               	btfsc	btemp+1,7
   444  1001  280A               	ljmp	stringcode
   445  1002  1383               	bcf	3,7
   446  1003  187F               	btfsc	btemp+1,0
   447  1004  1783               	bsf	3,7
   448  1005  0800               	movf	0,w
   449  1006  0A84               	incf	4,f
   450  1007  1903               	skipnz
   451  1008  0AFF               	incf	btemp+1,f
   452  1009  0008               	return
   453  100A                     stringcode:
   454  100A                     stringdir:
   455  100A  3010               	movlw	high stringdir
   456  100B  008A               	movwf	10
   457  100C  0804               	movf	4,w
   458  100D  0A84               	incf	4,f
   459  100E  0782               	addwf	2,f
   460  100F                     __stringbase:
   461  100F  3400               	retlw	0
   462  1010                     __end_of__stringtab:
   463  1010                     STR_1:
   464  1010  3446               	retlw	70	;'F'
   465  1011  3452               	retlw	82	;'R'
   466  1012  3445               	retlw	69	;'E'
   467  1013  3443               	retlw	67	;'C'
   468  1014  3455               	retlw	85	;'U'
   469  1015  3445               	retlw	69	;'E'
   470  1016  344E               	retlw	78	;'N'
   471  1017  3443               	retlw	67	;'C'
   472  1018  3449               	retlw	73	;'I'
   473  1019  3441               	retlw	65	;'A'
   474  101A  3400               	retlw	0
   475                           
   476                           	psect	cinit
   477  000F                     start_initialization:	
   478                           ; #config settings
   479                           
   480  000F                     __initialization:
   481                           
   482                           ; Clear objects allocated to COMMON
   483  000F  01F8               	clrf	__pbssCOMMON& (0+127)
   484  0010  01F9               	clrf	(__pbssCOMMON+1)& (0+127)
   485  0011  01FA               	clrf	(__pbssCOMMON+2)& (0+127)
   486                           
   487                           ; Clear objects allocated to BANK0
   488  0012  1283               	bcf	3,5	;RP0=0, select bank0
   489  0013  1303               	bcf	3,6	;RP1=0, select bank0
   490  0014  01EE               	clrf	__pbssBANK0& (0+127)
   491                           
   492                           ; Clear objects allocated to BANK1
   493  0015  1383               	bcf	3,7	;select IRP bank0
   494  0016  30C1               	movlw	low __pbssBANK1
   495  0017  0084               	movwf	4
   496  0018  30E1               	movlw	low (__pbssBANK1+32)
   497  0019  120A  118A  27F6  120A  118A  	fcall	clear_ram0
   498  001E                     end_of_initialization:	
   499                           ;End of C runtime variable initialization code
   500                           
   501  001E                     __end_of__initialization:
   502  001E  0183               	clrf	3
   503  001F  120A  158A  2ADD   	ljmp	_main	;jump to C main() function
   504                           
   505                           	psect	bssCOMMON
   506  0078                     __pbssCOMMON:
   507  0078                     _POS3:
   508  0078                     	ds	1
   509  0079                     _POS2:
   510  0079                     	ds	1
   511  007A                     _POS1:
   512  007A                     	ds	1
   513                           
   514                           	psect	bssBANK0
   515  006E                     __pbssBANK0:
   516  006E                     _ROJO:
   517  006E                     	ds	1
   518                           
   519                           	psect	bssBANK1
   520  00C1                     __pbssBANK1:
   521  00C1                     _frecuencia:
   522  00C1                     	ds	4
   523  00C5                     _z:
   524  00C5                     	ds	1
   525  00C6                     _flag_frec:
   526  00C6                     	ds	1
   527  00C7                     _COLORL:
   528  00C7                     	ds	1
   529  00C8                     _COLOR:
   530  00C8                     	ds	1
   531  00C9                     _VERDE:
   532  00C9                     	ds	1
   533  00CA                     _AZUL:
   534  00CA                     	ds	1
   535  00CB                     _texto:
   536  00CB                     	ds	20
   537  00DF                     _frecu:
   538  00DF                     	ds	2
   539                           
   540                           	psect	clrtext
   541  07F6                     clear_ram0:	
   542                           ;	Called with FSR containing the base address, and
   543                           ;	W with the last address+1
   544                           
   545  07F6  0064               	clrwdt	;clear the watchdog before getting into this loop
   546  07F7                     clrloop0:
   547  07F7  0180               	clrf	0	;clear RAM location pointed to by FSR
   548  07F8  0A84               	incf	4,f	;increment pointer
   549  07F9  0604               	xorwf	4,w	;XOR with final address
   550  07FA  1903               	btfsc	3,2	;have we reached the end yet?
   551  07FB  3400               	retlw	0	;all done for this memory range, return
   552  07FC  0604               	xorwf	4,w	;XOR again to restore value
   553  07FD  2FF7               	goto	clrloop0	;do the next byte
   554                           
   555                           	psect	cstackBANK1
   556  00A0                     __pcstackBANK1:
   557  00A0                     ___fladd@signs:
   558                           
   559                           ; 1 bytes @ 0x0
   560  00A0                     	ds	1
   561  00A1                     ___fladd@aexp:
   562                           
   563                           ; 1 bytes @ 0x1
   564  00A1                     	ds	1
   565  00A2                     ___fladd@bexp:
   566                           
   567                           ; 1 bytes @ 0x2
   568  00A2                     	ds	1
   569  00A3                     ___fladd@grs:
   570                           
   571                           ; 1 bytes @ 0x3
   572  00A3                     	ds	1
   573  00A4                     ?___flsub:
   574  00A4                     ___flsub@a:	
   575                           ; 4 bytes @ 0x4
   576                           
   577                           
   578                           ; 4 bytes @ 0x4
   579  00A4                     	ds	4
   580  00A8                     ___flsub@b:
   581                           
   582                           ; 4 bytes @ 0x8
   583  00A8                     	ds	4
   584  00AC                     ?_floattostr_:
   585  00AC                     floattostr_@numero_:	
   586                           ; 1 bytes @ 0xC
   587                           
   588                           
   589                           ; 4 bytes @ 0xC
   590  00AC                     	ds	4
   591  00B0                     floattostr_@cadena_:
   592                           
   593                           ; 1 bytes @ 0x10
   594  00B0                     	ds	1
   595  00B1                     floattostr_@decimales_:
   596                           
   597                           ; 1 bytes @ 0x11
   598  00B1                     	ds	1
   599  00B2                     floattostr_@tempo_int:
   600                           
   601                           ; 2 bytes @ 0x12
   602  00B2                     	ds	2
   603  00B4                     floattostr_@tempo_float:
   604                           
   605                           ; 4 bytes @ 0x14
   606  00B4                     	ds	4
   607  00B8                     floattostr_@largo_n:
   608                           
   609                           ; 2 bytes @ 0x18
   610  00B8                     	ds	2
   611  00BA                     floattostr_@cont_for:
   612                           
   613                           ; 2 bytes @ 0x1A
   614  00BA                     	ds	2
   615  00BC                     floattostr_@largo_entera:
   616                           
   617                           ; 2 bytes @ 0x1C
   618  00BC                     	ds	2
   619  00BE                     ??_main:
   620                           
   621                           ; 1 bytes @ 0x1E
   622  00BE                     	ds	3
   623                           
   624                           	psect	cstackCOMMON
   625  0070                     __pcstackCOMMON:
   626  0070                     ?_setup:
   627  0070                     ?_Lcd_Init:	
   628                           ; 1 bytes @ 0x0
   629                           
   630  0070                     ?_Lcd_Clear:	
   631                           ; 1 bytes @ 0x0
   632                           
   633  0070                     ?_I2C_Slave_Init:	
   634                           ; 1 bytes @ 0x0
   635                           
   636  0070                     ?_isr:	
   637                           ; 1 bytes @ 0x0
   638                           
   639  0070                     ??_isr:	
   640                           ; 1 bytes @ 0x0
   641                           
   642  0070                     ?_main:	
   643                           ; 1 bytes @ 0x0
   644                           
   645  0070                     ?_Lcd_Port:	
   646                           ; 1 bytes @ 0x0
   647                           
   648  0070                     ?_Lcd_Cmd:	
   649                           ; 1 bytes @ 0x0
   650                           
   651  0070                     ?_Lcd_Write_Char:	
   652                           ; 1 bytes @ 0x0
   653                           
   654                           
   655                           ; 1 bytes @ 0x0
   656  0070                     	ds	3
   657  0073                     ??_I2C_Slave_Init:
   658  0073                     ??_Lcd_Port:	
   659                           ; 1 bytes @ 0x3
   660                           
   661  0073                     ??___flge:	
   662                           ; 1 bytes @ 0x3
   663                           
   664  0073                     ?__Umul8_16:	
   665                           ; 1 bytes @ 0x3
   666                           
   667  0073                     ?___flneg:	
   668                           ; 2 bytes @ 0x3
   669                           
   670  0073                     ?___fltol:	
   671                           ; 4 bytes @ 0x3
   672                           
   673  0073                     ?___xxtofl:	
   674                           ; 4 bytes @ 0x3
   675                           
   676  0073                     I2C_Slave_Init@address:	
   677                           ; 4 bytes @ 0x3
   678                           
   679  0073                     Lcd_Port@a:	
   680                           ; 1 bytes @ 0x3
   681                           
   682  0073                     __Umul8_16@multiplicand:	
   683                           ; 1 bytes @ 0x3
   684                           
   685  0073                     ___flneg@f1:	
   686                           ; 1 bytes @ 0x3
   687                           
   688  0073                     ___fltol@f1:	
   689                           ; 4 bytes @ 0x3
   690                           
   691  0073                     ___xxtofl@val:	
   692                           ; 4 bytes @ 0x3
   693                           
   694                           
   695                           ; 4 bytes @ 0x3
   696  0073                     	ds	1
   697  0074                     ??_setup:
   698  0074                     ??_Lcd_Cmd:	
   699                           ; 1 bytes @ 0x4
   700                           
   701  0074                     ??_Lcd_Write_Char:	
   702                           ; 1 bytes @ 0x4
   703                           
   704                           
   705                           ; 1 bytes @ 0x4
   706  0074                     	ds	1
   707  0075                     ??__Umul8_16:
   708  0075                     Lcd_Write_Char@temp:	
   709                           ; 1 bytes @ 0x5
   710                           
   711                           
   712                           ; 1 bytes @ 0x5
   713  0075                     	ds	1
   714  0076                     Lcd_Cmd@a:
   715  0076                     Lcd_Write_Char@y:	
   716                           ; 1 bytes @ 0x6
   717                           
   718                           
   719                           ; 1 bytes @ 0x6
   720  0076                     	ds	1
   721  0077                     ??_Lcd_Clear:
   722  0077                     ?_Lcd_Set_Cursor:	
   723                           ; 1 bytes @ 0x7
   724                           
   725  0077                     ??_floattostr_:	
   726                           ; 1 bytes @ 0x7
   727                           
   728  0077                     ??___flneg:	
   729                           ; 1 bytes @ 0x7
   730                           
   731  0077                     ??___flsub:	
   732                           ; 1 bytes @ 0x7
   733                           
   734  0077                     Lcd_Set_Cursor@b:	
   735                           ; 1 bytes @ 0x7
   736                           
   737  0077                     Lcd_Write_Char@a:	
   738                           ; 1 bytes @ 0x7
   739                           
   740                           
   741                           ; 1 bytes @ 0x7
   742  0077                     	ds	1
   743                           
   744                           	psect	cstackBANK0
   745  0020                     __pcstackBANK0:
   746  0020                     ?___flge:
   747  0020                     ??_Lcd_Init:	
   748                           ; 1 bit 
   749                           
   750  0020                     ??_Lcd_Set_Cursor:	
   751                           ; 1 bytes @ 0x0
   752                           
   753  0020                     ?_Lcd_Write_String:	
   754                           ; 1 bytes @ 0x0
   755                           
   756  0020                     ??___fltol:	
   757                           ; 1 bytes @ 0x0
   758                           
   759  0020                     ??___xxtofl:	
   760                           ; 1 bytes @ 0x0
   761                           
   762  0020                     Lcd_Write_String@a:	
   763                           ; 1 bytes @ 0x0
   764                           
   765  0020                     __Umul8_16@product:	
   766                           ; 2 bytes @ 0x0
   767                           
   768  0020                     ___flge@ff1:	
   769                           ; 2 bytes @ 0x0
   770                           
   771                           
   772                           ; 4 bytes @ 0x0
   773  0020                     	ds	2
   774  0022                     ??_Lcd_Write_String:
   775  0022                     Lcd_Set_Cursor@a:	
   776                           ; 1 bytes @ 0x2
   777                           
   778  0022                     __Umul8_16@word_mpld:	
   779                           ; 1 bytes @ 0x2
   780                           
   781                           
   782                           ; 2 bytes @ 0x2
   783  0022                     	ds	1
   784  0023                     Lcd_Set_Cursor@z:
   785                           
   786                           ; 1 bytes @ 0x3
   787  0023                     	ds	1
   788  0024                     Lcd_Set_Cursor@y:
   789  0024                     __Umul8_16@multiplier:	
   790                           ; 1 bytes @ 0x4
   791                           
   792  0024                     ___xxtofl@sign:	
   793                           ; 1 bytes @ 0x4
   794                           
   795  0024                     ___flge@ff2:	
   796                           ; 1 bytes @ 0x4
   797                           
   798                           
   799                           ; 4 bytes @ 0x4
   800  0024                     	ds	1
   801  0025                     Lcd_Set_Cursor@temp:
   802  0025                     ___fltol@sign1:	
   803                           ; 1 bytes @ 0x5
   804                           
   805  0025                     ___xxtofl@exp:	
   806                           ; 1 bytes @ 0x5
   807                           
   808  0025                     Lcd_Write_String@i:	
   809                           ; 1 bytes @ 0x5
   810                           
   811                           
   812                           ; 2 bytes @ 0x5
   813  0025                     	ds	1
   814  0026                     ___fltol@exp1:
   815  0026                     ___xxtofl@arg:	
   816                           ; 1 bytes @ 0x6
   817                           
   818                           
   819                           ; 4 bytes @ 0x6
   820  0026                     	ds	4
   821  002A                     ?___flmul:
   822  002A                     ___flmul@b:	
   823                           ; 4 bytes @ 0xA
   824                           
   825                           
   826                           ; 4 bytes @ 0xA
   827  002A                     	ds	4
   828  002E                     ___flmul@a:
   829                           
   830                           ; 4 bytes @ 0xE
   831  002E                     	ds	4
   832  0032                     ??___flmul:
   833                           
   834                           ; 1 bytes @ 0x12
   835  0032                     	ds	5
   836  0037                     ___flmul@sign:
   837                           
   838                           ; 1 bytes @ 0x17
   839  0037                     	ds	1
   840  0038                     ___flmul@grs:
   841                           
   842                           ; 4 bytes @ 0x18
   843  0038                     	ds	4
   844  003C                     ___flmul@aexp:
   845                           
   846                           ; 1 bytes @ 0x1C
   847  003C                     	ds	1
   848  003D                     ___flmul@bexp:
   849                           
   850                           ; 1 bytes @ 0x1D
   851  003D                     	ds	1
   852  003E                     ___flmul@prod:
   853                           
   854                           ; 4 bytes @ 0x1E
   855  003E                     	ds	4
   856  0042                     ___flmul@temp:
   857                           
   858                           ; 2 bytes @ 0x22
   859  0042                     	ds	2
   860  0044                     ?___fldiv:
   861  0044                     ___fldiv@a:	
   862                           ; 4 bytes @ 0x24
   863                           
   864                           
   865                           ; 4 bytes @ 0x24
   866  0044                     	ds	4
   867  0048                     ___fldiv@b:
   868                           
   869                           ; 4 bytes @ 0x28
   870  0048                     	ds	4
   871  004C                     ??___fldiv:
   872                           
   873                           ; 1 bytes @ 0x2C
   874  004C                     	ds	5
   875  0051                     ___fldiv@rem:
   876                           
   877                           ; 4 bytes @ 0x31
   878  0051                     	ds	4
   879  0055                     ___fldiv@sign:
   880                           
   881                           ; 1 bytes @ 0x35
   882  0055                     	ds	1
   883  0056                     ___fldiv@new_exp:
   884                           
   885                           ; 2 bytes @ 0x36
   886  0056                     	ds	2
   887  0058                     ___fldiv@grs:
   888                           
   889                           ; 4 bytes @ 0x38
   890  0058                     	ds	4
   891  005C                     ___fldiv@bexp:
   892                           
   893                           ; 1 bytes @ 0x3C
   894  005C                     	ds	1
   895  005D                     ___fldiv@aexp:
   896                           
   897                           ; 1 bytes @ 0x3D
   898  005D                     	ds	1
   899  005E                     ?___fladd:
   900  005E                     ___fladd@b:	
   901                           ; 4 bytes @ 0x3E
   902                           
   903                           
   904                           ; 4 bytes @ 0x3E
   905  005E                     	ds	4
   906  0062                     ___fladd@a:
   907                           
   908                           ; 4 bytes @ 0x42
   909  0062                     	ds	4
   910  0066                     ??___fladd:
   911                           
   912                           ; 1 bytes @ 0x46
   913  0066                     	ds	8
   914                           
   915                           	psect	maintext
   916  0ADD                     __pmaintext:	
   917 ;;
   918 ;;Main: autosize = 0, tempsize = 3, incstack = 0, save=0
   919 ;;
   920 ;; *************** function _main *****************
   921 ;; Defined at:
   922 ;;		line 111 in file "main.c"
   923 ;; Parameters:    Size  Location     Type
   924 ;;		None
   925 ;; Auto vars:     Size  Location     Type
   926 ;;		None
   927 ;; Return value:  Size  Location     Type
   928 ;;                  1    wreg      void 
   929 ;; Registers used:
   930 ;;		wreg, fsr0l, fsr0h, status,2, status,0, btemp+1, pclath, cstack
   931 ;; Tracked objects:
   932 ;;		On entry : B00/0
   933 ;;		On exit  : 0/0
   934 ;;		Unchanged: 0/0
   935 ;; Data sizes:     COMMON   BANK0   BANK1   BANK3   BANK2
   936 ;;      Params:         0       0       0       0       0
   937 ;;      Locals:         0       0       0       0       0
   938 ;;      Temps:          0       0       3       0       0
   939 ;;      Totals:         0       0       3       0       0
   940 ;;Total ram usage:        3 bytes
   941 ;; Hardware stack levels required when called:    4
   942 ;; This function calls:
   943 ;;		_Lcd_Clear
   944 ;;		_Lcd_Init
   945 ;;		_Lcd_Set_Cursor
   946 ;;		_Lcd_Write_String
   947 ;;		___fldiv
   948 ;;		___flge
   949 ;;		___flmul
   950 ;;		___xxtofl
   951 ;;		_floattostr_
   952 ;;		_setup
   953 ;; This function is called by:
   954 ;;		Startup code after reset
   955 ;; This function uses a non-reentrant model
   956 ;;
   957                           
   958                           
   959                           ;psect for function _main
   960  0ADD                     _main:
   961  0ADD                     l3259:	
   962                           ;incstack = 0
   963                           ; Regs used in _main: [wreg-fsr0h+status,2+status,0+btemp+1+pclath+cstack]
   964                           
   965                           
   966                           ;main.c: 112:     setup();
   967  0ADD  160A  118A  259E  120A  158A  	fcall	_setup
   968                           
   969                           ;main.c: 113:     Lcd_Init();
   970  0AE2  160A  118A  26A2  120A  158A  	fcall	_Lcd_Init
   971                           
   972                           ;main.c: 114:     Lcd_Clear();
   973  0AE7  160A  118A  253B  120A  158A  	fcall	_Lcd_Clear
   974                           
   975                           ;main.c: 115:     Lcd_Set_Cursor(1,1);
   976  0AEC  01F7               	clrf	Lcd_Set_Cursor@b
   977  0AED  0AF7               	incf	Lcd_Set_Cursor@b,f
   978  0AEE  3001               	movlw	1
   979  0AEF  120A  158A  2004  120A  158A  	fcall	_Lcd_Set_Cursor
   980  0AF4                     l3261:
   981                           
   982                           ;main.c: 116:    Lcd_Write_String("FRECUENCIA");
   983  0AF4  3001               	movlw	(low ((STR_1-__stringbase)| (0+32768)))& (0+255)
   984  0AF5  1283               	bcf	3,5	;RP0=0, select bank0
   985  0AF6  1303               	bcf	3,6	;RP1=0, select bank0
   986  0AF7  00A0               	movwf	Lcd_Write_String@a
   987  0AF8  3080               	movlw	128
   988  0AF9  00A1               	movwf	Lcd_Write_String@a+1
   989  0AFA  160A  118A  260C  120A  158A  	fcall	_Lcd_Write_String
   990  0AFF                     l3263:
   991                           
   992                           ;main.c: 117:     TMR1ON = 1;
   993  0AFF  1283               	bcf	3,5	;RP0=0, select bank0
   994  0B00  1303               	bcf	3,6	;RP1=0, select bank0
   995  0B01  1410               	bsf	16,0	;volatile
   996  0B02                     l3265:
   997                           
   998                           ;main.c: 118:     PORTCbits.RC2 = 1;
   999  0B02  1507               	bsf	7,2	;volatile
  1000  0B03                     l3267:
  1001                           
  1002                           ;main.c: 123:         if (flag_frec==1){
  1003  0B03  1683               	bsf	3,5	;RP0=1, select bank1
  1004  0B04  1303               	bcf	3,6	;RP1=0, select bank1
  1005  0B05  0346               	decf	_flag_frec^(0+128),w
  1006  0B06  1D03               	btfss	3,2
  1007  0B07  2B09               	goto	u4761
  1008  0B08  2B0A               	goto	u4760
  1009  0B09                     u4761:
  1010  0B09  2B69               	goto	l3277
  1011  0B0A                     u4760:
  1012  0B0A                     l3269:
  1013                           
  1014                           ;main.c: 124:             if (frecu!=0){
  1015  0B0A  085F               	movf	_frecu^(0+128),w
  1016  0B0B  0460               	iorwf	(_frecu+1)^(0+128),w
  1017  0B0C  1903               	btfsc	3,2
  1018  0B0D  2B0F               	goto	u4771
  1019  0B0E  2B10               	goto	u4770
  1020  0B0F                     u4771:
  1021  0B0F  2B68               	goto	l3275
  1022  0B10                     u4770:
  1023  0B10                     l3271:
  1024                           
  1025                           ;main.c: 125:                 frecuencia=8000000/(frecu*4.0);
  1026  0B10  3040               	movlw	64
  1027  0B11  1283               	bcf	3,5	;RP0=0, select bank0
  1028  0B12  1303               	bcf	3,6	;RP1=0, select bank0
  1029  0B13  00AD               	movwf	___flmul@b+3
  1030  0B14  3080               	movlw	128
  1031  0B15  00AC               	movwf	___flmul@b+2
  1032  0B16  3000               	movlw	0
  1033  0B17  00AB               	movwf	___flmul@b+1
  1034  0B18  3000               	movlw	0
  1035  0B19  00AA               	movwf	___flmul@b
  1036  0B1A  1683               	bsf	3,5	;RP0=1, select bank1
  1037  0B1B  1303               	bcf	3,6	;RP1=0, select bank1
  1038  0B1C  085F               	movf	_frecu^(0+128),w
  1039  0B1D  00F3               	movwf	___xxtofl@val
  1040  0B1E  0860               	movf	(_frecu+1)^(0+128),w
  1041  0B1F  00F4               	movwf	___xxtofl@val+1
  1042  0B20  01F5               	clrf	___xxtofl@val+2
  1043  0B21  01F6               	clrf	___xxtofl@val+3
  1044  0B22  3000               	movlw	0
  1045  0B23  120A  118A  2711  120A  158A  	fcall	___xxtofl
  1046  0B28  0876               	movf	?___xxtofl+3,w
  1047  0B29  1283               	bcf	3,5	;RP0=0, select bank0
  1048  0B2A  1303               	bcf	3,6	;RP1=0, select bank0
  1049  0B2B  00B1               	movwf	___flmul@a+3
  1050  0B2C  0875               	movf	?___xxtofl+2,w
  1051  0B2D  00B0               	movwf	___flmul@a+2
  1052  0B2E  0874               	movf	?___xxtofl+1,w
  1053  0B2F  00AF               	movwf	___flmul@a+1
  1054  0B30  0873               	movf	?___xxtofl,w
  1055  0B31  00AE               	movwf	___flmul@a
  1056  0B32  120A  118A  23B0  120A  158A  	fcall	___flmul
  1057  0B37  1283               	bcf	3,5	;RP0=0, select bank0
  1058  0B38  1303               	bcf	3,6	;RP1=0, select bank0
  1059  0B39  082D               	movf	?___flmul+3,w
  1060  0B3A  00C7               	movwf	___fldiv@a+3
  1061  0B3B  082C               	movf	?___flmul+2,w
  1062  0B3C  00C6               	movwf	___fldiv@a+2
  1063  0B3D  082B               	movf	?___flmul+1,w
  1064  0B3E  00C5               	movwf	___fldiv@a+1
  1065  0B3F  082A               	movf	?___flmul,w
  1066  0B40  00C4               	movwf	___fldiv@a
  1067  0B41  304A               	movlw	74
  1068  0B42  00CB               	movwf	___fldiv@b+3
  1069  0B43  30F4               	movlw	244
  1070  0B44  00CA               	movwf	___fldiv@b+2
  1071  0B45  3024               	movlw	36
  1072  0B46  00C9               	movwf	___fldiv@b+1
  1073  0B47  3000               	movlw	0
  1074  0B48  00C8               	movwf	___fldiv@b
  1075  0B49  120A  158A  2100  120A  158A  	fcall	___fldiv
  1076  0B4E  1283               	bcf	3,5	;RP0=0, select bank0
  1077  0B4F  1303               	bcf	3,6	;RP1=0, select bank0
  1078  0B50  0847               	movf	?___fldiv+3,w
  1079  0B51  1683               	bsf	3,5	;RP0=1, select bank1
  1080  0B52  1303               	bcf	3,6	;RP1=0, select bank1
  1081  0B53  00C4               	movwf	(_frecuencia+3)^(0+128)
  1082  0B54  1283               	bcf	3,5	;RP0=0, select bank0
  1083  0B55  1303               	bcf	3,6	;RP1=0, select bank0
  1084  0B56  0846               	movf	?___fldiv+2,w
  1085  0B57  1683               	bsf	3,5	;RP0=1, select bank1
  1086  0B58  1303               	bcf	3,6	;RP1=0, select bank1
  1087  0B59  00C3               	movwf	(_frecuencia+2)^(0+128)
  1088  0B5A  1283               	bcf	3,5	;RP0=0, select bank0
  1089  0B5B  1303               	bcf	3,6	;RP1=0, select bank0
  1090  0B5C  0845               	movf	?___fldiv+1,w
  1091  0B5D  1683               	bsf	3,5	;RP0=1, select bank1
  1092  0B5E  1303               	bcf	3,6	;RP1=0, select bank1
  1093  0B5F  00C2               	movwf	(_frecuencia+1)^(0+128)
  1094  0B60  1283               	bcf	3,5	;RP0=0, select bank0
  1095  0B61  1303               	bcf	3,6	;RP1=0, select bank0
  1096  0B62  0844               	movf	?___fldiv,w
  1097  0B63  1683               	bsf	3,5	;RP0=1, select bank1
  1098  0B64  1303               	bcf	3,6	;RP1=0, select bank1
  1099  0B65  00C1               	movwf	_frecuencia^(0+128)
  1100  0B66                     l3273:
  1101                           
  1102                           ;main.c: 126:                 frecu=0;
  1103  0B66  01DF               	clrf	_frecu^(0+128)
  1104  0B67  01E0               	clrf	(_frecu+1)^(0+128)
  1105  0B68                     l3275:
  1106                           
  1107                           ;main.c: 129:             flag_frec=0;
  1108  0B68  01C6               	clrf	_flag_frec^(0+128)
  1109  0B69                     l3277:
  1110                           
  1111                           ;main.c: 131:         floattostr_(frecuencia,texto,2);
  1112  0B69  0844               	movf	(_frecuencia+3)^(0+128),w
  1113  0B6A  00AF               	movwf	(floattostr_@numero_+3)^(0+128)
  1114  0B6B  0843               	movf	(_frecuencia+2)^(0+128),w
  1115  0B6C  00AE               	movwf	(floattostr_@numero_+2)^(0+128)
  1116  0B6D  0842               	movf	(_frecuencia+1)^(0+128),w
  1117  0B6E  00AD               	movwf	(floattostr_@numero_+1)^(0+128)
  1118  0B6F  0841               	movf	_frecuencia^(0+128),w
  1119  0B70  00AC               	movwf	floattostr_@numero_^(0+128)
  1120  0B71  30CB               	movlw	(low (_texto| 0))& (0+255)
  1121  0B72  00BE               	movwf	??_main^(0+128)
  1122  0B73  083E               	movf	??_main^(0+128),w
  1123  0B74  00B0               	movwf	floattostr_@cadena_^(0+128)
  1124  0B75  3002               	movlw	2
  1125  0B76  00BF               	movwf	(??_main+1)^(0+128)
  1126  0B77  083F               	movf	(??_main+1)^(0+128),w
  1127  0B78  00B1               	movwf	floattostr_@decimales_^(0+128)
  1128  0B79  120A  118A  2022  120A  158A  	fcall	_floattostr_
  1129  0B7E                     l3279:
  1130                           
  1131                           ;main.c: 132:         Lcd_Set_Cursor(2,5);
  1132  0B7E  3005               	movlw	5
  1133  0B7F  1683               	bsf	3,5	;RP0=1, select bank1
  1134  0B80  1303               	bcf	3,6	;RP1=0, select bank1
  1135  0B81  00BE               	movwf	??_main^(0+128)
  1136  0B82  083E               	movf	??_main^(0+128),w
  1137  0B83  00F7               	movwf	Lcd_Set_Cursor@b
  1138  0B84  3002               	movlw	2
  1139  0B85  120A  158A  2004  120A  158A  	fcall	_Lcd_Set_Cursor
  1140  0B8A                     l3281:
  1141                           
  1142                           ;main.c: 133:         Lcd_Write_String(texto);
  1143  0B8A  30CB               	movlw	(low (_texto| 0))& (0+255)
  1144  0B8B  1283               	bcf	3,5	;RP0=0, select bank0
  1145  0B8C  1303               	bcf	3,6	;RP1=0, select bank0
  1146  0B8D  00A0               	movwf	Lcd_Write_String@a
  1147  0B8E  3000               	movlw	0
  1148  0B8F  00A1               	movwf	Lcd_Write_String@a+1
  1149  0B90  160A  118A  260C  120A  158A  	fcall	_Lcd_Write_String
  1150  0B95                     l3283:
  1151                           
  1152                           ;main.c: 134:         if (frecuencia >= 510 && frecuencia <= 1000 ){
  1153  0B95  1683               	bsf	3,5	;RP0=1, select bank1
  1154  0B96  1303               	bcf	3,6	;RP1=0, select bank1
  1155  0B97  0844               	movf	(_frecuencia+3)^(0+128),w
  1156  0B98  1283               	bcf	3,5	;RP0=0, select bank0
  1157  0B99  1303               	bcf	3,6	;RP1=0, select bank0
  1158  0B9A  00A3               	movwf	___flge@ff1+3
  1159  0B9B  1683               	bsf	3,5	;RP0=1, select bank1
  1160  0B9C  1303               	bcf	3,6	;RP1=0, select bank1
  1161  0B9D  0843               	movf	(_frecuencia+2)^(0+128),w
  1162  0B9E  1283               	bcf	3,5	;RP0=0, select bank0
  1163  0B9F  1303               	bcf	3,6	;RP1=0, select bank0
  1164  0BA0  00A2               	movwf	___flge@ff1+2
  1165  0BA1  1683               	bsf	3,5	;RP0=1, select bank1
  1166  0BA2  1303               	bcf	3,6	;RP1=0, select bank1
  1167  0BA3  0842               	movf	(_frecuencia+1)^(0+128),w
  1168  0BA4  1283               	bcf	3,5	;RP0=0, select bank0
  1169  0BA5  1303               	bcf	3,6	;RP1=0, select bank0
  1170  0BA6  00A1               	movwf	___flge@ff1+1
  1171  0BA7  1683               	bsf	3,5	;RP0=1, select bank1
  1172  0BA8  1303               	bcf	3,6	;RP1=0, select bank1
  1173  0BA9  0841               	movf	_frecuencia^(0+128),w
  1174  0BAA  1283               	bcf	3,5	;RP0=0, select bank0
  1175  0BAB  1303               	bcf	3,6	;RP1=0, select bank0
  1176  0BAC  00A0               	movwf	___flge@ff1
  1177  0BAD  3043               	movlw	67
  1178  0BAE  00A7               	movwf	___flge@ff2+3
  1179  0BAF  30FF               	movlw	255
  1180  0BB0  00A6               	movwf	___flge@ff2+2
  1181  0BB1  3000               	movlw	0
  1182  0BB2  00A5               	movwf	___flge@ff2+1
  1183  0BB3  3000               	movlw	0
  1184  0BB4  00A4               	movwf	___flge@ff2
  1185  0BB5  120A  158A  205C  120A  158A  	fcall	___flge
  1186  0BBA  1C03               	btfss	3,0
  1187  0BBB  2BBD               	goto	u4781
  1188  0BBC  2BBE               	goto	u4780
  1189  0BBD                     u4781:
  1190  0BBD  2BF1               	goto	l3291
  1191  0BBE                     u4780:
  1192  0BBE                     l3285:
  1193  0BBE  3044               	movlw	68
  1194  0BBF  1283               	bcf	3,5	;RP0=0, select bank0
  1195  0BC0  1303               	bcf	3,6	;RP1=0, select bank0
  1196  0BC1  00A3               	movwf	___flge@ff1+3
  1197  0BC2  307A               	movlw	122
  1198  0BC3  00A2               	movwf	___flge@ff1+2
  1199  0BC4  3000               	movlw	0
  1200  0BC5  00A1               	movwf	___flge@ff1+1
  1201  0BC6  3000               	movlw	0
  1202  0BC7  00A0               	movwf	___flge@ff1
  1203  0BC8  1683               	bsf	3,5	;RP0=1, select bank1
  1204  0BC9  1303               	bcf	3,6	;RP1=0, select bank1
  1205  0BCA  0844               	movf	(_frecuencia+3)^(0+128),w
  1206  0BCB  1283               	bcf	3,5	;RP0=0, select bank0
  1207  0BCC  1303               	bcf	3,6	;RP1=0, select bank0
  1208  0BCD  00A7               	movwf	___flge@ff2+3
  1209  0BCE  1683               	bsf	3,5	;RP0=1, select bank1
  1210  0BCF  1303               	bcf	3,6	;RP1=0, select bank1
  1211  0BD0  0843               	movf	(_frecuencia+2)^(0+128),w
  1212  0BD1  1283               	bcf	3,5	;RP0=0, select bank0
  1213  0BD2  1303               	bcf	3,6	;RP1=0, select bank0
  1214  0BD3  00A6               	movwf	___flge@ff2+2
  1215  0BD4  1683               	bsf	3,5	;RP0=1, select bank1
  1216  0BD5  1303               	bcf	3,6	;RP1=0, select bank1
  1217  0BD6  0842               	movf	(_frecuencia+1)^(0+128),w
  1218  0BD7  1283               	bcf	3,5	;RP0=0, select bank0
  1219  0BD8  1303               	bcf	3,6	;RP1=0, select bank0
  1220  0BD9  00A5               	movwf	___flge@ff2+1
  1221  0BDA  1683               	bsf	3,5	;RP0=1, select bank1
  1222  0BDB  1303               	bcf	3,6	;RP1=0, select bank1
  1223  0BDC  0841               	movf	_frecuencia^(0+128),w
  1224  0BDD  1283               	bcf	3,5	;RP0=0, select bank0
  1225  0BDE  1303               	bcf	3,6	;RP1=0, select bank0
  1226  0BDF  00A4               	movwf	___flge@ff2
  1227  0BE0  120A  158A  205C  120A  158A  	fcall	___flge
  1228  0BE5  1C03               	btfss	3,0
  1229  0BE6  2BE8               	goto	u4791
  1230  0BE7  2BE9               	goto	u4790
  1231  0BE8                     u4791:
  1232  0BE8  2BF1               	goto	l3291
  1233  0BE9                     u4790:
  1234  0BE9                     l3287:
  1235                           
  1236                           ;main.c: 135:             COLOR = 0X01;
  1237  0BE9  1683               	bsf	3,5	;RP0=1, select bank1
  1238  0BEA  1303               	bcf	3,6	;RP1=0, select bank1
  1239  0BEB  01C8               	clrf	_COLOR^(0+128)
  1240  0BEC  0AC8               	incf	_COLOR^(0+128),f
  1241  0BED                     l3289:
  1242                           
  1243                           ;main.c: 136:             CCPR1L = (((0.247 * 8) + 62)*2);
  1244  0BED  307F               	movlw	127
  1245  0BEE  1283               	bcf	3,5	;RP0=0, select bank0
  1246  0BEF  1303               	bcf	3,6	;RP1=0, select bank0
  1247  0BF0  0095               	movwf	21	;volatile
  1248  0BF1                     l3291:
  1249                           
  1250                           ;main.c: 138:         if (frecuencia >= 230 && frecuencia <= 350){
  1251  0BF1  1683               	bsf	3,5	;RP0=1, select bank1
  1252  0BF2  1303               	bcf	3,6	;RP1=0, select bank1
  1253  0BF3  0844               	movf	(_frecuencia+3)^(0+128),w
  1254  0BF4  1283               	bcf	3,5	;RP0=0, select bank0
  1255  0BF5  1303               	bcf	3,6	;RP1=0, select bank0
  1256  0BF6  00A3               	movwf	___flge@ff1+3
  1257  0BF7  1683               	bsf	3,5	;RP0=1, select bank1
  1258  0BF8  1303               	bcf	3,6	;RP1=0, select bank1
  1259  0BF9  0843               	movf	(_frecuencia+2)^(0+128),w
  1260  0BFA  1283               	bcf	3,5	;RP0=0, select bank0
  1261  0BFB  1303               	bcf	3,6	;RP1=0, select bank0
  1262  0BFC  00A2               	movwf	___flge@ff1+2
  1263  0BFD  1683               	bsf	3,5	;RP0=1, select bank1
  1264  0BFE  1303               	bcf	3,6	;RP1=0, select bank1
  1265  0BFF  0842               	movf	(_frecuencia+1)^(0+128),w
  1266  0C00  1283               	bcf	3,5	;RP0=0, select bank0
  1267  0C01  1303               	bcf	3,6	;RP1=0, select bank0
  1268  0C02  00A1               	movwf	___flge@ff1+1
  1269  0C03  1683               	bsf	3,5	;RP0=1, select bank1
  1270  0C04  1303               	bcf	3,6	;RP1=0, select bank1
  1271  0C05  0841               	movf	_frecuencia^(0+128),w
  1272  0C06  1283               	bcf	3,5	;RP0=0, select bank0
  1273  0C07  1303               	bcf	3,6	;RP1=0, select bank0
  1274  0C08  00A0               	movwf	___flge@ff1
  1275  0C09  3043               	movlw	67
  1276  0C0A  00A7               	movwf	___flge@ff2+3
  1277  0C0B  3066               	movlw	102
  1278  0C0C  00A6               	movwf	___flge@ff2+2
  1279  0C0D  3000               	movlw	0
  1280  0C0E  00A5               	movwf	___flge@ff2+1
  1281  0C0F  3000               	movlw	0
  1282  0C10  00A4               	movwf	___flge@ff2
  1283  0C11  120A  158A  205C  120A  158A  	fcall	___flge
  1284  0C16  1C03               	btfss	3,0
  1285  0C17  2C19               	goto	u4801
  1286  0C18  2C1A               	goto	u4800
  1287  0C19                     u4801:
  1288  0C19  2C4F               	goto	l3297
  1289  0C1A                     u4800:
  1290  0C1A                     l3293:
  1291  0C1A  3043               	movlw	67
  1292  0C1B  1283               	bcf	3,5	;RP0=0, select bank0
  1293  0C1C  1303               	bcf	3,6	;RP1=0, select bank0
  1294  0C1D  00A3               	movwf	___flge@ff1+3
  1295  0C1E  30AF               	movlw	175
  1296  0C1F  00A2               	movwf	___flge@ff1+2
  1297  0C20  3000               	movlw	0
  1298  0C21  00A1               	movwf	___flge@ff1+1
  1299  0C22  3000               	movlw	0
  1300  0C23  00A0               	movwf	___flge@ff1
  1301  0C24  1683               	bsf	3,5	;RP0=1, select bank1
  1302  0C25  1303               	bcf	3,6	;RP1=0, select bank1
  1303  0C26  0844               	movf	(_frecuencia+3)^(0+128),w
  1304  0C27  1283               	bcf	3,5	;RP0=0, select bank0
  1305  0C28  1303               	bcf	3,6	;RP1=0, select bank0
  1306  0C29  00A7               	movwf	___flge@ff2+3
  1307  0C2A  1683               	bsf	3,5	;RP0=1, select bank1
  1308  0C2B  1303               	bcf	3,6	;RP1=0, select bank1
  1309  0C2C  0843               	movf	(_frecuencia+2)^(0+128),w
  1310  0C2D  1283               	bcf	3,5	;RP0=0, select bank0
  1311  0C2E  1303               	bcf	3,6	;RP1=0, select bank0
  1312  0C2F  00A6               	movwf	___flge@ff2+2
  1313  0C30  1683               	bsf	3,5	;RP0=1, select bank1
  1314  0C31  1303               	bcf	3,6	;RP1=0, select bank1
  1315  0C32  0842               	movf	(_frecuencia+1)^(0+128),w
  1316  0C33  1283               	bcf	3,5	;RP0=0, select bank0
  1317  0C34  1303               	bcf	3,6	;RP1=0, select bank0
  1318  0C35  00A5               	movwf	___flge@ff2+1
  1319  0C36  1683               	bsf	3,5	;RP0=1, select bank1
  1320  0C37  1303               	bcf	3,6	;RP1=0, select bank1
  1321  0C38  0841               	movf	_frecuencia^(0+128),w
  1322  0C39  1283               	bcf	3,5	;RP0=0, select bank0
  1323  0C3A  1303               	bcf	3,6	;RP1=0, select bank0
  1324  0C3B  00A4               	movwf	___flge@ff2
  1325  0C3C  120A  158A  205C  120A  158A  	fcall	___flge
  1326  0C41  1C03               	btfss	3,0
  1327  0C42  2C44               	goto	u4811
  1328  0C43  2C45               	goto	u4810
  1329  0C44                     u4811:
  1330  0C44  2C4F               	goto	l3297
  1331  0C45                     u4810:
  1332  0C45                     l3295:
  1333                           
  1334                           ;main.c: 139:             COLOR = 0X02;
  1335  0C45  3002               	movlw	2
  1336  0C46  1683               	bsf	3,5	;RP0=1, select bank1
  1337  0C47  1303               	bcf	3,6	;RP1=0, select bank1
  1338  0C48  00BE               	movwf	??_main^(0+128)
  1339  0C49  083E               	movf	??_main^(0+128),w
  1340  0C4A  00C8               	movwf	_COLOR^(0+128)
  1341                           
  1342                           ;main.c: 140:             CCPR1L = (((0.247 * 75) + 62)*2);
  1343  0C4B  30A1               	movlw	161
  1344  0C4C  1283               	bcf	3,5	;RP0=0, select bank0
  1345  0C4D  1303               	bcf	3,6	;RP1=0, select bank0
  1346  0C4E  0095               	movwf	21	;volatile
  1347  0C4F                     l3297:
  1348                           
  1349                           ;main.c: 142:         if (frecuencia >= 130 && frecuencia <= 190){
  1350  0C4F  1683               	bsf	3,5	;RP0=1, select bank1
  1351  0C50  1303               	bcf	3,6	;RP1=0, select bank1
  1352  0C51  0844               	movf	(_frecuencia+3)^(0+128),w
  1353  0C52  1283               	bcf	3,5	;RP0=0, select bank0
  1354  0C53  1303               	bcf	3,6	;RP1=0, select bank0
  1355  0C54  00A3               	movwf	___flge@ff1+3
  1356  0C55  1683               	bsf	3,5	;RP0=1, select bank1
  1357  0C56  1303               	bcf	3,6	;RP1=0, select bank1
  1358  0C57  0843               	movf	(_frecuencia+2)^(0+128),w
  1359  0C58  1283               	bcf	3,5	;RP0=0, select bank0
  1360  0C59  1303               	bcf	3,6	;RP1=0, select bank0
  1361  0C5A  00A2               	movwf	___flge@ff1+2
  1362  0C5B  1683               	bsf	3,5	;RP0=1, select bank1
  1363  0C5C  1303               	bcf	3,6	;RP1=0, select bank1
  1364  0C5D  0842               	movf	(_frecuencia+1)^(0+128),w
  1365  0C5E  1283               	bcf	3,5	;RP0=0, select bank0
  1366  0C5F  1303               	bcf	3,6	;RP1=0, select bank0
  1367  0C60  00A1               	movwf	___flge@ff1+1
  1368  0C61  1683               	bsf	3,5	;RP0=1, select bank1
  1369  0C62  1303               	bcf	3,6	;RP1=0, select bank1
  1370  0C63  0841               	movf	_frecuencia^(0+128),w
  1371  0C64  1283               	bcf	3,5	;RP0=0, select bank0
  1372  0C65  1303               	bcf	3,6	;RP1=0, select bank0
  1373  0C66  00A0               	movwf	___flge@ff1
  1374  0C67  3043               	movlw	67
  1375  0C68  00A7               	movwf	___flge@ff2+3
  1376  0C69  3002               	movlw	2
  1377  0C6A  00A6               	movwf	___flge@ff2+2
  1378  0C6B  3000               	movlw	0
  1379  0C6C  00A5               	movwf	___flge@ff2+1
  1380  0C6D  3000               	movlw	0
  1381  0C6E  00A4               	movwf	___flge@ff2
  1382  0C6F  120A  158A  205C  120A  158A  	fcall	___flge
  1383  0C74  1C03               	btfss	3,0
  1384  0C75  2C77               	goto	u4821
  1385  0C76  2C78               	goto	u4820
  1386  0C77                     u4821:
  1387  0C77  2CAD               	goto	l139
  1388  0C78                     u4820:
  1389  0C78                     l3299:
  1390  0C78  3043               	movlw	67
  1391  0C79  1283               	bcf	3,5	;RP0=0, select bank0
  1392  0C7A  1303               	bcf	3,6	;RP1=0, select bank0
  1393  0C7B  00A3               	movwf	___flge@ff1+3
  1394  0C7C  303E               	movlw	62
  1395  0C7D  00A2               	movwf	___flge@ff1+2
  1396  0C7E  3000               	movlw	0
  1397  0C7F  00A1               	movwf	___flge@ff1+1
  1398  0C80  3000               	movlw	0
  1399  0C81  00A0               	movwf	___flge@ff1
  1400  0C82  1683               	bsf	3,5	;RP0=1, select bank1
  1401  0C83  1303               	bcf	3,6	;RP1=0, select bank1
  1402  0C84  0844               	movf	(_frecuencia+3)^(0+128),w
  1403  0C85  1283               	bcf	3,5	;RP0=0, select bank0
  1404  0C86  1303               	bcf	3,6	;RP1=0, select bank0
  1405  0C87  00A7               	movwf	___flge@ff2+3
  1406  0C88  1683               	bsf	3,5	;RP0=1, select bank1
  1407  0C89  1303               	bcf	3,6	;RP1=0, select bank1
  1408  0C8A  0843               	movf	(_frecuencia+2)^(0+128),w
  1409  0C8B  1283               	bcf	3,5	;RP0=0, select bank0
  1410  0C8C  1303               	bcf	3,6	;RP1=0, select bank0
  1411  0C8D  00A6               	movwf	___flge@ff2+2
  1412  0C8E  1683               	bsf	3,5	;RP0=1, select bank1
  1413  0C8F  1303               	bcf	3,6	;RP1=0, select bank1
  1414  0C90  0842               	movf	(_frecuencia+1)^(0+128),w
  1415  0C91  1283               	bcf	3,5	;RP0=0, select bank0
  1416  0C92  1303               	bcf	3,6	;RP1=0, select bank0
  1417  0C93  00A5               	movwf	___flge@ff2+1
  1418  0C94  1683               	bsf	3,5	;RP0=1, select bank1
  1419  0C95  1303               	bcf	3,6	;RP1=0, select bank1
  1420  0C96  0841               	movf	_frecuencia^(0+128),w
  1421  0C97  1283               	bcf	3,5	;RP0=0, select bank0
  1422  0C98  1303               	bcf	3,6	;RP1=0, select bank0
  1423  0C99  00A4               	movwf	___flge@ff2
  1424  0C9A  120A  158A  205C  120A  158A  	fcall	___flge
  1425  0C9F  1C03               	btfss	3,0
  1426  0CA0  2CA2               	goto	u4831
  1427  0CA1  2CA3               	goto	u4830
  1428  0CA2                     u4831:
  1429  0CA2  2CAD               	goto	l139
  1430  0CA3                     u4830:
  1431  0CA3                     l3301:
  1432                           
  1433                           ;main.c: 143:             COLOR = 0X03;
  1434  0CA3  3003               	movlw	3
  1435  0CA4  1683               	bsf	3,5	;RP0=1, select bank1
  1436  0CA5  1303               	bcf	3,6	;RP1=0, select bank1
  1437  0CA6  00BE               	movwf	??_main^(0+128)
  1438  0CA7  083E               	movf	??_main^(0+128),w
  1439  0CA8  00C8               	movwf	_COLOR^(0+128)
  1440                           
  1441                           ;main.c: 144:             CCPR1L = (((0.247 * 40) + 62)*2);
  1442  0CA9  308F               	movlw	143
  1443  0CAA  1283               	bcf	3,5	;RP0=0, select bank0
  1444  0CAB  1303               	bcf	3,6	;RP1=0, select bank0
  1445  0CAC  0095               	movwf	21	;volatile
  1446  0CAD                     l139:	
  1447                           ;main.c: 145:         }
  1448                           
  1449                           
  1450                           ;main.c: 148:         _delay((unsigned long)((2000)*(8000000/4000.0)));
  1451  0CAD  3015               	movlw	21
  1452  0CAE  1683               	bsf	3,5	;RP0=1, select bank1
  1453  0CAF  1303               	bcf	3,6	;RP1=0, select bank1
  1454  0CB0  00C0               	movwf	(??_main^(0+128)+2)
  1455  0CB1  304B               	movlw	75
  1456  0CB2  00BF               	movwf	(??_main^(0+128)+1)
  1457  0CB3  30BD               	movlw	189
  1458  0CB4  00BE               	movwf	??_main^(0+128)
  1459  0CB5                     u4847:
  1460  0CB5  0BBE               	decfsz	??_main^(0+128),f
  1461  0CB6  2CB5               	goto	u4847
  1462  0CB7  0BBF               	decfsz	(??_main^(0+128)+1),f
  1463  0CB8  2CB5               	goto	u4847
  1464  0CB9  0BC0               	decfsz	(??_main^(0+128)+2),f
  1465  0CBA  2CB5               	goto	u4847
  1466  0CBB  2CBC               	nop2
  1467  0CBC  2B03               	goto	l3267
  1468  0CBD  120A  118A  280C   	ljmp	start
  1469  0CC0                     __end_of_main:
  1470                           
  1471                           	psect	text1
  1472  159E                     __ptext1:	
  1473 ;; *************** function _setup *****************
  1474 ;; Defined at:
  1475 ;;		line 156 in file "main.c"
  1476 ;; Parameters:    Size  Location     Type
  1477 ;;		None
  1478 ;; Auto vars:     Size  Location     Type
  1479 ;;		None
  1480 ;; Return value:  Size  Location     Type
  1481 ;;                  1    wreg      void 
  1482 ;; Registers used:
  1483 ;;		wreg, status,2, status,0, pclath, cstack
  1484 ;; Tracked objects:
  1485 ;;		On entry : 0/0
  1486 ;;		On exit  : 0/0
  1487 ;;		Unchanged: 0/0
  1488 ;; Data sizes:     COMMON   BANK0   BANK1   BANK3   BANK2
  1489 ;;      Params:         0       0       0       0       0
  1490 ;;      Locals:         0       0       0       0       0
  1491 ;;      Temps:          0       0       0       0       0
  1492 ;;      Totals:         0       0       0       0       0
  1493 ;;Total ram usage:        0 bytes
  1494 ;; Hardware stack levels used:    1
  1495 ;; Hardware stack levels required when called:    2
  1496 ;; This function calls:
  1497 ;;		_I2C_Slave_Init
  1498 ;; This function is called by:
  1499 ;;		_main
  1500 ;; This function uses a non-reentrant model
  1501 ;;
  1502                           
  1503                           
  1504                           ;psect for function _setup
  1505  159E                     _setup:
  1506  159E                     l2549:	
  1507                           ;incstack = 0
  1508                           ; Regs used in _setup: [wreg+status,2+status,0+pclath+cstack]
  1509                           
  1510                           
  1511                           ;main.c: 158:     ANSEL = 0B0000000;
  1512  159E  1683               	bsf	3,5	;RP0=1, select bank3
  1513  159F  1703               	bsf	3,6	;RP1=1, select bank3
  1514  15A0  0188               	clrf	8	;volatile
  1515                           
  1516                           ;main.c: 159:     ANSELH = 0X00;
  1517  15A1  0189               	clrf	9	;volatile
  1518                           
  1519                           ;main.c: 161:     TRISA = 0B0000000;
  1520  15A2  1683               	bsf	3,5	;RP0=1, select bank1
  1521  15A3  1303               	bcf	3,6	;RP1=0, select bank1
  1522  15A4  0185               	clrf	5	;volatile
  1523                           
  1524                           ;main.c: 162:     TRISD = 0X00;
  1525  15A5  0188               	clrf	8	;volatile
  1526                           
  1527                           ;main.c: 163:     TRISE = 0X00;
  1528  15A6  0189               	clrf	9	;volatile
  1529                           
  1530                           ;main.c: 164:     TRISB = 0B00000000;
  1531  15A7  0186               	clrf	6	;volatile
  1532  15A8                     l2551:
  1533                           
  1534                           ;main.c: 165:     TRISC = 0X02;
  1535  15A8  3002               	movlw	2
  1536  15A9  0087               	movwf	7	;volatile
  1537  15AA                     l2553:
  1538                           
  1539                           ;main.c: 167:     PORTA = 0X00;
  1540  15AA  1283               	bcf	3,5	;RP0=0, select bank0
  1541  15AB  1303               	bcf	3,6	;RP1=0, select bank0
  1542  15AC  0185               	clrf	5	;volatile
  1543  15AD                     l2555:
  1544                           
  1545                           ;main.c: 168:     PORTB = 0X00;
  1546  15AD  0186               	clrf	6	;volatile
  1547  15AE                     l2557:
  1548                           
  1549                           ;main.c: 169:     PORTC = 0X00;
  1550  15AE  0187               	clrf	7	;volatile
  1551  15AF                     l2559:
  1552                           
  1553                           ;main.c: 170:     PORTD = 0X00;
  1554  15AF  0188               	clrf	8	;volatile
  1555  15B0                     l2561:
  1556                           
  1557                           ;main.c: 171:     PORTE = 0X00;
  1558  15B0  0189               	clrf	9	;volatile
  1559  15B1                     l2563:
  1560                           
  1561                           ;main.c: 174:     OSCCONbits.IRCF2 = 1;
  1562  15B1  1683               	bsf	3,5	;RP0=1, select bank1
  1563  15B2  1303               	bcf	3,6	;RP1=0, select bank1
  1564  15B3  170F               	bsf	15,6	;volatile
  1565  15B4                     l2565:
  1566                           
  1567                           ;main.c: 175:     OSCCONbits.IRCF1 = 1;
  1568  15B4  168F               	bsf	15,5	;volatile
  1569  15B5                     l2567:
  1570                           
  1571                           ;main.c: 176:     OSCCONbits.IRCF0 = 1;
  1572  15B5  160F               	bsf	15,4	;volatile
  1573  15B6                     l2569:
  1574                           
  1575                           ;main.c: 177:     OSCCONbits.SCS = 1;
  1576  15B6  140F               	bsf	15,0	;volatile
  1577  15B7                     l2571:
  1578                           
  1579                           ;main.c: 180:     INTCONbits.GIE = 1;
  1580  15B7  178B               	bsf	11,7	;volatile
  1581  15B8                     l2573:
  1582                           
  1583                           ;main.c: 181:     INTCONbits.PEIE = 1;
  1584  15B8  170B               	bsf	11,6	;volatile
  1585  15B9                     l2575:
  1586                           
  1587                           ;main.c: 182:     PIE2bits.CCP2IE = 1;
  1588  15B9  140D               	bsf	13,0	;volatile
  1589  15BA                     l2577:
  1590                           
  1591                           ;main.c: 183:     PIR2bits.CCP2IF = 0;
  1592  15BA  1283               	bcf	3,5	;RP0=0, select bank0
  1593  15BB  1303               	bcf	3,6	;RP1=0, select bank0
  1594  15BC  100D               	bcf	13,0	;volatile
  1595  15BD                     l2579:
  1596                           
  1597                           ;main.c: 187:     PORTEbits.RE0 = 1;
  1598  15BD  1409               	bsf	9,0	;volatile
  1599  15BE                     l2581:
  1600                           
  1601                           ;main.c: 188:     PORTEbits.RE1 = 1;
  1602  15BE  1489               	bsf	9,1	;volatile
  1603  15BF                     l2583:
  1604                           
  1605                           ;main.c: 191:     T1CON = 0x00;
  1606  15BF  0190               	clrf	16	;volatile
  1607  15C0                     l2585:
  1608                           
  1609                           ;main.c: 192:     TMR1H = 0x00;;
  1610  15C0  018F               	clrf	15	;volatile
  1611  15C1                     l2587:
  1612                           
  1613                           ;main.c: 193:     TMR1L = 0x00;;
  1614  15C1  018E               	clrf	14	;volatile
  1615  15C2                     l2589:
  1616                           
  1617                           ;main.c: 196:      CCP2CON = 0B00000101;
  1618  15C2  3005               	movlw	5
  1619  15C3  009D               	movwf	29	;volatile
  1620  15C4                     l2591:
  1621                           
  1622                           ;main.c: 199:     CCP1CON = 0B00001100;
  1623  15C4  300C               	movlw	12
  1624  15C5  0097               	movwf	23	;volatile
  1625  15C6                     l2593:
  1626                           
  1627                           ;main.c: 201:     T2CON = 0x4E;
  1628  15C6  304E               	movlw	78
  1629  15C7  0092               	movwf	18	;volatile
  1630  15C8                     l2595:
  1631                           
  1632                           ;main.c: 202:     PR2 = 250;
  1633  15C8  30FA               	movlw	250
  1634  15C9  1683               	bsf	3,5	;RP0=1, select bank1
  1635  15CA  1303               	bcf	3,6	;RP1=0, select bank1
  1636  15CB  0092               	movwf	18	;volatile
  1637  15CC                     l2597:
  1638                           
  1639                           ;main.c: 204:      I2C_Slave_Init(0x70);
  1640  15CC  3070               	movlw	112
  1641  15CD  160A  118A  2562  160A  118A  	fcall	_I2C_Slave_Init
  1642  15D2                     l145:
  1643  15D2  0008               	return
  1644  15D3                     __end_of_setup:
  1645                           
  1646                           	psect	text2
  1647  1562                     __ptext2:	
  1648 ;; *************** function _I2C_Slave_Init *****************
  1649 ;; Defined at:
  1650 ;;		line 93 in file "I2C.c"
  1651 ;; Parameters:    Size  Location     Type
  1652 ;;  address         1    wreg     unsigned char 
  1653 ;; Auto vars:     Size  Location     Type
  1654 ;;  address         1    3[COMMON] unsigned char 
  1655 ;; Return value:  Size  Location     Type
  1656 ;;                  1    wreg      void 
  1657 ;; Registers used:
  1658 ;;		wreg
  1659 ;; Tracked objects:
  1660 ;;		On entry : 0/0
  1661 ;;		On exit  : 0/0
  1662 ;;		Unchanged: 0/0
  1663 ;; Data sizes:     COMMON   BANK0   BANK1   BANK3   BANK2
  1664 ;;      Params:         0       0       0       0       0
  1665 ;;      Locals:         1       0       0       0       0
  1666 ;;      Temps:          0       0       0       0       0
  1667 ;;      Totals:         1       0       0       0       0
  1668 ;;Total ram usage:        1 bytes
  1669 ;; Hardware stack levels used:    1
  1670 ;; Hardware stack levels required when called:    1
  1671 ;; This function calls:
  1672 ;;		Nothing
  1673 ;; This function is called by:
  1674 ;;		_setup
  1675 ;; This function uses a non-reentrant model
  1676 ;;
  1677                           
  1678                           
  1679                           ;psect for function _I2C_Slave_Init
  1680  1562                     _I2C_Slave_Init:
  1681                           
  1682                           ;incstack = 0
  1683                           ; Regs used in _I2C_Slave_Init: [wreg]
  1684                           ;I2C_Slave_Init@address stored from wreg
  1685  1562  00F3               	movwf	I2C_Slave_Init@address
  1686  1563                     l2109:
  1687                           
  1688                           ;I2C.c: 93: void I2C_Slave_Init(uint8_t address);I2C.c: 94: {;I2C.c: 95:     SSPADD = ad
      +                          dress;
  1689  1563  0873               	movf	I2C_Slave_Init@address,w
  1690  1564  1683               	bsf	3,5	;RP0=1, select bank1
  1691  1565  1303               	bcf	3,6	;RP1=0, select bank1
  1692  1566  0093               	movwf	19	;volatile
  1693                           
  1694                           ;I2C.c: 96:     SSPCON = 0x36;
  1695  1567  3036               	movlw	54
  1696  1568  1283               	bcf	3,5	;RP0=0, select bank0
  1697  1569  1303               	bcf	3,6	;RP1=0, select bank0
  1698  156A  0094               	movwf	20	;volatile
  1699                           
  1700                           ;I2C.c: 97:     SSPSTAT = 0x80;
  1701  156B  3080               	movlw	128
  1702  156C  1683               	bsf	3,5	;RP0=1, select bank1
  1703  156D  1303               	bcf	3,6	;RP1=0, select bank1
  1704  156E  0094               	movwf	20	;volatile
  1705                           
  1706                           ;I2C.c: 98:     SSPCON2 = 0x01;
  1707  156F  3001               	movlw	1
  1708  1570  0091               	movwf	17	;volatile
  1709  1571                     l2111:
  1710                           
  1711                           ;I2C.c: 99:     TRISC3 = 1;
  1712  1571  1587               	bsf	7,3	;volatile
  1713  1572                     l2113:
  1714                           
  1715                           ;I2C.c: 100:     TRISC4 = 1;
  1716  1572  1607               	bsf	7,4	;volatile
  1717  1573                     l2115:
  1718                           
  1719                           ;I2C.c: 101:     GIE = 1;
  1720  1573  178B               	bsf	11,7	;volatile
  1721  1574                     l2117:
  1722                           
  1723                           ;I2C.c: 102:     PEIE = 1;
  1724  1574  170B               	bsf	11,6	;volatile
  1725  1575                     l2119:
  1726                           
  1727                           ;I2C.c: 103:     SSPIF = 0;
  1728  1575  1283               	bcf	3,5	;RP0=0, select bank0
  1729  1576  1303               	bcf	3,6	;RP1=0, select bank0
  1730  1577  118C               	bcf	12,3	;volatile
  1731  1578                     l2121:
  1732                           
  1733                           ;I2C.c: 104:     SSPIE = 1;
  1734  1578  1683               	bsf	3,5	;RP0=1, select bank1
  1735  1579  1303               	bcf	3,6	;RP1=0, select bank1
  1736  157A  158C               	bsf	12,3	;volatile
  1737  157B                     l230:
  1738  157B  0008               	return
  1739  157C                     __end_of_I2C_Slave_Init:
  1740                           
  1741                           	psect	text3
  1742  0022                     __ptext3:	
  1743 ;; *************** function _floattostr_ *****************
  1744 ;; Defined at:
  1745 ;;		line 226 in file "main.c"
  1746 ;; Parameters:    Size  Location     Type
  1747 ;;  numero_         4   12[BANK1 ] float 
  1748 ;;  cadena_         1   16[BANK1 ] PTR unsigned char 
  1749 ;;		 -> texto(20), 
  1750 ;;  decimales_      1   17[BANK1 ] unsigned char 
  1751 ;; Auto vars:     Size  Location     Type
  1752 ;;  tempo_float     4   20[BANK1 ] unsigned char 
  1753 ;;  largo_entera    2   28[BANK1 ] int 
  1754 ;;  cont_for        2   26[BANK1 ] int 
  1755 ;;  largo_n         2   24[BANK1 ] int 
  1756 ;;  tempo_int       2   18[BANK1 ] int 
  1757 ;; Return value:  Size  Location     Type
  1758 ;;                  1    wreg      void 
  1759 ;; Registers used:
  1760 ;;		wreg, fsr0l, fsr0h, status,2, status,0, btemp+1, pclath, cstack
  1761 ;; Tracked objects:
  1762 ;;		On entry : 0/0
  1763 ;;		On exit  : 0/0
  1764 ;;		Unchanged: 0/0
  1765 ;; Data sizes:     COMMON   BANK0   BANK1   BANK3   BANK2
  1766 ;;      Params:         0       0       6       0       0
  1767 ;;      Locals:         0       0      12       0       0
  1768 ;;      Temps:          1       0       0       0       0
  1769 ;;      Totals:         1       0      18       0       0
  1770 ;;Total ram usage:       19 bytes
  1771 ;; Hardware stack levels used:    1
  1772 ;; Hardware stack levels required when called:    3
  1773 ;; This function calls:
  1774 ;;		___fladd
  1775 ;;		___fldiv
  1776 ;;		___flge
  1777 ;;		___flmul
  1778 ;;		___flneg
  1779 ;;		___flsub
  1780 ;;		___fltol
  1781 ;;		___xxtofl
  1782 ;; This function is called by:
  1783 ;;		_main
  1784 ;; This function uses a non-reentrant model
  1785 ;;
  1786                           
  1787                           
  1788                           ;psect for function _floattostr_
  1789  0022                     _floattostr_:
  1790  0022                     l3169:	
  1791                           ;incstack = 0
  1792                           ; Regs used in _floattostr_: [wreg-fsr0h+status,2+status,0+btemp+1+pclath+cstack]
  1793                           
  1794                           
  1795                           ;main.c: 228: int largo_entera,largo_n,cont_for,tempo_int;;main.c: 229: double tempo_flo
      +                          at;;main.c: 231: largo_n = decimales_+1;
  1796  0022  1683               	bsf	3,5	;RP0=1, select bank1
  1797  0023  1303               	bcf	3,6	;RP1=0, select bank1
  1798  0024  0831               	movf	floattostr_@decimales_^(0+128),w
  1799  0025  3E01               	addlw	1
  1800  0026  00B8               	movwf	floattostr_@largo_n^(0+128)
  1801  0027  3000               	movlw	0
  1802  0028  1803               	skipnc
  1803  0029  3001               	movlw	1
  1804  002A  00B9               	movwf	(floattostr_@largo_n^(0+128)+1)
  1805  002B                     l3171:
  1806                           
  1807                           ;main.c: 232: largo_entera = 0;
  1808  002B  01BC               	clrf	floattostr_@largo_entera^(0+128)
  1809  002C  01BD               	clrf	(floattostr_@largo_entera+1)^(0+128)
  1810  002D                     l3173:
  1811                           
  1812                           ;main.c: 234: if ( numero_ < 0)
  1813  002D  082F               	movf	(floattostr_@numero_+3)^(0+128),w
  1814  002E  1283               	bcf	3,5	;RP0=0, select bank0
  1815  002F  1303               	bcf	3,6	;RP1=0, select bank0
  1816  0030  00A3               	movwf	___flge@ff1+3
  1817  0031  1683               	bsf	3,5	;RP0=1, select bank1
  1818  0032  1303               	bcf	3,6	;RP1=0, select bank1
  1819  0033  082E               	movf	(floattostr_@numero_+2)^(0+128),w
  1820  0034  1283               	bcf	3,5	;RP0=0, select bank0
  1821  0035  1303               	bcf	3,6	;RP1=0, select bank0
  1822  0036  00A2               	movwf	___flge@ff1+2
  1823  0037  1683               	bsf	3,5	;RP0=1, select bank1
  1824  0038  1303               	bcf	3,6	;RP1=0, select bank1
  1825  0039  082D               	movf	(floattostr_@numero_+1)^(0+128),w
  1826  003A  1283               	bcf	3,5	;RP0=0, select bank0
  1827  003B  1303               	bcf	3,6	;RP1=0, select bank0
  1828  003C  00A1               	movwf	___flge@ff1+1
  1829  003D  1683               	bsf	3,5	;RP0=1, select bank1
  1830  003E  1303               	bcf	3,6	;RP1=0, select bank1
  1831  003F  082C               	movf	floattostr_@numero_^(0+128),w
  1832  0040  1283               	bcf	3,5	;RP0=0, select bank0
  1833  0041  1303               	bcf	3,6	;RP1=0, select bank0
  1834  0042  00A0               	movwf	___flge@ff1
  1835  0043  3000               	movlw	0
  1836  0044  00A7               	movwf	___flge@ff2+3
  1837  0045  3000               	movlw	0
  1838  0046  00A6               	movwf	___flge@ff2+2
  1839  0047  3000               	movlw	0
  1840  0048  00A5               	movwf	___flge@ff2+1
  1841  0049  3000               	movlw	0
  1842  004A  00A4               	movwf	___flge@ff2
  1843  004B  120A  158A  205C  120A  118A  	fcall	___flge
  1844  0050  1803               	btfsc	3,0
  1845  0051  2853               	goto	u4651
  1846  0052  2854               	goto	u4650
  1847  0053                     u4651:
  1848  0053  2878               	goto	l3181
  1849  0054                     u4650:
  1850  0054                     l3175:
  1851                           
  1852                           ;main.c: 235:   {;main.c: 236:   *cadena_++ = '-';
  1853  0054  302D               	movlw	45
  1854  0055  00F7               	movwf	??_floattostr_
  1855  0056  1683               	bsf	3,5	;RP0=1, select bank1
  1856  0057  1303               	bcf	3,6	;RP1=0, select bank1
  1857  0058  0830               	movf	floattostr_@cadena_^(0+128),w
  1858  0059  0084               	movwf	4
  1859  005A  0877               	movf	??_floattostr_,w
  1860  005B  1383               	bcf	3,7	;select IRP bank0
  1861  005C  0080               	movwf	0
  1862  005D                     l3177:
  1863  005D  3001               	movlw	1
  1864  005E  00F7               	movwf	??_floattostr_
  1865  005F  0877               	movf	??_floattostr_,w
  1866  0060  07B0               	addwf	floattostr_@cadena_^(0+128),f
  1867  0061                     l3179:
  1868                           
  1869                           ;main.c: 237:   numero_ = -numero_;
  1870  0061  082F               	movf	(floattostr_@numero_+3)^(0+128),w
  1871  0062  00F6               	movwf	___flneg@f1+3
  1872  0063  082E               	movf	(floattostr_@numero_+2)^(0+128),w
  1873  0064  00F5               	movwf	___flneg@f1+2
  1874  0065  082D               	movf	(floattostr_@numero_+1)^(0+128),w
  1875  0066  00F4               	movwf	___flneg@f1+1
  1876  0067  082C               	movf	floattostr_@numero_^(0+128),w
  1877  0068  00F3               	movwf	___flneg@f1
  1878  0069  160A  118A  2530  120A  118A  	fcall	___flneg
  1879  006E  0876               	movf	?___flneg+3,w
  1880  006F  1683               	bsf	3,5	;RP0=1, select bank1
  1881  0070  1303               	bcf	3,6	;RP1=0, select bank1
  1882  0071  00AF               	movwf	(floattostr_@numero_+3)^(0+128)
  1883  0072  0875               	movf	?___flneg+2,w
  1884  0073  00AE               	movwf	(floattostr_@numero_+2)^(0+128)
  1885  0074  0874               	movf	?___flneg+1,w
  1886  0075  00AD               	movwf	(floattostr_@numero_+1)^(0+128)
  1887  0076  0873               	movf	?___flneg,w
  1888  0077  00AC               	movwf	floattostr_@numero_^(0+128)
  1889  0078                     l3181:
  1890                           
  1891                           ;main.c: 240: if (numero_ > 0.0) while (numero_ < 1.0)
  1892  0078  3000               	movlw	0
  1893  0079  1283               	bcf	3,5	;RP0=0, select bank0
  1894  007A  1303               	bcf	3,6	;RP1=0, select bank0
  1895  007B  00A3               	movwf	___flge@ff1+3
  1896  007C  3000               	movlw	0
  1897  007D  00A2               	movwf	___flge@ff1+2
  1898  007E  3000               	movlw	0
  1899  007F  00A1               	movwf	___flge@ff1+1
  1900  0080  3000               	movlw	0
  1901  0081  00A0               	movwf	___flge@ff1
  1902  0082  1683               	bsf	3,5	;RP0=1, select bank1
  1903  0083  1303               	bcf	3,6	;RP1=0, select bank1
  1904  0084  082F               	movf	(floattostr_@numero_+3)^(0+128),w
  1905  0085  1283               	bcf	3,5	;RP0=0, select bank0
  1906  0086  1303               	bcf	3,6	;RP1=0, select bank0
  1907  0087  00A7               	movwf	___flge@ff2+3
  1908  0088  1683               	bsf	3,5	;RP0=1, select bank1
  1909  0089  1303               	bcf	3,6	;RP1=0, select bank1
  1910  008A  082E               	movf	(floattostr_@numero_+2)^(0+128),w
  1911  008B  1283               	bcf	3,5	;RP0=0, select bank0
  1912  008C  1303               	bcf	3,6	;RP1=0, select bank0
  1913  008D  00A6               	movwf	___flge@ff2+2
  1914  008E  1683               	bsf	3,5	;RP0=1, select bank1
  1915  008F  1303               	bcf	3,6	;RP1=0, select bank1
  1916  0090  082D               	movf	(floattostr_@numero_+1)^(0+128),w
  1917  0091  1283               	bcf	3,5	;RP0=0, select bank0
  1918  0092  1303               	bcf	3,6	;RP1=0, select bank0
  1919  0093  00A5               	movwf	___flge@ff2+1
  1920  0094  1683               	bsf	3,5	;RP0=1, select bank1
  1921  0095  1303               	bcf	3,6	;RP1=0, select bank1
  1922  0096  082C               	movf	floattostr_@numero_^(0+128),w
  1923  0097  1283               	bcf	3,5	;RP0=0, select bank0
  1924  0098  1303               	bcf	3,6	;RP1=0, select bank0
  1925  0099  00A4               	movwf	___flge@ff2
  1926  009A  120A  158A  205C  120A  118A  	fcall	___flge
  1927  009F  1803               	btfsc	3,0
  1928  00A0  28A2               	goto	u4661
  1929  00A1  28A3               	goto	u4660
  1930  00A2                     u4661:
  1931  00A2  2958               	goto	l3195
  1932  00A3                     u4660:
  1933  00A3  28E9               	goto	l3189
  1934  00A4                     l3185:
  1935                           
  1936                           ;main.c: 241:   {;main.c: 242:   numero_ =numero_* 10.0;
  1937  00A4  3041               	movlw	65
  1938  00A5  1283               	bcf	3,5	;RP0=0, select bank0
  1939  00A6  1303               	bcf	3,6	;RP1=0, select bank0
  1940  00A7  00AD               	movwf	___flmul@b+3
  1941  00A8  3020               	movlw	32
  1942  00A9  00AC               	movwf	___flmul@b+2
  1943  00AA  3000               	movlw	0
  1944  00AB  00AB               	movwf	___flmul@b+1
  1945  00AC  3000               	movlw	0
  1946  00AD  00AA               	movwf	___flmul@b
  1947  00AE  1683               	bsf	3,5	;RP0=1, select bank1
  1948  00AF  1303               	bcf	3,6	;RP1=0, select bank1
  1949  00B0  082F               	movf	(floattostr_@numero_+3)^(0+128),w
  1950  00B1  1283               	bcf	3,5	;RP0=0, select bank0
  1951  00B2  1303               	bcf	3,6	;RP1=0, select bank0
  1952  00B3  00B1               	movwf	___flmul@a+3
  1953  00B4  1683               	bsf	3,5	;RP0=1, select bank1
  1954  00B5  1303               	bcf	3,6	;RP1=0, select bank1
  1955  00B6  082E               	movf	(floattostr_@numero_+2)^(0+128),w
  1956  00B7  1283               	bcf	3,5	;RP0=0, select bank0
  1957  00B8  1303               	bcf	3,6	;RP1=0, select bank0
  1958  00B9  00B0               	movwf	___flmul@a+2
  1959  00BA  1683               	bsf	3,5	;RP0=1, select bank1
  1960  00BB  1303               	bcf	3,6	;RP1=0, select bank1
  1961  00BC  082D               	movf	(floattostr_@numero_+1)^(0+128),w
  1962  00BD  1283               	bcf	3,5	;RP0=0, select bank0
  1963  00BE  1303               	bcf	3,6	;RP1=0, select bank0
  1964  00BF  00AF               	movwf	___flmul@a+1
  1965  00C0  1683               	bsf	3,5	;RP0=1, select bank1
  1966  00C1  1303               	bcf	3,6	;RP1=0, select bank1
  1967  00C2  082C               	movf	floattostr_@numero_^(0+128),w
  1968  00C3  1283               	bcf	3,5	;RP0=0, select bank0
  1969  00C4  1303               	bcf	3,6	;RP1=0, select bank0
  1970  00C5  00AE               	movwf	___flmul@a
  1971  00C6  120A  118A  23B0  120A  118A  	fcall	___flmul
  1972  00CB  1283               	bcf	3,5	;RP0=0, select bank0
  1973  00CC  1303               	bcf	3,6	;RP1=0, select bank0
  1974  00CD  082D               	movf	?___flmul+3,w
  1975  00CE  1683               	bsf	3,5	;RP0=1, select bank1
  1976  00CF  1303               	bcf	3,6	;RP1=0, select bank1
  1977  00D0  00AF               	movwf	(floattostr_@numero_+3)^(0+128)
  1978  00D1  1283               	bcf	3,5	;RP0=0, select bank0
  1979  00D2  1303               	bcf	3,6	;RP1=0, select bank0
  1980  00D3  082C               	movf	?___flmul+2,w
  1981  00D4  1683               	bsf	3,5	;RP0=1, select bank1
  1982  00D5  1303               	bcf	3,6	;RP1=0, select bank1
  1983  00D6  00AE               	movwf	(floattostr_@numero_+2)^(0+128)
  1984  00D7  1283               	bcf	3,5	;RP0=0, select bank0
  1985  00D8  1303               	bcf	3,6	;RP1=0, select bank0
  1986  00D9  082B               	movf	?___flmul+1,w
  1987  00DA  1683               	bsf	3,5	;RP0=1, select bank1
  1988  00DB  1303               	bcf	3,6	;RP1=0, select bank1
  1989  00DC  00AD               	movwf	(floattostr_@numero_+1)^(0+128)
  1990  00DD  1283               	bcf	3,5	;RP0=0, select bank0
  1991  00DE  1303               	bcf	3,6	;RP1=0, select bank0
  1992  00DF  082A               	movf	?___flmul,w
  1993  00E0  1683               	bsf	3,5	;RP0=1, select bank1
  1994  00E1  1303               	bcf	3,6	;RP1=0, select bank1
  1995  00E2  00AC               	movwf	floattostr_@numero_^(0+128)
  1996  00E3                     l3187:
  1997                           
  1998                           ;main.c: 243:   largo_entera--;
  1999  00E3  30FF               	movlw	255
  2000  00E4  07BC               	addwf	floattostr_@largo_entera^(0+128),f
  2001  00E5  1803               	skipnc
  2002  00E6  0ABD               	incf	(floattostr_@largo_entera+1)^(0+128),f
  2003  00E7  30FF               	movlw	255
  2004  00E8  07BD               	addwf	(floattostr_@largo_entera+1)^(0+128),f
  2005  00E9                     l3189:
  2006                           
  2007                           ;main.c: 240: if (numero_ > 0.0) while (numero_ < 1.0)
  2008  00E9  1683               	bsf	3,5	;RP0=1, select bank1
  2009  00EA  1303               	bcf	3,6	;RP1=0, select bank1
  2010  00EB  082F               	movf	(floattostr_@numero_+3)^(0+128),w
  2011  00EC  1283               	bcf	3,5	;RP0=0, select bank0
  2012  00ED  1303               	bcf	3,6	;RP1=0, select bank0
  2013  00EE  00A3               	movwf	___flge@ff1+3
  2014  00EF  1683               	bsf	3,5	;RP0=1, select bank1
  2015  00F0  1303               	bcf	3,6	;RP1=0, select bank1
  2016  00F1  082E               	movf	(floattostr_@numero_+2)^(0+128),w
  2017  00F2  1283               	bcf	3,5	;RP0=0, select bank0
  2018  00F3  1303               	bcf	3,6	;RP1=0, select bank0
  2019  00F4  00A2               	movwf	___flge@ff1+2
  2020  00F5  1683               	bsf	3,5	;RP0=1, select bank1
  2021  00F6  1303               	bcf	3,6	;RP1=0, select bank1
  2022  00F7  082D               	movf	(floattostr_@numero_+1)^(0+128),w
  2023  00F8  1283               	bcf	3,5	;RP0=0, select bank0
  2024  00F9  1303               	bcf	3,6	;RP1=0, select bank0
  2025  00FA  00A1               	movwf	___flge@ff1+1
  2026  00FB  1683               	bsf	3,5	;RP0=1, select bank1
  2027  00FC  1303               	bcf	3,6	;RP1=0, select bank1
  2028  00FD  082C               	movf	floattostr_@numero_^(0+128),w
  2029  00FE  1283               	bcf	3,5	;RP0=0, select bank0
  2030  00FF  1303               	bcf	3,6	;RP1=0, select bank0
  2031  0100  00A0               	movwf	___flge@ff1
  2032  0101  303F               	movlw	63
  2033  0102  00A7               	movwf	___flge@ff2+3
  2034  0103  3080               	movlw	128
  2035  0104  00A6               	movwf	___flge@ff2+2
  2036  0105  3000               	movlw	0
  2037  0106  00A5               	movwf	___flge@ff2+1
  2038  0107  3000               	movlw	0
  2039  0108  00A4               	movwf	___flge@ff2
  2040  0109  120A  158A  205C  120A  118A  	fcall	___flge
  2041  010E  1C03               	btfss	3,0
  2042  010F  2911               	goto	u4671
  2043  0110  2912               	goto	u4670
  2044  0111                     u4671:
  2045  0111  28A4               	goto	l3185
  2046  0112                     u4670:
  2047  0112  2958               	goto	l3195
  2048  0113                     l3191:
  2049                           
  2050                           ;main.c: 248:   {;main.c: 249:   numero_ = numero_/10.0;
  2051  0113  3041               	movlw	65
  2052  0114  1283               	bcf	3,5	;RP0=0, select bank0
  2053  0115  1303               	bcf	3,6	;RP1=0, select bank0
  2054  0116  00C7               	movwf	___fldiv@a+3
  2055  0117  3020               	movlw	32
  2056  0118  00C6               	movwf	___fldiv@a+2
  2057  0119  3000               	movlw	0
  2058  011A  00C5               	movwf	___fldiv@a+1
  2059  011B  3000               	movlw	0
  2060  011C  00C4               	movwf	___fldiv@a
  2061  011D  1683               	bsf	3,5	;RP0=1, select bank1
  2062  011E  1303               	bcf	3,6	;RP1=0, select bank1
  2063  011F  082F               	movf	(floattostr_@numero_+3)^(0+128),w
  2064  0120  1283               	bcf	3,5	;RP0=0, select bank0
  2065  0121  1303               	bcf	3,6	;RP1=0, select bank0
  2066  0122  00CB               	movwf	___fldiv@b+3
  2067  0123  1683               	bsf	3,5	;RP0=1, select bank1
  2068  0124  1303               	bcf	3,6	;RP1=0, select bank1
  2069  0125  082E               	movf	(floattostr_@numero_+2)^(0+128),w
  2070  0126  1283               	bcf	3,5	;RP0=0, select bank0
  2071  0127  1303               	bcf	3,6	;RP1=0, select bank0
  2072  0128  00CA               	movwf	___fldiv@b+2
  2073  0129  1683               	bsf	3,5	;RP0=1, select bank1
  2074  012A  1303               	bcf	3,6	;RP1=0, select bank1
  2075  012B  082D               	movf	(floattostr_@numero_+1)^(0+128),w
  2076  012C  1283               	bcf	3,5	;RP0=0, select bank0
  2077  012D  1303               	bcf	3,6	;RP1=0, select bank0
  2078  012E  00C9               	movwf	___fldiv@b+1
  2079  012F  1683               	bsf	3,5	;RP0=1, select bank1
  2080  0130  1303               	bcf	3,6	;RP1=0, select bank1
  2081  0131  082C               	movf	floattostr_@numero_^(0+128),w
  2082  0132  1283               	bcf	3,5	;RP0=0, select bank0
  2083  0133  1303               	bcf	3,6	;RP1=0, select bank0
  2084  0134  00C8               	movwf	___fldiv@b
  2085  0135  120A  158A  2100  120A  118A  	fcall	___fldiv
  2086  013A  1283               	bcf	3,5	;RP0=0, select bank0
  2087  013B  1303               	bcf	3,6	;RP1=0, select bank0
  2088  013C  0847               	movf	?___fldiv+3,w
  2089  013D  1683               	bsf	3,5	;RP0=1, select bank1
  2090  013E  1303               	bcf	3,6	;RP1=0, select bank1
  2091  013F  00AF               	movwf	(floattostr_@numero_+3)^(0+128)
  2092  0140  1283               	bcf	3,5	;RP0=0, select bank0
  2093  0141  1303               	bcf	3,6	;RP1=0, select bank0
  2094  0142  0846               	movf	?___fldiv+2,w
  2095  0143  1683               	bsf	3,5	;RP0=1, select bank1
  2096  0144  1303               	bcf	3,6	;RP1=0, select bank1
  2097  0145  00AE               	movwf	(floattostr_@numero_+2)^(0+128)
  2098  0146  1283               	bcf	3,5	;RP0=0, select bank0
  2099  0147  1303               	bcf	3,6	;RP1=0, select bank0
  2100  0148  0845               	movf	?___fldiv+1,w
  2101  0149  1683               	bsf	3,5	;RP0=1, select bank1
  2102  014A  1303               	bcf	3,6	;RP1=0, select bank1
  2103  014B  00AD               	movwf	(floattostr_@numero_+1)^(0+128)
  2104  014C  1283               	bcf	3,5	;RP0=0, select bank0
  2105  014D  1303               	bcf	3,6	;RP1=0, select bank0
  2106  014E  0844               	movf	?___fldiv,w
  2107  014F  1683               	bsf	3,5	;RP0=1, select bank1
  2108  0150  1303               	bcf	3,6	;RP1=0, select bank1
  2109  0151  00AC               	movwf	floattostr_@numero_^(0+128)
  2110  0152                     l3193:
  2111                           
  2112                           ;main.c: 250:   largo_entera++;
  2113  0152  3001               	movlw	1
  2114  0153  07BC               	addwf	floattostr_@largo_entera^(0+128),f
  2115  0154  1803               	skipnc
  2116  0155  0ABD               	incf	(floattostr_@largo_entera+1)^(0+128),f
  2117  0156  3000               	movlw	0
  2118  0157  07BD               	addwf	(floattostr_@largo_entera+1)^(0+128),f
  2119  0158                     l3195:
  2120                           
  2121                           ;main.c: 247: while (numero_ >= 10.0)
  2122  0158  1683               	bsf	3,5	;RP0=1, select bank1
  2123  0159  1303               	bcf	3,6	;RP1=0, select bank1
  2124  015A  082F               	movf	(floattostr_@numero_+3)^(0+128),w
  2125  015B  1283               	bcf	3,5	;RP0=0, select bank0
  2126  015C  1303               	bcf	3,6	;RP1=0, select bank0
  2127  015D  00A3               	movwf	___flge@ff1+3
  2128  015E  1683               	bsf	3,5	;RP0=1, select bank1
  2129  015F  1303               	bcf	3,6	;RP1=0, select bank1
  2130  0160  082E               	movf	(floattostr_@numero_+2)^(0+128),w
  2131  0161  1283               	bcf	3,5	;RP0=0, select bank0
  2132  0162  1303               	bcf	3,6	;RP1=0, select bank0
  2133  0163  00A2               	movwf	___flge@ff1+2
  2134  0164  1683               	bsf	3,5	;RP0=1, select bank1
  2135  0165  1303               	bcf	3,6	;RP1=0, select bank1
  2136  0166  082D               	movf	(floattostr_@numero_+1)^(0+128),w
  2137  0167  1283               	bcf	3,5	;RP0=0, select bank0
  2138  0168  1303               	bcf	3,6	;RP1=0, select bank0
  2139  0169  00A1               	movwf	___flge@ff1+1
  2140  016A  1683               	bsf	3,5	;RP0=1, select bank1
  2141  016B  1303               	bcf	3,6	;RP1=0, select bank1
  2142  016C  082C               	movf	floattostr_@numero_^(0+128),w
  2143  016D  1283               	bcf	3,5	;RP0=0, select bank0
  2144  016E  1303               	bcf	3,6	;RP1=0, select bank0
  2145  016F  00A0               	movwf	___flge@ff1
  2146  0170  3041               	movlw	65
  2147  0171  00A7               	movwf	___flge@ff2+3
  2148  0172  3020               	movlw	32
  2149  0173  00A6               	movwf	___flge@ff2+2
  2150  0174  3000               	movlw	0
  2151  0175  00A5               	movwf	___flge@ff2+1
  2152  0176  3000               	movlw	0
  2153  0177  00A4               	movwf	___flge@ff2
  2154  0178  120A  158A  205C  120A  118A  	fcall	___flge
  2155  017D  1803               	btfsc	3,0
  2156  017E  2980               	goto	u4681
  2157  017F  2981               	goto	u4680
  2158  0180                     u4681:
  2159  0180  2913               	goto	l3191
  2160  0181                     u4680:
  2161  0181                     l3197:
  2162                           
  2163                           ;main.c: 252:  largo_n = largo_n+largo_entera;
  2164  0181  1683               	bsf	3,5	;RP0=1, select bank1
  2165  0182  1303               	bcf	3,6	;RP1=0, select bank1
  2166  0183  083C               	movf	floattostr_@largo_entera^(0+128),w
  2167  0184  0738               	addwf	floattostr_@largo_n^(0+128),w
  2168  0185  00B8               	movwf	floattostr_@largo_n^(0+128)
  2169  0186  083D               	movf	(floattostr_@largo_entera+1)^(0+128),w
  2170  0187  1803               	skipnc
  2171  0188  0A3D               	incf	(floattostr_@largo_entera+1)^(0+128),w
  2172  0189  0739               	addwf	(floattostr_@largo_n+1)^(0+128),w
  2173  018A  00B9               	movwf	(floattostr_@largo_n+1)^(0+128)
  2174  018B                     l3199:
  2175                           
  2176                           ;main.c: 256: for (tempo_float = cont_for = 1; cont_for < largo_n; cont_for++)
  2177  018B  3001               	movlw	1
  2178  018C  00BA               	movwf	floattostr_@cont_for^(0+128)
  2179  018D  3000               	movlw	0
  2180  018E  00BB               	movwf	(floattostr_@cont_for^(0+128)+1)
  2181  018F  083A               	movf	floattostr_@cont_for^(0+128),w
  2182  0190  00F3               	movwf	___xxtofl@val
  2183  0191  083B               	movf	(floattostr_@cont_for+1)^(0+128),w
  2184  0192  00F4               	movwf	___xxtofl@val+1
  2185  0193  3000               	movlw	0
  2186  0194  1BF4               	btfsc	___xxtofl@val+1,7
  2187  0195  30FF               	movlw	255
  2188  0196  00F5               	movwf	___xxtofl@val+2
  2189  0197  00F6               	movwf	___xxtofl@val+3
  2190  0198  3001               	movlw	1
  2191  0199  120A  118A  2711  120A  118A  	fcall	___xxtofl
  2192  019E  0876               	movf	?___xxtofl+3,w
  2193  019F  1683               	bsf	3,5	;RP0=1, select bank1
  2194  01A0  1303               	bcf	3,6	;RP1=0, select bank1
  2195  01A1  00B7               	movwf	(floattostr_@tempo_float+3)^(0+128)
  2196  01A2  0875               	movf	?___xxtofl+2,w
  2197  01A3  00B6               	movwf	(floattostr_@tempo_float+2)^(0+128)
  2198  01A4  0874               	movf	?___xxtofl+1,w
  2199  01A5  00B5               	movwf	(floattostr_@tempo_float+1)^(0+128)
  2200  01A6  0873               	movf	?___xxtofl,w
  2201  01A7  00B4               	movwf	floattostr_@tempo_float^(0+128)
  2202  01A8  29EE               	goto	l3205
  2203  01A9                     l3201:
  2204                           
  2205                           ;main.c: 257:   tempo_float = tempo_float/10.0;
  2206  01A9  3041               	movlw	65
  2207  01AA  1283               	bcf	3,5	;RP0=0, select bank0
  2208  01AB  1303               	bcf	3,6	;RP1=0, select bank0
  2209  01AC  00C7               	movwf	___fldiv@a+3
  2210  01AD  3020               	movlw	32
  2211  01AE  00C6               	movwf	___fldiv@a+2
  2212  01AF  3000               	movlw	0
  2213  01B0  00C5               	movwf	___fldiv@a+1
  2214  01B1  3000               	movlw	0
  2215  01B2  00C4               	movwf	___fldiv@a
  2216  01B3  1683               	bsf	3,5	;RP0=1, select bank1
  2217  01B4  1303               	bcf	3,6	;RP1=0, select bank1
  2218  01B5  0837               	movf	(floattostr_@tempo_float+3)^(0+128),w
  2219  01B6  1283               	bcf	3,5	;RP0=0, select bank0
  2220  01B7  1303               	bcf	3,6	;RP1=0, select bank0
  2221  01B8  00CB               	movwf	___fldiv@b+3
  2222  01B9  1683               	bsf	3,5	;RP0=1, select bank1
  2223  01BA  1303               	bcf	3,6	;RP1=0, select bank1
  2224  01BB  0836               	movf	(floattostr_@tempo_float+2)^(0+128),w
  2225  01BC  1283               	bcf	3,5	;RP0=0, select bank0
  2226  01BD  1303               	bcf	3,6	;RP1=0, select bank0
  2227  01BE  00CA               	movwf	___fldiv@b+2
  2228  01BF  1683               	bsf	3,5	;RP0=1, select bank1
  2229  01C0  1303               	bcf	3,6	;RP1=0, select bank1
  2230  01C1  0835               	movf	(floattostr_@tempo_float+1)^(0+128),w
  2231  01C2  1283               	bcf	3,5	;RP0=0, select bank0
  2232  01C3  1303               	bcf	3,6	;RP1=0, select bank0
  2233  01C4  00C9               	movwf	___fldiv@b+1
  2234  01C5  1683               	bsf	3,5	;RP0=1, select bank1
  2235  01C6  1303               	bcf	3,6	;RP1=0, select bank1
  2236  01C7  0834               	movf	floattostr_@tempo_float^(0+128),w
  2237  01C8  1283               	bcf	3,5	;RP0=0, select bank0
  2238  01C9  1303               	bcf	3,6	;RP1=0, select bank0
  2239  01CA  00C8               	movwf	___fldiv@b
  2240  01CB  120A  158A  2100  120A  118A  	fcall	___fldiv
  2241  01D0  1283               	bcf	3,5	;RP0=0, select bank0
  2242  01D1  1303               	bcf	3,6	;RP1=0, select bank0
  2243  01D2  0847               	movf	?___fldiv+3,w
  2244  01D3  1683               	bsf	3,5	;RP0=1, select bank1
  2245  01D4  1303               	bcf	3,6	;RP1=0, select bank1
  2246  01D5  00B7               	movwf	(floattostr_@tempo_float+3)^(0+128)
  2247  01D6  1283               	bcf	3,5	;RP0=0, select bank0
  2248  01D7  1303               	bcf	3,6	;RP1=0, select bank0
  2249  01D8  0846               	movf	?___fldiv+2,w
  2250  01D9  1683               	bsf	3,5	;RP0=1, select bank1
  2251  01DA  1303               	bcf	3,6	;RP1=0, select bank1
  2252  01DB  00B6               	movwf	(floattostr_@tempo_float+2)^(0+128)
  2253  01DC  1283               	bcf	3,5	;RP0=0, select bank0
  2254  01DD  1303               	bcf	3,6	;RP1=0, select bank0
  2255  01DE  0845               	movf	?___fldiv+1,w
  2256  01DF  1683               	bsf	3,5	;RP0=1, select bank1
  2257  01E0  1303               	bcf	3,6	;RP1=0, select bank1
  2258  01E1  00B5               	movwf	(floattostr_@tempo_float+1)^(0+128)
  2259  01E2  1283               	bcf	3,5	;RP0=0, select bank0
  2260  01E3  1303               	bcf	3,6	;RP1=0, select bank0
  2261  01E4  0844               	movf	?___fldiv,w
  2262  01E5  1683               	bsf	3,5	;RP0=1, select bank1
  2263  01E6  1303               	bcf	3,6	;RP1=0, select bank1
  2264  01E7  00B4               	movwf	floattostr_@tempo_float^(0+128)
  2265  01E8                     l3203:
  2266  01E8  3001               	movlw	1
  2267  01E9  07BA               	addwf	floattostr_@cont_for^(0+128),f
  2268  01EA  1803               	skipnc
  2269  01EB  0ABB               	incf	(floattostr_@cont_for+1)^(0+128),f
  2270  01EC  3000               	movlw	0
  2271  01ED  07BB               	addwf	(floattostr_@cont_for+1)^(0+128),f
  2272  01EE                     l3205:
  2273  01EE  083B               	movf	(floattostr_@cont_for+1)^(0+128),w
  2274  01EF  3A80               	xorlw	128
  2275  01F0  00F7               	movwf	??_floattostr_
  2276  01F1  0839               	movf	(floattostr_@largo_n+1)^(0+128),w
  2277  01F2  3A80               	xorlw	128
  2278  01F3  0277               	subwf	??_floattostr_,w
  2279  01F4  1D03               	skipz
  2280  01F5  29F8               	goto	u4695
  2281  01F6  0838               	movf	floattostr_@largo_n^(0+128),w
  2282  01F7  023A               	subwf	floattostr_@cont_for^(0+128),w
  2283  01F8                     u4695:
  2284  01F8  1C03               	skipc
  2285  01F9  29FB               	goto	u4691
  2286  01FA  29FC               	goto	u4690
  2287  01FB                     u4691:
  2288  01FB  29A9               	goto	l3201
  2289  01FC                     u4690:
  2290  01FC                     l3207:
  2291                           
  2292                           ;main.c: 258: numero_ += tempo_float/2.0;
  2293  01FC  1683               	bsf	3,5	;RP0=1, select bank1
  2294  01FD  1303               	bcf	3,6	;RP1=0, select bank1
  2295  01FE  0837               	movf	(floattostr_@tempo_float+3)^(0+128),w
  2296  01FF  1283               	bcf	3,5	;RP0=0, select bank0
  2297  0200  1303               	bcf	3,6	;RP1=0, select bank0
  2298  0201  00CB               	movwf	___fldiv@b+3
  2299  0202  1683               	bsf	3,5	;RP0=1, select bank1
  2300  0203  1303               	bcf	3,6	;RP1=0, select bank1
  2301  0204  0836               	movf	(floattostr_@tempo_float+2)^(0+128),w
  2302  0205  1283               	bcf	3,5	;RP0=0, select bank0
  2303  0206  1303               	bcf	3,6	;RP1=0, select bank0
  2304  0207  00CA               	movwf	___fldiv@b+2
  2305  0208  1683               	bsf	3,5	;RP0=1, select bank1
  2306  0209  1303               	bcf	3,6	;RP1=0, select bank1
  2307  020A  0835               	movf	(floattostr_@tempo_float+1)^(0+128),w
  2308  020B  1283               	bcf	3,5	;RP0=0, select bank0
  2309  020C  1303               	bcf	3,6	;RP1=0, select bank0
  2310  020D  00C9               	movwf	___fldiv@b+1
  2311  020E  1683               	bsf	3,5	;RP0=1, select bank1
  2312  020F  1303               	bcf	3,6	;RP1=0, select bank1
  2313  0210  0834               	movf	floattostr_@tempo_float^(0+128),w
  2314  0211  1283               	bcf	3,5	;RP0=0, select bank0
  2315  0212  1303               	bcf	3,6	;RP1=0, select bank0
  2316  0213  00C8               	movwf	___fldiv@b
  2317  0214  3040               	movlw	64
  2318  0215  00C7               	movwf	___fldiv@a+3
  2319  0216  3000               	movlw	0
  2320  0217  00C6               	movwf	___fldiv@a+2
  2321  0218  3000               	movlw	0
  2322  0219  00C5               	movwf	___fldiv@a+1
  2323  021A  3000               	movlw	0
  2324  021B  00C4               	movwf	___fldiv@a
  2325  021C  120A  158A  2100  120A  118A  	fcall	___fldiv
  2326  0221  1283               	bcf	3,5	;RP0=0, select bank0
  2327  0222  1303               	bcf	3,6	;RP1=0, select bank0
  2328  0223  0847               	movf	?___fldiv+3,w
  2329  0224  00E1               	movwf	___fladd@b+3
  2330  0225  0846               	movf	?___fldiv+2,w
  2331  0226  00E0               	movwf	___fladd@b+2
  2332  0227  0845               	movf	?___fldiv+1,w
  2333  0228  00DF               	movwf	___fladd@b+1
  2334  0229  0844               	movf	?___fldiv,w
  2335  022A  00DE               	movwf	___fladd@b
  2336  022B  1683               	bsf	3,5	;RP0=1, select bank1
  2337  022C  1303               	bcf	3,6	;RP1=0, select bank1
  2338  022D  082F               	movf	(floattostr_@numero_+3)^(0+128),w
  2339  022E  1283               	bcf	3,5	;RP0=0, select bank0
  2340  022F  1303               	bcf	3,6	;RP1=0, select bank0
  2341  0230  00E5               	movwf	___fladd@a+3
  2342  0231  1683               	bsf	3,5	;RP0=1, select bank1
  2343  0232  1303               	bcf	3,6	;RP1=0, select bank1
  2344  0233  082E               	movf	(floattostr_@numero_+2)^(0+128),w
  2345  0234  1283               	bcf	3,5	;RP0=0, select bank0
  2346  0235  1303               	bcf	3,6	;RP1=0, select bank0
  2347  0236  00E4               	movwf	___fladd@a+2
  2348  0237  1683               	bsf	3,5	;RP0=1, select bank1
  2349  0238  1303               	bcf	3,6	;RP1=0, select bank1
  2350  0239  082D               	movf	(floattostr_@numero_+1)^(0+128),w
  2351  023A  1283               	bcf	3,5	;RP0=0, select bank0
  2352  023B  1303               	bcf	3,6	;RP1=0, select bank0
  2353  023C  00E3               	movwf	___fladd@a+1
  2354  023D  1683               	bsf	3,5	;RP0=1, select bank1
  2355  023E  1303               	bcf	3,6	;RP1=0, select bank1
  2356  023F  082C               	movf	floattostr_@numero_^(0+128),w
  2357  0240  1283               	bcf	3,5	;RP0=0, select bank0
  2358  0241  1303               	bcf	3,6	;RP1=0, select bank0
  2359  0242  00E2               	movwf	___fladd@a
  2360  0243  120A  158A  24C0  120A  118A  	fcall	___fladd
  2361  0248  1283               	bcf	3,5	;RP0=0, select bank0
  2362  0249  1303               	bcf	3,6	;RP1=0, select bank0
  2363  024A  0861               	movf	?___fladd+3,w
  2364  024B  1683               	bsf	3,5	;RP0=1, select bank1
  2365  024C  1303               	bcf	3,6	;RP1=0, select bank1
  2366  024D  00AF               	movwf	(floattostr_@numero_+3)^(0+128)
  2367  024E  1283               	bcf	3,5	;RP0=0, select bank0
  2368  024F  1303               	bcf	3,6	;RP1=0, select bank0
  2369  0250  0860               	movf	?___fladd+2,w
  2370  0251  1683               	bsf	3,5	;RP0=1, select bank1
  2371  0252  1303               	bcf	3,6	;RP1=0, select bank1
  2372  0253  00AE               	movwf	(floattostr_@numero_+2)^(0+128)
  2373  0254  1283               	bcf	3,5	;RP0=0, select bank0
  2374  0255  1303               	bcf	3,6	;RP1=0, select bank0
  2375  0256  085F               	movf	?___fladd+1,w
  2376  0257  1683               	bsf	3,5	;RP0=1, select bank1
  2377  0258  1303               	bcf	3,6	;RP1=0, select bank1
  2378  0259  00AD               	movwf	(floattostr_@numero_+1)^(0+128)
  2379  025A  1283               	bcf	3,5	;RP0=0, select bank0
  2380  025B  1303               	bcf	3,6	;RP1=0, select bank0
  2381  025C  085E               	movf	?___fladd,w
  2382  025D  1683               	bsf	3,5	;RP0=1, select bank1
  2383  025E  1303               	bcf	3,6	;RP1=0, select bank1
  2384  025F  00AC               	movwf	floattostr_@numero_^(0+128)
  2385  0260                     l3209:
  2386                           
  2387                           ;main.c: 259: if (numero_ >= 10.0) {numero_ = 1.0; largo_entera++;}
  2388  0260  082F               	movf	(floattostr_@numero_+3)^(0+128),w
  2389  0261  1283               	bcf	3,5	;RP0=0, select bank0
  2390  0262  1303               	bcf	3,6	;RP1=0, select bank0
  2391  0263  00A3               	movwf	___flge@ff1+3
  2392  0264  1683               	bsf	3,5	;RP0=1, select bank1
  2393  0265  1303               	bcf	3,6	;RP1=0, select bank1
  2394  0266  082E               	movf	(floattostr_@numero_+2)^(0+128),w
  2395  0267  1283               	bcf	3,5	;RP0=0, select bank0
  2396  0268  1303               	bcf	3,6	;RP1=0, select bank0
  2397  0269  00A2               	movwf	___flge@ff1+2
  2398  026A  1683               	bsf	3,5	;RP0=1, select bank1
  2399  026B  1303               	bcf	3,6	;RP1=0, select bank1
  2400  026C  082D               	movf	(floattostr_@numero_+1)^(0+128),w
  2401  026D  1283               	bcf	3,5	;RP0=0, select bank0
  2402  026E  1303               	bcf	3,6	;RP1=0, select bank0
  2403  026F  00A1               	movwf	___flge@ff1+1
  2404  0270  1683               	bsf	3,5	;RP0=1, select bank1
  2405  0271  1303               	bcf	3,6	;RP1=0, select bank1
  2406  0272  082C               	movf	floattostr_@numero_^(0+128),w
  2407  0273  1283               	bcf	3,5	;RP0=0, select bank0
  2408  0274  1303               	bcf	3,6	;RP1=0, select bank0
  2409  0275  00A0               	movwf	___flge@ff1
  2410  0276  3041               	movlw	65
  2411  0277  00A7               	movwf	___flge@ff2+3
  2412  0278  3020               	movlw	32
  2413  0279  00A6               	movwf	___flge@ff2+2
  2414  027A  3000               	movlw	0
  2415  027B  00A5               	movwf	___flge@ff2+1
  2416  027C  3000               	movlw	0
  2417  027D  00A4               	movwf	___flge@ff2
  2418  027E  120A  158A  205C  120A  118A  	fcall	___flge
  2419  0283  1C03               	btfss	3,0
  2420  0284  2A86               	goto	u4701
  2421  0285  2A87               	goto	u4700
  2422  0286                     u4701:
  2423  0286  2A97               	goto	l3213
  2424  0287                     u4700:
  2425  0287                     l3211:
  2426  0287  303F               	movlw	63
  2427  0288  1683               	bsf	3,5	;RP0=1, select bank1
  2428  0289  1303               	bcf	3,6	;RP1=0, select bank1
  2429  028A  00AF               	movwf	(floattostr_@numero_+3)^(0+128)
  2430  028B  3080               	movlw	128
  2431  028C  00AE               	movwf	(floattostr_@numero_+2)^(0+128)
  2432  028D  3000               	movlw	0
  2433  028E  00AD               	movwf	(floattostr_@numero_+1)^(0+128)
  2434  028F  3000               	movlw	0
  2435  0290  00AC               	movwf	floattostr_@numero_^(0+128)
  2436  0291  3001               	movlw	1
  2437  0292  07BC               	addwf	floattostr_@largo_entera^(0+128),f
  2438  0293  1803               	skipnc
  2439  0294  0ABD               	incf	(floattostr_@largo_entera+1)^(0+128),f
  2440  0295  3000               	movlw	0
  2441  0296  07BD               	addwf	(floattostr_@largo_entera+1)^(0+128),f
  2442  0297                     l3213:
  2443                           
  2444                           ;main.c: 261: if (largo_entera<0)
  2445  0297  1683               	bsf	3,5	;RP0=1, select bank1
  2446  0298  1303               	bcf	3,6	;RP1=0, select bank1
  2447  0299  1FBD               	btfss	(floattostr_@largo_entera+1)^(0+128),7
  2448  029A  2A9C               	goto	u4711
  2449  029B  2A9D               	goto	u4710
  2450  029C                     u4711:
  2451  029C  2AE4               	goto	l3235
  2452  029D                     u4710:
  2453  029D                     l3215:
  2454                           
  2455                           ;main.c: 262:   {;main.c: 263:    *cadena_++ = '0'; *cadena_++ = '.';
  2456  029D  3030               	movlw	48
  2457  029E  00F7               	movwf	??_floattostr_
  2458  029F  0830               	movf	floattostr_@cadena_^(0+128),w
  2459  02A0  0084               	movwf	4
  2460  02A1  0877               	movf	??_floattostr_,w
  2461  02A2  1383               	bcf	3,7	;select IRP bank0
  2462  02A3  0080               	movwf	0
  2463  02A4                     l3217:
  2464  02A4  3001               	movlw	1
  2465  02A5  00F7               	movwf	??_floattostr_
  2466  02A6  0877               	movf	??_floattostr_,w
  2467  02A7  07B0               	addwf	floattostr_@cadena_^(0+128),f
  2468  02A8                     l3219:
  2469  02A8  302E               	movlw	46
  2470  02A9  00F7               	movwf	??_floattostr_
  2471  02AA  0830               	movf	floattostr_@cadena_^(0+128),w
  2472  02AB  0084               	movwf	4
  2473  02AC  0877               	movf	??_floattostr_,w
  2474  02AD  0080               	movwf	0
  2475  02AE  3001               	movlw	1
  2476  02AF  00F7               	movwf	??_floattostr_
  2477  02B0  0877               	movf	??_floattostr_,w
  2478  02B1  07B0               	addwf	floattostr_@cadena_^(0+128),f
  2479  02B2                     l3221:
  2480                           
  2481                           ;main.c: 264:    if (largo_n < 0) largo_entera = largo_entera-largo_n;
  2482  02B2  1FB9               	btfss	(floattostr_@largo_n+1)^(0+128),7
  2483  02B3  2AB5               	goto	u4721
  2484  02B4  2AB6               	goto	u4720
  2485  02B5                     u4721:
  2486  02B5  2ABE               	goto	l3225
  2487  02B6                     u4720:
  2488  02B6                     l3223:
  2489  02B6  0838               	movf	floattostr_@largo_n^(0+128),w
  2490  02B7  023C               	subwf	floattostr_@largo_entera^(0+128),w
  2491  02B8  00BC               	movwf	floattostr_@largo_entera^(0+128)
  2492  02B9  0839               	movf	(floattostr_@largo_n+1)^(0+128),w
  2493  02BA  1C03               	skipc
  2494  02BB  0A39               	incf	(floattostr_@largo_n+1)^(0+128),w
  2495  02BC  023D               	subwf	(floattostr_@largo_entera+1)^(0+128),w
  2496  02BD  00BD               	movwf	(floattostr_@largo_entera+1)^(0+128)
  2497  02BE                     l3225:
  2498                           
  2499                           ;main.c: 265:    for (cont_for = -1; cont_for > largo_entera; cont_for--) *cadena_++ = '
      +                          0';
  2500  02BE  30FF               	movlw	255
  2501  02BF  00BA               	movwf	floattostr_@cont_for^(0+128)
  2502  02C0  30FF               	movlw	255
  2503  02C1  00BB               	movwf	(floattostr_@cont_for^(0+128)+1)
  2504  02C2  2AD6               	goto	l3233
  2505  02C3                     l3227:
  2506  02C3  3030               	movlw	48
  2507  02C4  00F7               	movwf	??_floattostr_
  2508  02C5  1683               	bsf	3,5	;RP0=1, select bank1
  2509  02C6  1303               	bcf	3,6	;RP1=0, select bank1
  2510  02C7  0830               	movf	floattostr_@cadena_^(0+128),w
  2511  02C8  0084               	movwf	4
  2512  02C9  0877               	movf	??_floattostr_,w
  2513  02CA  1383               	bcf	3,7	;select IRP bank0
  2514  02CB  0080               	movwf	0
  2515  02CC                     l3229:
  2516  02CC  3001               	movlw	1
  2517  02CD  00F7               	movwf	??_floattostr_
  2518  02CE  0877               	movf	??_floattostr_,w
  2519  02CF  07B0               	addwf	floattostr_@cadena_^(0+128),f
  2520  02D0                     l3231:
  2521  02D0  30FF               	movlw	255
  2522  02D1  07BA               	addwf	floattostr_@cont_for^(0+128),f
  2523  02D2  1803               	skipnc
  2524  02D3  0ABB               	incf	(floattostr_@cont_for+1)^(0+128),f
  2525  02D4  30FF               	movlw	255
  2526  02D5  07BB               	addwf	(floattostr_@cont_for+1)^(0+128),f
  2527  02D6                     l3233:
  2528  02D6  083D               	movf	(floattostr_@largo_entera+1)^(0+128),w
  2529  02D7  3A80               	xorlw	128
  2530  02D8  00F7               	movwf	??_floattostr_
  2531  02D9  083B               	movf	(floattostr_@cont_for+1)^(0+128),w
  2532  02DA  3A80               	xorlw	128
  2533  02DB  0277               	subwf	??_floattostr_,w
  2534  02DC  1D03               	skipz
  2535  02DD  2AE0               	goto	u4735
  2536  02DE  083A               	movf	floattostr_@cont_for^(0+128),w
  2537  02DF  023C               	subwf	floattostr_@largo_entera^(0+128),w
  2538  02E0                     u4735:
  2539  02E0  1C03               	skipc
  2540  02E1  2AE3               	goto	u4731
  2541  02E2  2AE4               	goto	u4730
  2542  02E3                     u4731:
  2543  02E3  2AC3               	goto	l3227
  2544  02E4                     u4730:
  2545  02E4                     l3235:
  2546                           
  2547                           ;main.c: 267: for (cont_for=0; cont_for < largo_n; cont_for++)
  2548  02E4  1683               	bsf	3,5	;RP0=1, select bank1
  2549  02E5  1303               	bcf	3,6	;RP1=0, select bank1
  2550  02E6  01BA               	clrf	floattostr_@cont_for^(0+128)
  2551  02E7  01BB               	clrf	(floattostr_@cont_for+1)^(0+128)
  2552  02E8  2B9B               	goto	l3255
  2553  02E9                     l3237:
  2554                           
  2555                           ;main.c: 268:   {;main.c: 269:   tempo_int = numero_;
  2556  02E9  1683               	bsf	3,5	;RP0=1, select bank1
  2557  02EA  1303               	bcf	3,6	;RP1=0, select bank1
  2558  02EB  082F               	movf	(floattostr_@numero_+3)^(0+128),w
  2559  02EC  00F6               	movwf	___fltol@f1+3
  2560  02ED  082E               	movf	(floattostr_@numero_+2)^(0+128),w
  2561  02EE  00F5               	movwf	___fltol@f1+2
  2562  02EF  082D               	movf	(floattostr_@numero_+1)^(0+128),w
  2563  02F0  00F4               	movwf	___fltol@f1+1
  2564  02F1  082C               	movf	floattostr_@numero_^(0+128),w
  2565  02F2  00F3               	movwf	___fltol@f1
  2566  02F3  160A  118A  2704  120A  118A  	fcall	___fltol
  2567  02F8  0874               	movf	?___fltol+1,w
  2568  02F9  1683               	bsf	3,5	;RP0=1, select bank1
  2569  02FA  1303               	bcf	3,6	;RP1=0, select bank1
  2570  02FB  00B3               	movwf	(floattostr_@tempo_int+1)^(0+128)
  2571  02FC  0873               	movf	?___fltol,w
  2572  02FD  00B2               	movwf	floattostr_@tempo_int^(0+128)
  2573  02FE                     l3239:
  2574                           
  2575                           ;main.c: 270:   *cadena_++ = tempo_int + 48;
  2576  02FE  0832               	movf	floattostr_@tempo_int^(0+128),w
  2577  02FF  3E30               	addlw	48
  2578  0300  00F7               	movwf	??_floattostr_
  2579  0301  0830               	movf	floattostr_@cadena_^(0+128),w
  2580  0302  0084               	movwf	4
  2581  0303  0877               	movf	??_floattostr_,w
  2582  0304  1383               	bcf	3,7	;select IRP bank0
  2583  0305  0080               	movwf	0
  2584  0306                     l3241:
  2585  0306  3001               	movlw	1
  2586  0307  00F7               	movwf	??_floattostr_
  2587  0308  0877               	movf	??_floattostr_,w
  2588  0309  07B0               	addwf	floattostr_@cadena_^(0+128),f
  2589  030A                     l3243:
  2590                           
  2591                           ;main.c: 271:   if (cont_for == largo_entera ) *cadena_++ = '.';
  2592  030A  083D               	movf	(floattostr_@largo_entera+1)^(0+128),w
  2593  030B  063B               	xorwf	(floattostr_@cont_for+1)^(0+128),w
  2594  030C  1D03               	skipz
  2595  030D  2B10               	goto	u4745
  2596  030E  083C               	movf	floattostr_@largo_entera^(0+128),w
  2597  030F  063A               	xorwf	floattostr_@cont_for^(0+128),w
  2598  0310                     u4745:
  2599  0310  1D03               	skipz
  2600  0311  2B13               	goto	u4741
  2601  0312  2B14               	goto	u4740
  2602  0313                     u4741:
  2603  0313  2B1E               	goto	l3249
  2604  0314                     u4740:
  2605  0314                     l3245:
  2606  0314  302E               	movlw	46
  2607  0315  00F7               	movwf	??_floattostr_
  2608  0316  0830               	movf	floattostr_@cadena_^(0+128),w
  2609  0317  0084               	movwf	4
  2610  0318  0877               	movf	??_floattostr_,w
  2611  0319  0080               	movwf	0
  2612  031A                     l3247:
  2613  031A  3001               	movlw	1
  2614  031B  00F7               	movwf	??_floattostr_
  2615  031C  0877               	movf	??_floattostr_,w
  2616  031D  07B0               	addwf	floattostr_@cadena_^(0+128),f
  2617  031E                     l3249:
  2618                           
  2619                           ;main.c: 272:   numero_ -= (tempo_float=tempo_int);
  2620  031E  0832               	movf	floattostr_@tempo_int^(0+128),w
  2621  031F  00F3               	movwf	___xxtofl@val
  2622  0320  0833               	movf	(floattostr_@tempo_int+1)^(0+128),w
  2623  0321  00F4               	movwf	___xxtofl@val+1
  2624  0322  3000               	movlw	0
  2625  0323  1BF4               	btfsc	___xxtofl@val+1,7
  2626  0324  30FF               	movlw	255
  2627  0325  00F5               	movwf	___xxtofl@val+2
  2628  0326  00F6               	movwf	___xxtofl@val+3
  2629  0327  3001               	movlw	1
  2630  0328  120A  118A  2711  120A  118A  	fcall	___xxtofl
  2631  032D  0876               	movf	?___xxtofl+3,w
  2632  032E  1683               	bsf	3,5	;RP0=1, select bank1
  2633  032F  1303               	bcf	3,6	;RP1=0, select bank1
  2634  0330  00B7               	movwf	(floattostr_@tempo_float+3)^(0+128)
  2635  0331  0875               	movf	?___xxtofl+2,w
  2636  0332  00B6               	movwf	(floattostr_@tempo_float+2)^(0+128)
  2637  0333  0874               	movf	?___xxtofl+1,w
  2638  0334  00B5               	movwf	(floattostr_@tempo_float+1)^(0+128)
  2639  0335  0873               	movf	?___xxtofl,w
  2640  0336  00B4               	movwf	floattostr_@tempo_float^(0+128)
  2641  0337  0837               	movf	(floattostr_@tempo_float+3)^(0+128),w
  2642  0338  00A7               	movwf	(___flsub@a+3)^(0+128)
  2643  0339  0836               	movf	(floattostr_@tempo_float+2)^(0+128),w
  2644  033A  00A6               	movwf	(___flsub@a+2)^(0+128)
  2645  033B  0835               	movf	(floattostr_@tempo_float+1)^(0+128),w
  2646  033C  00A5               	movwf	(___flsub@a+1)^(0+128)
  2647  033D  0834               	movf	floattostr_@tempo_float^(0+128),w
  2648  033E  00A4               	movwf	___flsub@a^(0+128)
  2649  033F  082F               	movf	(floattostr_@numero_+3)^(0+128),w
  2650  0340  00AB               	movwf	(___flsub@b+3)^(0+128)
  2651  0341  082E               	movf	(floattostr_@numero_+2)^(0+128),w
  2652  0342  00AA               	movwf	(___flsub@b+2)^(0+128)
  2653  0343  082D               	movf	(floattostr_@numero_+1)^(0+128),w
  2654  0344  00A9               	movwf	(___flsub@b+1)^(0+128)
  2655  0345  082C               	movf	floattostr_@numero_^(0+128),w
  2656  0346  00A8               	movwf	___flsub@b^(0+128)
  2657  0347  160A  118A  2652  120A  118A  	fcall	___flsub
  2658  034C  1683               	bsf	3,5	;RP0=1, select bank1
  2659  034D  1303               	bcf	3,6	;RP1=0, select bank1
  2660  034E  0827               	movf	(?___flsub+3)^(0+128),w
  2661  034F  00AF               	movwf	(floattostr_@numero_+3)^(0+128)
  2662  0350  0826               	movf	(?___flsub+2)^(0+128),w
  2663  0351  00AE               	movwf	(floattostr_@numero_+2)^(0+128)
  2664  0352  0825               	movf	(?___flsub+1)^(0+128),w
  2665  0353  00AD               	movwf	(floattostr_@numero_+1)^(0+128)
  2666  0354  0824               	movf	?___flsub^(0+128),w
  2667  0355  00AC               	movwf	floattostr_@numero_^(0+128)
  2668  0356                     l3251:
  2669                           
  2670                           ;main.c: 273:   numero_ = numero_*10.0;
  2671  0356  3041               	movlw	65
  2672  0357  1283               	bcf	3,5	;RP0=0, select bank0
  2673  0358  1303               	bcf	3,6	;RP1=0, select bank0
  2674  0359  00AD               	movwf	___flmul@b+3
  2675  035A  3020               	movlw	32
  2676  035B  00AC               	movwf	___flmul@b+2
  2677  035C  3000               	movlw	0
  2678  035D  00AB               	movwf	___flmul@b+1
  2679  035E  3000               	movlw	0
  2680  035F  00AA               	movwf	___flmul@b
  2681  0360  1683               	bsf	3,5	;RP0=1, select bank1
  2682  0361  1303               	bcf	3,6	;RP1=0, select bank1
  2683  0362  082F               	movf	(floattostr_@numero_+3)^(0+128),w
  2684  0363  1283               	bcf	3,5	;RP0=0, select bank0
  2685  0364  1303               	bcf	3,6	;RP1=0, select bank0
  2686  0365  00B1               	movwf	___flmul@a+3
  2687  0366  1683               	bsf	3,5	;RP0=1, select bank1
  2688  0367  1303               	bcf	3,6	;RP1=0, select bank1
  2689  0368  082E               	movf	(floattostr_@numero_+2)^(0+128),w
  2690  0369  1283               	bcf	3,5	;RP0=0, select bank0
  2691  036A  1303               	bcf	3,6	;RP1=0, select bank0
  2692  036B  00B0               	movwf	___flmul@a+2
  2693  036C  1683               	bsf	3,5	;RP0=1, select bank1
  2694  036D  1303               	bcf	3,6	;RP1=0, select bank1
  2695  036E  082D               	movf	(floattostr_@numero_+1)^(0+128),w
  2696  036F  1283               	bcf	3,5	;RP0=0, select bank0
  2697  0370  1303               	bcf	3,6	;RP1=0, select bank0
  2698  0371  00AF               	movwf	___flmul@a+1
  2699  0372  1683               	bsf	3,5	;RP0=1, select bank1
  2700  0373  1303               	bcf	3,6	;RP1=0, select bank1
  2701  0374  082C               	movf	floattostr_@numero_^(0+128),w
  2702  0375  1283               	bcf	3,5	;RP0=0, select bank0
  2703  0376  1303               	bcf	3,6	;RP1=0, select bank0
  2704  0377  00AE               	movwf	___flmul@a
  2705  0378  120A  118A  23B0  120A  118A  	fcall	___flmul
  2706  037D  1283               	bcf	3,5	;RP0=0, select bank0
  2707  037E  1303               	bcf	3,6	;RP1=0, select bank0
  2708  037F  082D               	movf	?___flmul+3,w
  2709  0380  1683               	bsf	3,5	;RP0=1, select bank1
  2710  0381  1303               	bcf	3,6	;RP1=0, select bank1
  2711  0382  00AF               	movwf	(floattostr_@numero_+3)^(0+128)
  2712  0383  1283               	bcf	3,5	;RP0=0, select bank0
  2713  0384  1303               	bcf	3,6	;RP1=0, select bank0
  2714  0385  082C               	movf	?___flmul+2,w
  2715  0386  1683               	bsf	3,5	;RP0=1, select bank1
  2716  0387  1303               	bcf	3,6	;RP1=0, select bank1
  2717  0388  00AE               	movwf	(floattostr_@numero_+2)^(0+128)
  2718  0389  1283               	bcf	3,5	;RP0=0, select bank0
  2719  038A  1303               	bcf	3,6	;RP1=0, select bank0
  2720  038B  082B               	movf	?___flmul+1,w
  2721  038C  1683               	bsf	3,5	;RP0=1, select bank1
  2722  038D  1303               	bcf	3,6	;RP1=0, select bank1
  2723  038E  00AD               	movwf	(floattostr_@numero_+1)^(0+128)
  2724  038F  1283               	bcf	3,5	;RP0=0, select bank0
  2725  0390  1303               	bcf	3,6	;RP1=0, select bank0
  2726  0391  082A               	movf	?___flmul,w
  2727  0392  1683               	bsf	3,5	;RP0=1, select bank1
  2728  0393  1303               	bcf	3,6	;RP1=0, select bank1
  2729  0394  00AC               	movwf	floattostr_@numero_^(0+128)
  2730  0395                     l3253:
  2731                           
  2732                           ;main.c: 274:   }
  2733  0395  3001               	movlw	1
  2734  0396  07BA               	addwf	floattostr_@cont_for^(0+128),f
  2735  0397  1803               	skipnc
  2736  0398  0ABB               	incf	(floattostr_@cont_for+1)^(0+128),f
  2737  0399  3000               	movlw	0
  2738  039A  07BB               	addwf	(floattostr_@cont_for+1)^(0+128),f
  2739  039B                     l3255:
  2740  039B  083B               	movf	(floattostr_@cont_for+1)^(0+128),w
  2741  039C  3A80               	xorlw	128
  2742  039D  00F7               	movwf	??_floattostr_
  2743  039E  0839               	movf	(floattostr_@largo_n+1)^(0+128),w
  2744  039F  3A80               	xorlw	128
  2745  03A0  0277               	subwf	??_floattostr_,w
  2746  03A1  1D03               	skipz
  2747  03A2  2BA5               	goto	u4755
  2748  03A3  0838               	movf	floattostr_@largo_n^(0+128),w
  2749  03A4  023A               	subwf	floattostr_@cont_for^(0+128),w
  2750  03A5                     u4755:
  2751  03A5  1C03               	skipc
  2752  03A6  2BA8               	goto	u4751
  2753  03A7  2BA9               	goto	u4750
  2754  03A8                     u4751:
  2755  03A8  2AE9               	goto	l3237
  2756  03A9                     u4750:
  2757  03A9                     l3257:
  2758                           
  2759                           ;main.c: 275: *cadena_ =0;
  2760  03A9  1683               	bsf	3,5	;RP0=1, select bank1
  2761  03AA  1303               	bcf	3,6	;RP1=0, select bank1
  2762  03AB  0830               	movf	floattostr_@cadena_^(0+128),w
  2763  03AC  0084               	movwf	4
  2764  03AD  1383               	bcf	3,7	;select IRP bank0
  2765  03AE  0180               	clrf	0
  2766  03AF                     l175:
  2767  03AF  0008               	return
  2768  03B0                     __end_of_floattostr_:
  2769                           
  2770                           	psect	text4
  2771  0711                     __ptext4:	
  2772 ;; *************** function ___xxtofl *****************
  2773 ;; Defined at:
  2774 ;;		line 10 in file "C:\Program Files\Microchip\xc8\v2.31\pic\sources\c90\common\xxtofl.c"
  2775 ;; Parameters:    Size  Location     Type
  2776 ;;  sign            1    wreg     unsigned char 
  2777 ;;  val             4    3[COMMON] long 
  2778 ;; Auto vars:     Size  Location     Type
  2779 ;;  sign            1    4[BANK0 ] unsigned char 
  2780 ;;  arg             4    6[BANK0 ] unsigned long 
  2781 ;;  exp             1    5[BANK0 ] unsigned char 
  2782 ;; Return value:  Size  Location     Type
  2783 ;;                  4    3[COMMON] unsigned char 
  2784 ;; Registers used:
  2785 ;;		wreg, status,2, status,0
  2786 ;; Tracked objects:
  2787 ;;		On entry : 0/0
  2788 ;;		On exit  : 0/0
  2789 ;;		Unchanged: 0/0
  2790 ;; Data sizes:     COMMON   BANK0   BANK1   BANK3   BANK2
  2791 ;;      Params:         4       0       0       0       0
  2792 ;;      Locals:         0       6       0       0       0
  2793 ;;      Temps:          0       4       0       0       0
  2794 ;;      Totals:         4      10       0       0       0
  2795 ;;Total ram usage:       14 bytes
  2796 ;; Hardware stack levels used:    1
  2797 ;; Hardware stack levels required when called:    1
  2798 ;; This function calls:
  2799 ;;		Nothing
  2800 ;; This function is called by:
  2801 ;;		_main
  2802 ;;		_floattostr_
  2803 ;; This function uses a non-reentrant model
  2804 ;;
  2805                           
  2806                           
  2807                           ;psect for function ___xxtofl
  2808  0711                     ___xxtofl:
  2809                           
  2810                           ;incstack = 0
  2811                           ; Regs used in ___xxtofl: [wreg+status,2+status,0]
  2812                           ;___xxtofl@sign stored from wreg
  2813  0711  1283               	bcf	3,5	;RP0=0, select bank0
  2814  0712  1303               	bcf	3,6	;RP1=0, select bank0
  2815  0713  00A4               	movwf	___xxtofl@sign
  2816  0714                     l3087:
  2817  0714  0824               	movf	___xxtofl@sign,w
  2818  0715  1903               	btfsc	3,2
  2819  0716  2F18               	goto	u4441
  2820  0717  2F19               	goto	u4440
  2821  0718                     u4441:
  2822  0718  2F2D               	goto	l3093
  2823  0719                     u4440:
  2824  0719                     l3089:
  2825  0719  1FF6               	btfss	___xxtofl@val+3,7
  2826  071A  2F1C               	goto	u4451
  2827  071B  2F1D               	goto	u4450
  2828  071C                     u4451:
  2829  071C  2F2D               	goto	l3093
  2830  071D                     u4450:
  2831  071D                     l3091:
  2832  071D  0973               	comf	___xxtofl@val,w
  2833  071E  00A6               	movwf	___xxtofl@arg
  2834  071F  0974               	comf	___xxtofl@val+1,w
  2835  0720  00A7               	movwf	___xxtofl@arg+1
  2836  0721  0975               	comf	___xxtofl@val+2,w
  2837  0722  00A8               	movwf	___xxtofl@arg+2
  2838  0723  0976               	comf	___xxtofl@val+3,w
  2839  0724  00A9               	movwf	___xxtofl@arg+3
  2840  0725  0AA6               	incf	___xxtofl@arg,f
  2841  0726  1903               	skipnz
  2842  0727  0AA7               	incf	___xxtofl@arg+1,f
  2843  0728  1903               	skipnz
  2844  0729  0AA8               	incf	___xxtofl@arg+2,f
  2845  072A  1903               	skipnz
  2846  072B  0AA9               	incf	___xxtofl@arg+3,f
  2847  072C  2F35               	goto	l804
  2848  072D                     l3093:
  2849  072D  0876               	movf	___xxtofl@val+3,w
  2850  072E  00A9               	movwf	___xxtofl@arg+3
  2851  072F  0875               	movf	___xxtofl@val+2,w
  2852  0730  00A8               	movwf	___xxtofl@arg+2
  2853  0731  0874               	movf	___xxtofl@val+1,w
  2854  0732  00A7               	movwf	___xxtofl@arg+1
  2855  0733  0873               	movf	___xxtofl@val,w
  2856  0734  00A6               	movwf	___xxtofl@arg
  2857  0735                     l804:
  2858  0735  0876               	movf	___xxtofl@val+3,w
  2859  0736  0475               	iorwf	___xxtofl@val+2,w
  2860  0737  0474               	iorwf	___xxtofl@val+1,w
  2861  0738  0473               	iorwf	___xxtofl@val,w
  2862  0739  1D03               	skipz
  2863  073A  2F3C               	goto	u4461
  2864  073B  2F3D               	goto	u4460
  2865  073C                     u4461:
  2866  073C  2F46               	goto	l3099
  2867  073D                     u4460:
  2868  073D                     l3095:
  2869  073D  3000               	movlw	0
  2870  073E  00F6               	movwf	?___xxtofl+3
  2871  073F  3000               	movlw	0
  2872  0740  00F5               	movwf	?___xxtofl+2
  2873  0741  3000               	movlw	0
  2874  0742  00F4               	movwf	?___xxtofl+1
  2875  0743  3000               	movlw	0
  2876  0744  00F3               	movwf	?___xxtofl
  2877  0745  2FCC               	goto	l806
  2878  0746                     l3099:
  2879  0746  3096               	movlw	150
  2880  0747  00A0               	movwf	??___xxtofl
  2881  0748  0820               	movf	??___xxtofl,w
  2882  0749  00A5               	movwf	___xxtofl@exp
  2883  074A  2F58               	goto	l3103
  2884  074B                     l3101:
  2885  074B  3001               	movlw	1
  2886  074C  00A0               	movwf	??___xxtofl
  2887  074D  0820               	movf	??___xxtofl,w
  2888  074E  07A5               	addwf	___xxtofl@exp,f
  2889  074F  3001               	movlw	1
  2890  0750                     u4475:
  2891  0750  1003               	clrc
  2892  0751  0CA9               	rrf	___xxtofl@arg+3,f
  2893  0752  0CA8               	rrf	___xxtofl@arg+2,f
  2894  0753  0CA7               	rrf	___xxtofl@arg+1,f
  2895  0754  0CA6               	rrf	___xxtofl@arg,f
  2896  0755  3EFF               	addlw	-1
  2897  0756  1D03               	skipz
  2898  0757  2F50               	goto	u4475
  2899  0758                     l3103:
  2900  0758  30FE               	movlw	254
  2901  0759  0529               	andwf	___xxtofl@arg+3,w
  2902  075A  1D03               	btfss	3,2
  2903  075B  2F5D               	goto	u4481
  2904  075C  2F5E               	goto	u4480
  2905  075D                     u4481:
  2906  075D  2F4B               	goto	l3101
  2907  075E                     u4480:
  2908  075E  2F7A               	goto	l810
  2909  075F                     l3105:
  2910  075F  3001               	movlw	1
  2911  0760  00A0               	movwf	??___xxtofl
  2912  0761  0820               	movf	??___xxtofl,w
  2913  0762  07A5               	addwf	___xxtofl@exp,f
  2914  0763                     l3107:
  2915  0763  3001               	movlw	1
  2916  0764  07A6               	addwf	___xxtofl@arg,f
  2917  0765  3000               	movlw	0
  2918  0766  1803               	skipnc
  2919  0767  3001               	movlw	1
  2920  0768  07A7               	addwf	___xxtofl@arg+1,f
  2921  0769  3000               	movlw	0
  2922  076A  1803               	skipnc
  2923  076B  3001               	movlw	1
  2924  076C  07A8               	addwf	___xxtofl@arg+2,f
  2925  076D  3000               	movlw	0
  2926  076E  1803               	skipnc
  2927  076F  3001               	movlw	1
  2928  0770  07A9               	addwf	___xxtofl@arg+3,f
  2929  0771                     l3109:
  2930  0771  3001               	movlw	1
  2931  0772                     u4495:
  2932  0772  1003               	clrc
  2933  0773  0CA9               	rrf	___xxtofl@arg+3,f
  2934  0774  0CA8               	rrf	___xxtofl@arg+2,f
  2935  0775  0CA7               	rrf	___xxtofl@arg+1,f
  2936  0776  0CA6               	rrf	___xxtofl@arg,f
  2937  0777  3EFF               	addlw	-1
  2938  0778  1D03               	skipz
  2939  0779  2F72               	goto	u4495
  2940  077A                     l810:
  2941  077A  30FF               	movlw	255
  2942  077B  0529               	andwf	___xxtofl@arg+3,w
  2943  077C  1D03               	btfss	3,2
  2944  077D  2F7F               	goto	u4501
  2945  077E  2F80               	goto	u4500
  2946  077F                     u4501:
  2947  077F  2F5F               	goto	l3105
  2948  0780                     u4500:
  2949  0780  2F8C               	goto	l3113
  2950  0781                     l3111:
  2951  0781  3001               	movlw	1
  2952  0782  02A5               	subwf	___xxtofl@exp,f
  2953  0783  3001               	movlw	1
  2954  0784  00A0               	movwf	??___xxtofl
  2955  0785                     u4515:
  2956  0785  1003               	clrc
  2957  0786  0DA6               	rlf	___xxtofl@arg,f
  2958  0787  0DA7               	rlf	___xxtofl@arg+1,f
  2959  0788  0DA8               	rlf	___xxtofl@arg+2,f
  2960  0789  0DA9               	rlf	___xxtofl@arg+3,f
  2961  078A  0BA0               	decfsz	??___xxtofl,f
  2962  078B  2F85               	goto	u4515
  2963  078C                     l3113:
  2964  078C  1BA8               	btfsc	___xxtofl@arg+2,7
  2965  078D  2F8F               	goto	u4521
  2966  078E  2F90               	goto	u4520
  2967  078F                     u4521:
  2968  078F  2F96               	goto	l817
  2969  0790                     u4520:
  2970  0790                     l3115:
  2971  0790  3002               	movlw	2
  2972  0791  0225               	subwf	___xxtofl@exp,w
  2973  0792  1803               	skipnc
  2974  0793  2F95               	goto	u4531
  2975  0794  2F96               	goto	u4530
  2976  0795                     u4531:
  2977  0795  2F81               	goto	l3111
  2978  0796                     u4530:
  2979  0796                     l817:
  2980  0796  1825               	btfsc	___xxtofl@exp,0
  2981  0797  2F99               	goto	u4541
  2982  0798  2F9A               	goto	u4540
  2983  0799                     u4541:
  2984  0799  2FA2               	goto	l818
  2985  079A                     u4540:
  2986  079A                     l3117:
  2987  079A  30FF               	movlw	255
  2988  079B  05A6               	andwf	___xxtofl@arg,f
  2989  079C  30FF               	movlw	255
  2990  079D  05A7               	andwf	___xxtofl@arg+1,f
  2991  079E  307F               	movlw	127
  2992  079F  05A8               	andwf	___xxtofl@arg+2,f
  2993  07A0  30FF               	movlw	255
  2994  07A1  05A9               	andwf	___xxtofl@arg+3,f
  2995  07A2                     l818:
  2996  07A2  1003               	clrc
  2997  07A3  0CA5               	rrf	___xxtofl@exp,f
  2998  07A4                     l3119:
  2999  07A4  0825               	movf	___xxtofl@exp,w
  3000  07A5  00A0               	movwf	??___xxtofl
  3001  07A6  01A1               	clrf	??___xxtofl+1
  3002  07A7  01A2               	clrf	??___xxtofl+2
  3003  07A8  01A3               	clrf	??___xxtofl+3
  3004  07A9  3018               	movlw	24
  3005  07AA                     u4555:
  3006  07AA  1003               	clrc
  3007  07AB  0DA0               	rlf	??___xxtofl,f
  3008  07AC  0DA1               	rlf	??___xxtofl+1,f
  3009  07AD  0DA2               	rlf	??___xxtofl+2,f
  3010  07AE  0DA3               	rlf	??___xxtofl+3,f
  3011  07AF                     u4550:
  3012  07AF  3EFF               	addlw	-1
  3013  07B0  1D03               	skipz
  3014  07B1  2FAA               	goto	u4555
  3015  07B2  0820               	movf	??___xxtofl,w
  3016  07B3  04A6               	iorwf	___xxtofl@arg,f
  3017  07B4  0821               	movf	??___xxtofl+1,w
  3018  07B5  04A7               	iorwf	___xxtofl@arg+1,f
  3019  07B6  0822               	movf	??___xxtofl+2,w
  3020  07B7  04A8               	iorwf	___xxtofl@arg+2,f
  3021  07B8  0823               	movf	??___xxtofl+3,w
  3022  07B9  04A9               	iorwf	___xxtofl@arg+3,f
  3023  07BA                     l3121:
  3024  07BA  0824               	movf	___xxtofl@sign,w
  3025  07BB  1903               	btfsc	3,2
  3026  07BC  2FBE               	goto	u4561
  3027  07BD  2FBF               	goto	u4560
  3028  07BE                     u4561:
  3029  07BE  2FC4               	goto	l3127
  3030  07BF                     u4560:
  3031  07BF                     l3123:
  3032  07BF  1FF6               	btfss	___xxtofl@val+3,7
  3033  07C0  2FC2               	goto	u4571
  3034  07C1  2FC3               	goto	u4570
  3035  07C2                     u4571:
  3036  07C2  2FC4               	goto	l3127
  3037  07C3                     u4570:
  3038  07C3                     l3125:
  3039  07C3  17A9               	bsf	___xxtofl@arg+3,7
  3040  07C4                     l3127:
  3041  07C4  0829               	movf	___xxtofl@arg+3,w
  3042  07C5  00F6               	movwf	?___xxtofl+3
  3043  07C6  0828               	movf	___xxtofl@arg+2,w
  3044  07C7  00F5               	movwf	?___xxtofl+2
  3045  07C8  0827               	movf	___xxtofl@arg+1,w
  3046  07C9  00F4               	movwf	?___xxtofl+1
  3047  07CA  0826               	movf	___xxtofl@arg,w
  3048  07CB  00F3               	movwf	?___xxtofl
  3049  07CC                     l806:
  3050  07CC  0008               	return
  3051  07CD                     __end_of___xxtofl:
  3052                           
  3053                           	psect	text5
  3054  1704                     __ptext5:	
  3055 ;; *************** function ___fltol *****************
  3056 ;; Defined at:
  3057 ;;		line 43 in file "C:\Program Files\Microchip\xc8\v2.31\pic\sources\c90\common\fltol.c"
  3058 ;; Parameters:    Size  Location     Type
  3059 ;;  f1              4    3[COMMON] unsigned char 
  3060 ;; Auto vars:     Size  Location     Type
  3061 ;;  exp1            1    6[BANK0 ] unsigned char 
  3062 ;;  sign1           1    5[BANK0 ] unsigned char 
  3063 ;; Return value:  Size  Location     Type
  3064 ;;                  4    3[COMMON] long 
  3065 ;; Registers used:
  3066 ;;		wreg, status,2, status,0
  3067 ;; Tracked objects:
  3068 ;;		On entry : 0/0
  3069 ;;		On exit  : 0/0
  3070 ;;		Unchanged: 0/0
  3071 ;; Data sizes:     COMMON   BANK0   BANK1   BANK3   BANK2
  3072 ;;      Params:         4       0       0       0       0
  3073 ;;      Locals:         0       2       0       0       0
  3074 ;;      Temps:          0       5       0       0       0
  3075 ;;      Totals:         4       7       0       0       0
  3076 ;;Total ram usage:       11 bytes
  3077 ;; Hardware stack levels used:    1
  3078 ;; Hardware stack levels required when called:    1
  3079 ;; This function calls:
  3080 ;;		Nothing
  3081 ;; This function is called by:
  3082 ;;		_floattostr_
  3083 ;; This function uses a non-reentrant model
  3084 ;;
  3085                           
  3086                           
  3087                           ;psect for function ___fltol
  3088  1704                     ___fltol:
  3089  1704                     l3045:	
  3090                           ;incstack = 0
  3091                           ; Regs used in ___fltol: [wreg+status,2+status,0]
  3092                           
  3093  1704  1003               	clrc
  3094  1705  0D75               	rlf	___fltol@f1+2,w
  3095  1706  0D76               	rlf	___fltol@f1+3,w
  3096  1707  1283               	bcf	3,5	;RP0=0, select bank0
  3097  1708  1303               	bcf	3,6	;RP1=0, select bank0
  3098  1709  00A0               	movwf	??___fltol
  3099  170A  0820               	movf	??___fltol,w
  3100  170B  00A6               	movwf	___fltol@exp1
  3101  170C  0826               	movf	___fltol@exp1,w
  3102  170D  1D03               	btfss	3,2
  3103  170E  2F10               	goto	u4341
  3104  170F  2F11               	goto	u4340
  3105  1710                     u4341:
  3106  1710  2F1A               	goto	l3051
  3107  1711                     u4340:
  3108  1711                     l3047:
  3109  1711  3000               	movlw	0
  3110  1712  00F6               	movwf	?___fltol+3
  3111  1713  3000               	movlw	0
  3112  1714  00F5               	movwf	?___fltol+2
  3113  1715  3000               	movlw	0
  3114  1716  00F4               	movwf	?___fltol+1
  3115  1717  3000               	movlw	0
  3116  1718  00F3               	movwf	?___fltol
  3117  1719  2F7F               	goto	l557
  3118  171A                     l3051:
  3119  171A  0873               	movf	___fltol@f1,w
  3120  171B  00A0               	movwf	??___fltol
  3121  171C  0874               	movf	___fltol@f1+1,w
  3122  171D  00A1               	movwf	??___fltol+1
  3123  171E  0875               	movf	___fltol@f1+2,w
  3124  171F  00A2               	movwf	??___fltol+2
  3125  1720  0876               	movf	___fltol@f1+3,w
  3126  1721  00A3               	movwf	??___fltol+3
  3127  1722  301F               	movlw	31
  3128  1723                     u4355:
  3129  1723  1003               	clrc
  3130  1724  0CA3               	rrf	??___fltol+3,f
  3131  1725  0CA2               	rrf	??___fltol+2,f
  3132  1726  0CA1               	rrf	??___fltol+1,f
  3133  1727  0CA0               	rrf	??___fltol,f
  3134  1728                     u4350:
  3135  1728  3EFF               	addlw	-1
  3136  1729  1D03               	skipz
  3137  172A  2F23               	goto	u4355
  3138  172B  0820               	movf	??___fltol,w
  3139  172C  00A4               	movwf	??___fltol+4
  3140  172D  0824               	movf	??___fltol+4,w
  3141  172E  00A5               	movwf	___fltol@sign1
  3142  172F                     l3053:
  3143  172F  17F5               	bsf	___fltol@f1+2,7
  3144  1730                     l3055:
  3145  1730  30FF               	movlw	255
  3146  1731  05F3               	andwf	___fltol@f1,f
  3147  1732  30FF               	movlw	255
  3148  1733  05F4               	andwf	___fltol@f1+1,f
  3149  1734  30FF               	movlw	255
  3150  1735  05F5               	andwf	___fltol@f1+2,f
  3151  1736  3000               	movlw	0
  3152  1737  05F6               	andwf	___fltol@f1+3,f
  3153  1738                     l3057:
  3154  1738  3096               	movlw	150
  3155  1739  02A6               	subwf	___fltol@exp1,f
  3156  173A                     l3059:
  3157  173A  1FA6               	btfss	___fltol@exp1,7
  3158  173B  2F3D               	goto	u4361
  3159  173C  2F3E               	goto	u4360
  3160  173D                     u4361:
  3161  173D  2F58               	goto	l3069
  3162  173E                     u4360:
  3163  173E                     l3061:
  3164  173E  0826               	movf	___fltol@exp1,w
  3165  173F  3A80               	xorlw	128
  3166  1740  3E97               	addlw	151
  3167  1741  1803               	skipnc
  3168  1742  2F44               	goto	u4371
  3169  1743  2F45               	goto	u4370
  3170  1744                     u4371:
  3171  1744  2F46               	goto	l3067
  3172  1745                     u4370:
  3173  1745  2F11               	goto	l3047
  3174  1746                     l3067:
  3175  1746  3001               	movlw	1
  3176  1747                     u4385:
  3177  1747  1003               	clrc
  3178  1748  0CF6               	rrf	___fltol@f1+3,f
  3179  1749  0CF5               	rrf	___fltol@f1+2,f
  3180  174A  0CF4               	rrf	___fltol@f1+1,f
  3181  174B  0CF3               	rrf	___fltol@f1,f
  3182  174C  3EFF               	addlw	-1
  3183  174D  1D03               	skipz
  3184  174E  2F47               	goto	u4385
  3185  174F  3001               	movlw	1
  3186  1750  00A0               	movwf	??___fltol
  3187  1751  0820               	movf	??___fltol,w
  3188  1752  07A6               	addwf	___fltol@exp1,f
  3189  1753  1D03               	btfss	3,2
  3190  1754  2F56               	goto	u4391
  3191  1755  2F57               	goto	u4390
  3192  1756                     u4391:
  3193  1756  2F46               	goto	l3067
  3194  1757                     u4390:
  3195  1757  2F6F               	goto	l3077
  3196  1758                     l3069:
  3197  1758  3020               	movlw	32
  3198  1759  0226               	subwf	___fltol@exp1,w
  3199  175A  1C03               	skipc
  3200  175B  2F5D               	goto	u4401
  3201  175C  2F5E               	goto	u4400
  3202  175D                     u4401:
  3203  175D  2F6A               	goto	l564
  3204  175E                     u4400:
  3205  175E  2F11               	goto	l3047
  3206  175F                     l3075:
  3207  175F  3001               	movlw	1
  3208  1760  00A0               	movwf	??___fltol
  3209  1761                     u4415:
  3210  1761  1003               	clrc
  3211  1762  0DF3               	rlf	___fltol@f1,f
  3212  1763  0DF4               	rlf	___fltol@f1+1,f
  3213  1764  0DF5               	rlf	___fltol@f1+2,f
  3214  1765  0DF6               	rlf	___fltol@f1+3,f
  3215  1766  0BA0               	decfsz	??___fltol,f
  3216  1767  2F61               	goto	u4415
  3217  1768  3001               	movlw	1
  3218  1769  02A6               	subwf	___fltol@exp1,f
  3219  176A                     l564:
  3220  176A  0826               	movf	___fltol@exp1,w
  3221  176B  1D03               	btfss	3,2
  3222  176C  2F6E               	goto	u4421
  3223  176D  2F6F               	goto	u4420
  3224  176E                     u4421:
  3225  176E  2F5F               	goto	l3075
  3226  176F                     u4420:
  3227  176F                     l3077:
  3228  176F  0825               	movf	___fltol@sign1,w
  3229  1770  1903               	btfsc	3,2
  3230  1771  2F73               	goto	u4431
  3231  1772  2F74               	goto	u4430
  3232  1773                     u4431:
  3233  1773  2F7F               	goto	l567
  3234  1774                     u4430:
  3235  1774                     l3079:
  3236  1774  09F3               	comf	___fltol@f1,f
  3237  1775  09F4               	comf	___fltol@f1+1,f
  3238  1776  09F5               	comf	___fltol@f1+2,f
  3239  1777  09F6               	comf	___fltol@f1+3,f
  3240  1778  0AF3               	incf	___fltol@f1,f
  3241  1779  1903               	skipnz
  3242  177A  0AF4               	incf	___fltol@f1+1,f
  3243  177B  1903               	skipnz
  3244  177C  0AF5               	incf	___fltol@f1+2,f
  3245  177D  1903               	skipnz
  3246  177E  0AF6               	incf	___fltol@f1+3,f
  3247  177F                     l567:
  3248  177F                     l557:
  3249  177F  0008               	return
  3250  1780                     __end_of___fltol:
  3251                           
  3252                           	psect	text6
  3253  1652                     __ptext6:	
  3254 ;; *************** function ___flsub *****************
  3255 ;; Defined at:
  3256 ;;		line 242 in file "C:\Program Files\Microchip\xc8\v2.31\pic\sources\c90\common\sprcadd.c"
  3257 ;; Parameters:    Size  Location     Type
  3258 ;;  a               4    4[BANK1 ] long 
  3259 ;;  b               4    8[BANK1 ] long 
  3260 ;; Auto vars:     Size  Location     Type
  3261 ;;		None
  3262 ;; Return value:  Size  Location     Type
  3263 ;;                  4    4[BANK1 ] long 
  3264 ;; Registers used:
  3265 ;;		wreg, status,2, status,0, btemp+1, pclath, cstack
  3266 ;; Tracked objects:
  3267 ;;		On entry : 0/0
  3268 ;;		On exit  : 0/0
  3269 ;;		Unchanged: 0/0
  3270 ;; Data sizes:     COMMON   BANK0   BANK1   BANK3   BANK2
  3271 ;;      Params:         0       0       8       0       0
  3272 ;;      Locals:         0       0       0       0       0
  3273 ;;      Temps:          0       0       0       0       0
  3274 ;;      Totals:         0       0       8       0       0
  3275 ;;Total ram usage:        8 bytes
  3276 ;; Hardware stack levels used:    1
  3277 ;; Hardware stack levels required when called:    2
  3278 ;; This function calls:
  3279 ;;		___fladd
  3280 ;; This function is called by:
  3281 ;;		_floattostr_
  3282 ;; This function uses a non-reentrant model
  3283 ;;
  3284                           
  3285                           
  3286                           ;psect for function ___flsub
  3287  1652                     ___flsub:
  3288  1652                     l3081:	
  3289                           ;incstack = 0
  3290                           ; Regs used in ___flsub: [wreg+status,2+status,0+btemp+1+pclath+cstack]
  3291                           
  3292  1652  3080               	movlw	128
  3293  1653  1683               	bsf	3,5	;RP0=1, select bank1
  3294  1654  1303               	bcf	3,6	;RP1=0, select bank1
  3295  1655  06A7               	xorwf	(___flsub@a+3)^(0+128),f
  3296  1656                     l3083:
  3297  1656  082B               	movf	(___flsub@b+3)^(0+128),w
  3298  1657  1283               	bcf	3,5	;RP0=0, select bank0
  3299  1658  1303               	bcf	3,6	;RP1=0, select bank0
  3300  1659  00E1               	movwf	___fladd@b+3
  3301  165A  1683               	bsf	3,5	;RP0=1, select bank1
  3302  165B  1303               	bcf	3,6	;RP1=0, select bank1
  3303  165C  082A               	movf	(___flsub@b+2)^(0+128),w
  3304  165D  1283               	bcf	3,5	;RP0=0, select bank0
  3305  165E  1303               	bcf	3,6	;RP1=0, select bank0
  3306  165F  00E0               	movwf	___fladd@b+2
  3307  1660  1683               	bsf	3,5	;RP0=1, select bank1
  3308  1661  1303               	bcf	3,6	;RP1=0, select bank1
  3309  1662  0829               	movf	(___flsub@b+1)^(0+128),w
  3310  1663  1283               	bcf	3,5	;RP0=0, select bank0
  3311  1664  1303               	bcf	3,6	;RP1=0, select bank0
  3312  1665  00DF               	movwf	___fladd@b+1
  3313  1666  1683               	bsf	3,5	;RP0=1, select bank1
  3314  1667  1303               	bcf	3,6	;RP1=0, select bank1
  3315  1668  0828               	movf	___flsub@b^(0+128),w
  3316  1669  1283               	bcf	3,5	;RP0=0, select bank0
  3317  166A  1303               	bcf	3,6	;RP1=0, select bank0
  3318  166B  00DE               	movwf	___fladd@b
  3319  166C  1683               	bsf	3,5	;RP0=1, select bank1
  3320  166D  1303               	bcf	3,6	;RP1=0, select bank1
  3321  166E  0827               	movf	(___flsub@a+3)^(0+128),w
  3322  166F  1283               	bcf	3,5	;RP0=0, select bank0
  3323  1670  1303               	bcf	3,6	;RP1=0, select bank0
  3324  1671  00E5               	movwf	___fladd@a+3
  3325  1672  1683               	bsf	3,5	;RP0=1, select bank1
  3326  1673  1303               	bcf	3,6	;RP1=0, select bank1
  3327  1674  0826               	movf	(___flsub@a+2)^(0+128),w
  3328  1675  1283               	bcf	3,5	;RP0=0, select bank0
  3329  1676  1303               	bcf	3,6	;RP1=0, select bank0
  3330  1677  00E4               	movwf	___fladd@a+2
  3331  1678  1683               	bsf	3,5	;RP0=1, select bank1
  3332  1679  1303               	bcf	3,6	;RP1=0, select bank1
  3333  167A  0825               	movf	(___flsub@a+1)^(0+128),w
  3334  167B  1283               	bcf	3,5	;RP0=0, select bank0
  3335  167C  1303               	bcf	3,6	;RP1=0, select bank0
  3336  167D  00E3               	movwf	___fladd@a+1
  3337  167E  1683               	bsf	3,5	;RP0=1, select bank1
  3338  167F  1303               	bcf	3,6	;RP1=0, select bank1
  3339  1680  0824               	movf	___flsub@a^(0+128),w
  3340  1681  1283               	bcf	3,5	;RP0=0, select bank0
  3341  1682  1303               	bcf	3,6	;RP1=0, select bank0
  3342  1683  00E2               	movwf	___fladd@a
  3343  1684  120A  158A  24C0  160A  118A  	fcall	___fladd
  3344  1689  1283               	bcf	3,5	;RP0=0, select bank0
  3345  168A  1303               	bcf	3,6	;RP1=0, select bank0
  3346  168B  0861               	movf	?___fladd+3,w
  3347  168C  1683               	bsf	3,5	;RP0=1, select bank1
  3348  168D  1303               	bcf	3,6	;RP1=0, select bank1
  3349  168E  00A7               	movwf	(?___flsub+3)^(0+128)
  3350  168F  1283               	bcf	3,5	;RP0=0, select bank0
  3351  1690  1303               	bcf	3,6	;RP1=0, select bank0
  3352  1691  0860               	movf	?___fladd+2,w
  3353  1692  1683               	bsf	3,5	;RP0=1, select bank1
  3354  1693  1303               	bcf	3,6	;RP1=0, select bank1
  3355  1694  00A6               	movwf	(?___flsub+2)^(0+128)
  3356  1695  1283               	bcf	3,5	;RP0=0, select bank0
  3357  1696  1303               	bcf	3,6	;RP1=0, select bank0
  3358  1697  085F               	movf	?___fladd+1,w
  3359  1698  1683               	bsf	3,5	;RP0=1, select bank1
  3360  1699  1303               	bcf	3,6	;RP1=0, select bank1
  3361  169A  00A5               	movwf	(?___flsub+1)^(0+128)
  3362  169B  1283               	bcf	3,5	;RP0=0, select bank0
  3363  169C  1303               	bcf	3,6	;RP1=0, select bank0
  3364  169D  085E               	movf	?___fladd,w
  3365  169E  1683               	bsf	3,5	;RP0=1, select bank1
  3366  169F  1303               	bcf	3,6	;RP1=0, select bank1
  3367  16A0  00A4               	movwf	?___flsub^(0+128)
  3368  16A1                     l710:
  3369  16A1  0008               	return
  3370  16A2                     __end_of___flsub:
  3371                           
  3372                           	psect	text7
  3373  0CC0                     __ptext7:	
  3374 ;; *************** function ___fladd *****************
  3375 ;; Defined at:
  3376 ;;		line 10 in file "C:\Program Files\Microchip\xc8\v2.31\pic\sources\c90\common\sprcadd.c"
  3377 ;; Parameters:    Size  Location     Type
  3378 ;;  b               4   62[BANK0 ] long 
  3379 ;;  a               4   66[BANK0 ] long 
  3380 ;; Auto vars:     Size  Location     Type
  3381 ;;  grs             1    3[BANK1 ] unsigned char 
  3382 ;;  bexp            1    2[BANK1 ] unsigned char 
  3383 ;;  aexp            1    1[BANK1 ] unsigned char 
  3384 ;;  signs           1    0[BANK1 ] unsigned char 
  3385 ;; Return value:  Size  Location     Type
  3386 ;;                  4   62[BANK0 ] unsigned char 
  3387 ;; Registers used:
  3388 ;;		wreg, status,2, status,0, btemp+1
  3389 ;; Tracked objects:
  3390 ;;		On entry : 0/0
  3391 ;;		On exit  : 0/0
  3392 ;;		Unchanged: 0/0
  3393 ;; Data sizes:     COMMON   BANK0   BANK1   BANK3   BANK2
  3394 ;;      Params:         0       8       0       0       0
  3395 ;;      Locals:         0       0       4       0       0
  3396 ;;      Temps:          0       8       0       0       0
  3397 ;;      Totals:         0      16       4       0       0
  3398 ;;Total ram usage:       20 bytes
  3399 ;; Hardware stack levels used:    1
  3400 ;; Hardware stack levels required when called:    1
  3401 ;; This function calls:
  3402 ;;		Nothing
  3403 ;; This function is called by:
  3404 ;;		_floattostr_
  3405 ;;		___flsub
  3406 ;; This function uses a non-reentrant model
  3407 ;;
  3408                           
  3409                           
  3410                           ;psect for function ___fladd
  3411  0CC0                     ___fladd:
  3412  0CC0                     l2831:	
  3413                           ;incstack = 0
  3414                           ; Regs used in ___fladd: [wreg+status,2+status,0+btemp+1]
  3415                           
  3416  0CC0  1283               	bcf	3,5	;RP0=0, select bank0
  3417  0CC1  1303               	bcf	3,6	;RP1=0, select bank0
  3418  0CC2  0861               	movf	___fladd@b+3,w
  3419  0CC3  3980               	andlw	128
  3420  0CC4  00E6               	movwf	??___fladd
  3421  0CC5  0866               	movf	??___fladd,w
  3422  0CC6  1683               	bsf	3,5	;RP0=1, select bank1
  3423  0CC7  1303               	bcf	3,6	;RP1=0, select bank1
  3424  0CC8  00A0               	movwf	___fladd@signs^(0+128)
  3425  0CC9                     l2833:
  3426  0CC9  1283               	bcf	3,5	;RP0=0, select bank0
  3427  0CCA  1303               	bcf	3,6	;RP1=0, select bank0
  3428  0CCB  0861               	movf	___fladd@b+3,w
  3429  0CCC  00E6               	movwf	??___fladd
  3430  0CCD  0766               	addwf	??___fladd,w
  3431  0CCE  00E7               	movwf	??___fladd+1
  3432  0CCF  0867               	movf	??___fladd+1,w
  3433  0CD0  1683               	bsf	3,5	;RP0=1, select bank1
  3434  0CD1  1303               	bcf	3,6	;RP1=0, select bank1
  3435  0CD2  00A2               	movwf	___fladd@bexp^(0+128)
  3436  0CD3                     l2835:
  3437  0CD3  1283               	bcf	3,5	;RP0=0, select bank0
  3438  0CD4  1303               	bcf	3,6	;RP1=0, select bank0
  3439  0CD5  1FE0               	btfss	___fladd@b+2,7
  3440  0CD6  2CD8               	goto	u3811
  3441  0CD7  2CD9               	goto	u3810
  3442  0CD8                     u3811:
  3443  0CD8  2CDC               	goto	l2839
  3444  0CD9                     u3810:
  3445  0CD9                     l2837:
  3446  0CD9  1683               	bsf	3,5	;RP0=1, select bank1
  3447  0CDA  1303               	bcf	3,6	;RP1=0, select bank1
  3448  0CDB  1422               	bsf	___fladd@bexp^(0+128),0
  3449  0CDC                     l2839:
  3450  0CDC  1683               	bsf	3,5	;RP0=1, select bank1
  3451  0CDD  1303               	bcf	3,6	;RP1=0, select bank1
  3452  0CDE  0822               	movf	___fladd@bexp^(0+128),w
  3453  0CDF  1903               	btfsc	3,2
  3454  0CE0  2CE2               	goto	u3821
  3455  0CE1  2CE3               	goto	u3820
  3456  0CE2                     u3821:
  3457  0CE2  2CF6               	goto	l2849
  3458  0CE3                     u3820:
  3459  0CE3                     l2841:
  3460  0CE3  0A22               	incf	___fladd@bexp^(0+128),w
  3461  0CE4  1D03               	btfss	3,2
  3462  0CE5  2CE7               	goto	u3831
  3463  0CE6  2CE8               	goto	u3830
  3464  0CE7                     u3831:
  3465  0CE7  2CF2               	goto	l2845
  3466  0CE8                     u3830:
  3467  0CE8                     l2843:
  3468  0CE8  3000               	movlw	0
  3469  0CE9  1283               	bcf	3,5	;RP0=0, select bank0
  3470  0CEA  1303               	bcf	3,6	;RP1=0, select bank0
  3471  0CEB  00E1               	movwf	___fladd@b+3
  3472  0CEC  3000               	movlw	0
  3473  0CED  00E0               	movwf	___fladd@b+2
  3474  0CEE  3000               	movlw	0
  3475  0CEF  00DF               	movwf	___fladd@b+1
  3476  0CF0  3000               	movlw	0
  3477  0CF1  00DE               	movwf	___fladd@b
  3478  0CF2                     l2845:
  3479  0CF2  1283               	bcf	3,5	;RP0=0, select bank0
  3480  0CF3  17E0               	bsf	___fladd@b+2,7
  3481  0CF4                     l2847:
  3482  0CF4  01E1               	clrf	___fladd@b+3
  3483  0CF5  2D00               	goto	l2851
  3484  0CF6                     l2849:
  3485  0CF6  3000               	movlw	0
  3486  0CF7  1283               	bcf	3,5	;RP0=0, select bank0
  3487  0CF8  1303               	bcf	3,6	;RP1=0, select bank0
  3488  0CF9  00E1               	movwf	___fladd@b+3
  3489  0CFA  3000               	movlw	0
  3490  0CFB  00E0               	movwf	___fladd@b+2
  3491  0CFC  3000               	movlw	0
  3492  0CFD  00DF               	movwf	___fladd@b+1
  3493  0CFE  3000               	movlw	0
  3494  0CFF  00DE               	movwf	___fladd@b
  3495  0D00                     l2851:
  3496  0D00  0865               	movf	___fladd@a+3,w
  3497  0D01  3980               	andlw	128
  3498  0D02  00E6               	movwf	??___fladd
  3499  0D03  0866               	movf	??___fladd,w
  3500  0D04  1683               	bsf	3,5	;RP0=1, select bank1
  3501  0D05  1303               	bcf	3,6	;RP1=0, select bank1
  3502  0D06  00A1               	movwf	___fladd@aexp^(0+128)
  3503  0D07                     l2853:
  3504  0D07  0821               	movf	___fladd@aexp^(0+128),w
  3505  0D08  0620               	xorwf	___fladd@signs^(0+128),w
  3506  0D09  1903               	skipnz
  3507  0D0A  2D0C               	goto	u3841
  3508  0D0B  2D0D               	goto	u3840
  3509  0D0C                     u3841:
  3510  0D0C  2D0E               	goto	l2857
  3511  0D0D                     u3840:
  3512  0D0D                     l2855:
  3513  0D0D  1720               	bsf	___fladd@signs^(0+128),6
  3514  0D0E                     l2857:
  3515  0D0E  1283               	bcf	3,5	;RP0=0, select bank0
  3516  0D0F  1303               	bcf	3,6	;RP1=0, select bank0
  3517  0D10  0865               	movf	___fladd@a+3,w
  3518  0D11  00E6               	movwf	??___fladd
  3519  0D12  0766               	addwf	??___fladd,w
  3520  0D13  00E7               	movwf	??___fladd+1
  3521  0D14  0867               	movf	??___fladd+1,w
  3522  0D15  1683               	bsf	3,5	;RP0=1, select bank1
  3523  0D16  1303               	bcf	3,6	;RP1=0, select bank1
  3524  0D17  00A1               	movwf	___fladd@aexp^(0+128)
  3525  0D18                     l2859:
  3526  0D18  1283               	bcf	3,5	;RP0=0, select bank0
  3527  0D19  1303               	bcf	3,6	;RP1=0, select bank0
  3528  0D1A  1FE4               	btfss	___fladd@a+2,7
  3529  0D1B  2D1D               	goto	u3851
  3530  0D1C  2D1E               	goto	u3850
  3531  0D1D                     u3851:
  3532  0D1D  2D21               	goto	l2863
  3533  0D1E                     u3850:
  3534  0D1E                     l2861:
  3535  0D1E  1683               	bsf	3,5	;RP0=1, select bank1
  3536  0D1F  1303               	bcf	3,6	;RP1=0, select bank1
  3537  0D20  1421               	bsf	___fladd@aexp^(0+128),0
  3538  0D21                     l2863:
  3539  0D21  1683               	bsf	3,5	;RP0=1, select bank1
  3540  0D22  1303               	bcf	3,6	;RP1=0, select bank1
  3541  0D23  0821               	movf	___fladd@aexp^(0+128),w
  3542  0D24  1903               	btfsc	3,2
  3543  0D25  2D27               	goto	u3861
  3544  0D26  2D28               	goto	u3860
  3545  0D27                     u3861:
  3546  0D27  2D3B               	goto	l2873
  3547  0D28                     u3860:
  3548  0D28                     l2865:
  3549  0D28  0A21               	incf	___fladd@aexp^(0+128),w
  3550  0D29  1D03               	btfss	3,2
  3551  0D2A  2D2C               	goto	u3871
  3552  0D2B  2D2D               	goto	u3870
  3553  0D2C                     u3871:
  3554  0D2C  2D37               	goto	l2869
  3555  0D2D                     u3870:
  3556  0D2D                     l2867:
  3557  0D2D  3000               	movlw	0
  3558  0D2E  1283               	bcf	3,5	;RP0=0, select bank0
  3559  0D2F  1303               	bcf	3,6	;RP1=0, select bank0
  3560  0D30  00E5               	movwf	___fladd@a+3
  3561  0D31  3000               	movlw	0
  3562  0D32  00E4               	movwf	___fladd@a+2
  3563  0D33  3000               	movlw	0
  3564  0D34  00E3               	movwf	___fladd@a+1
  3565  0D35  3000               	movlw	0
  3566  0D36  00E2               	movwf	___fladd@a
  3567  0D37                     l2869:
  3568  0D37  1283               	bcf	3,5	;RP0=0, select bank0
  3569  0D38  17E4               	bsf	___fladd@a+2,7
  3570  0D39                     l2871:
  3571  0D39  01E5               	clrf	___fladd@a+3
  3572  0D3A  2D45               	goto	l664
  3573  0D3B                     l2873:
  3574  0D3B  3000               	movlw	0
  3575  0D3C  1283               	bcf	3,5	;RP0=0, select bank0
  3576  0D3D  1303               	bcf	3,6	;RP1=0, select bank0
  3577  0D3E  00E5               	movwf	___fladd@a+3
  3578  0D3F  3000               	movlw	0
  3579  0D40  00E4               	movwf	___fladd@a+2
  3580  0D41  3000               	movlw	0
  3581  0D42  00E3               	movwf	___fladd@a+1
  3582  0D43  3000               	movlw	0
  3583  0D44  00E2               	movwf	___fladd@a
  3584  0D45                     l664:
  3585  0D45  1683               	bsf	3,5	;RP0=1, select bank1
  3586  0D46  1303               	bcf	3,6	;RP1=0, select bank1
  3587  0D47  0822               	movf	___fladd@bexp^(0+128),w
  3588  0D48  0221               	subwf	___fladd@aexp^(0+128),w
  3589  0D49  1803               	skipnc
  3590  0D4A  2D4C               	goto	u3881
  3591  0D4B  2D4D               	goto	u3880
  3592  0D4C                     u3881:
  3593  0D4C  2DC3               	goto	l2909
  3594  0D4D                     u3880:
  3595  0D4D                     l2875:
  3596  0D4D  1F20               	btfss	___fladd@signs^(0+128),6
  3597  0D4E  2D50               	goto	u3891
  3598  0D4F  2D51               	goto	u3890
  3599  0D50                     u3891:
  3600  0D50  2D59               	goto	l2879
  3601  0D51                     u3890:
  3602  0D51                     l2877:
  3603  0D51  3080               	movlw	128
  3604  0D52  1283               	bcf	3,5	;RP0=0, select bank0
  3605  0D53  1303               	bcf	3,6	;RP1=0, select bank0
  3606  0D54  00E6               	movwf	??___fladd
  3607  0D55  0866               	movf	??___fladd,w
  3608  0D56  1683               	bsf	3,5	;RP0=1, select bank1
  3609  0D57  1303               	bcf	3,6	;RP1=0, select bank1
  3610  0D58  06A0               	xorwf	___fladd@signs^(0+128),f
  3611  0D59                     l2879:
  3612  0D59  0822               	movf	___fladd@bexp^(0+128),w
  3613  0D5A  1283               	bcf	3,5	;RP0=0, select bank0
  3614  0D5B  1303               	bcf	3,6	;RP1=0, select bank0
  3615  0D5C  00E6               	movwf	??___fladd
  3616  0D5D  0866               	movf	??___fladd,w
  3617  0D5E  1683               	bsf	3,5	;RP0=1, select bank1
  3618  0D5F  1303               	bcf	3,6	;RP1=0, select bank1
  3619  0D60  00A3               	movwf	___fladd@grs^(0+128)
  3620  0D61                     l2881:
  3621  0D61  0821               	movf	___fladd@aexp^(0+128),w
  3622  0D62  1283               	bcf	3,5	;RP0=0, select bank0
  3623  0D63  1303               	bcf	3,6	;RP1=0, select bank0
  3624  0D64  00E6               	movwf	??___fladd
  3625  0D65  0866               	movf	??___fladd,w
  3626  0D66  1683               	bsf	3,5	;RP0=1, select bank1
  3627  0D67  1303               	bcf	3,6	;RP1=0, select bank1
  3628  0D68  00A2               	movwf	___fladd@bexp^(0+128)
  3629  0D69                     l2883:
  3630  0D69  0823               	movf	___fladd@grs^(0+128),w
  3631  0D6A  1283               	bcf	3,5	;RP0=0, select bank0
  3632  0D6B  1303               	bcf	3,6	;RP1=0, select bank0
  3633  0D6C  00E6               	movwf	??___fladd
  3634  0D6D  0866               	movf	??___fladd,w
  3635  0D6E  1683               	bsf	3,5	;RP0=1, select bank1
  3636  0D6F  1303               	bcf	3,6	;RP1=0, select bank1
  3637  0D70  00A1               	movwf	___fladd@aexp^(0+128)
  3638  0D71                     l2885:
  3639  0D71  1283               	bcf	3,5	;RP0=0, select bank0
  3640  0D72  1303               	bcf	3,6	;RP1=0, select bank0
  3641  0D73  085E               	movf	___fladd@b,w
  3642  0D74  00E6               	movwf	??___fladd
  3643  0D75  0866               	movf	??___fladd,w
  3644  0D76  1683               	bsf	3,5	;RP0=1, select bank1
  3645  0D77  1303               	bcf	3,6	;RP1=0, select bank1
  3646  0D78  00A3               	movwf	___fladd@grs^(0+128)
  3647  0D79                     l2887:
  3648  0D79  1283               	bcf	3,5	;RP0=0, select bank0
  3649  0D7A  1303               	bcf	3,6	;RP1=0, select bank0
  3650  0D7B  0862               	movf	___fladd@a,w
  3651  0D7C  00E6               	movwf	??___fladd
  3652  0D7D  0866               	movf	??___fladd,w
  3653  0D7E  00DE               	movwf	___fladd@b
  3654  0D7F                     l2889:
  3655  0D7F  1683               	bsf	3,5	;RP0=1, select bank1
  3656  0D80  1303               	bcf	3,6	;RP1=0, select bank1
  3657  0D81  0823               	movf	___fladd@grs^(0+128),w
  3658  0D82  1283               	bcf	3,5	;RP0=0, select bank0
  3659  0D83  1303               	bcf	3,6	;RP1=0, select bank0
  3660  0D84  00E6               	movwf	??___fladd
  3661  0D85  0866               	movf	??___fladd,w
  3662  0D86  00E2               	movwf	___fladd@a
  3663  0D87                     l2891:
  3664  0D87  085F               	movf	___fladd@b+1,w
  3665  0D88  00E6               	movwf	??___fladd
  3666  0D89  0866               	movf	??___fladd,w
  3667  0D8A  1683               	bsf	3,5	;RP0=1, select bank1
  3668  0D8B  1303               	bcf	3,6	;RP1=0, select bank1
  3669  0D8C  00A3               	movwf	___fladd@grs^(0+128)
  3670  0D8D                     l2893:
  3671  0D8D  1283               	bcf	3,5	;RP0=0, select bank0
  3672  0D8E  1303               	bcf	3,6	;RP1=0, select bank0
  3673  0D8F  0863               	movf	___fladd@a+1,w
  3674  0D90  00E6               	movwf	??___fladd
  3675  0D91  0866               	movf	??___fladd,w
  3676  0D92  00DF               	movwf	___fladd@b+1
  3677  0D93                     l2895:
  3678  0D93  1683               	bsf	3,5	;RP0=1, select bank1
  3679  0D94  1303               	bcf	3,6	;RP1=0, select bank1
  3680  0D95  0823               	movf	___fladd@grs^(0+128),w
  3681  0D96  1283               	bcf	3,5	;RP0=0, select bank0
  3682  0D97  1303               	bcf	3,6	;RP1=0, select bank0
  3683  0D98  00E6               	movwf	??___fladd
  3684  0D99  0866               	movf	??___fladd,w
  3685  0D9A  00E3               	movwf	___fladd@a+1
  3686  0D9B                     l2897:
  3687  0D9B  0860               	movf	___fladd@b+2,w
  3688  0D9C  00E6               	movwf	??___fladd
  3689  0D9D  0866               	movf	??___fladd,w
  3690  0D9E  1683               	bsf	3,5	;RP0=1, select bank1
  3691  0D9F  1303               	bcf	3,6	;RP1=0, select bank1
  3692  0DA0  00A3               	movwf	___fladd@grs^(0+128)
  3693  0DA1                     l2899:
  3694  0DA1  1283               	bcf	3,5	;RP0=0, select bank0
  3695  0DA2  1303               	bcf	3,6	;RP1=0, select bank0
  3696  0DA3  0864               	movf	___fladd@a+2,w
  3697  0DA4  00E6               	movwf	??___fladd
  3698  0DA5  0866               	movf	??___fladd,w
  3699  0DA6  00E0               	movwf	___fladd@b+2
  3700  0DA7                     l2901:
  3701  0DA7  1683               	bsf	3,5	;RP0=1, select bank1
  3702  0DA8  1303               	bcf	3,6	;RP1=0, select bank1
  3703  0DA9  0823               	movf	___fladd@grs^(0+128),w
  3704  0DAA  1283               	bcf	3,5	;RP0=0, select bank0
  3705  0DAB  1303               	bcf	3,6	;RP1=0, select bank0
  3706  0DAC  00E6               	movwf	??___fladd
  3707  0DAD  0866               	movf	??___fladd,w
  3708  0DAE  00E4               	movwf	___fladd@a+2
  3709  0DAF                     l2903:
  3710  0DAF  0861               	movf	___fladd@b+3,w
  3711  0DB0  00E6               	movwf	??___fladd
  3712  0DB1  0866               	movf	??___fladd,w
  3713  0DB2  1683               	bsf	3,5	;RP0=1, select bank1
  3714  0DB3  1303               	bcf	3,6	;RP1=0, select bank1
  3715  0DB4  00A3               	movwf	___fladd@grs^(0+128)
  3716  0DB5                     l2905:
  3717  0DB5  1283               	bcf	3,5	;RP0=0, select bank0
  3718  0DB6  1303               	bcf	3,6	;RP1=0, select bank0
  3719  0DB7  0865               	movf	___fladd@a+3,w
  3720  0DB8  00E6               	movwf	??___fladd
  3721  0DB9  0866               	movf	??___fladd,w
  3722  0DBA  00E1               	movwf	___fladd@b+3
  3723  0DBB                     l2907:
  3724  0DBB  1683               	bsf	3,5	;RP0=1, select bank1
  3725  0DBC  1303               	bcf	3,6	;RP1=0, select bank1
  3726  0DBD  0823               	movf	___fladd@grs^(0+128),w
  3727  0DBE  1283               	bcf	3,5	;RP0=0, select bank0
  3728  0DBF  1303               	bcf	3,6	;RP1=0, select bank0
  3729  0DC0  00E6               	movwf	??___fladd
  3730  0DC1  0866               	movf	??___fladd,w
  3731  0DC2  00E5               	movwf	___fladd@a+3
  3732  0DC3                     l2909:
  3733  0DC3  1683               	bsf	3,5	;RP0=1, select bank1
  3734  0DC4  1303               	bcf	3,6	;RP1=0, select bank1
  3735  0DC5  01A3               	clrf	___fladd@grs^(0+128)
  3736  0DC6                     l2911:
  3737  0DC6  0821               	movf	___fladd@aexp^(0+128),w
  3738  0DC7  1283               	bcf	3,5	;RP0=0, select bank0
  3739  0DC8  1303               	bcf	3,6	;RP1=0, select bank0
  3740  0DC9  00E6               	movwf	??___fladd
  3741  0DCA  01E7               	clrf	??___fladd+1
  3742  0DCB  0867               	movf	??___fladd+1,w
  3743  0DCC  00E9               	movwf	??___fladd+3
  3744  0DCD  1683               	bsf	3,5	;RP0=1, select bank1
  3745  0DCE  1303               	bcf	3,6	;RP1=0, select bank1
  3746  0DCF  0822               	movf	___fladd@bexp^(0+128),w
  3747  0DD0  1283               	bcf	3,5	;RP0=0, select bank0
  3748  0DD1  1303               	bcf	3,6	;RP1=0, select bank0
  3749  0DD2  0266               	subwf	??___fladd,w
  3750  0DD3  00E8               	movwf	??___fladd+2
  3751  0DD4  1C03               	skipc
  3752  0DD5  03E9               	decf	??___fladd+3,f
  3753  0DD6  0869               	movf	??___fladd+3,w
  3754  0DD7  3A80               	xorlw	128
  3755  0DD8  00FF               	movwf	btemp+1
  3756  0DD9  3080               	movlw	128
  3757  0DDA  027F               	subwf	btemp+1,w
  3758  0DDB  1D03               	skipz
  3759  0DDC  2DDF               	goto	u3905
  3760  0DDD  301A               	movlw	26
  3761  0DDE  0268               	subwf	??___fladd+2,w
  3762  0DDF                     u3905:
  3763  0DDF  1C03               	skipc
  3764  0DE0  2DE2               	goto	u3901
  3765  0DE1  2DE3               	goto	u3900
  3766  0DE2                     u3901:
  3767  0DE2  2E35               	goto	l2927
  3768  0DE3                     u3900:
  3769  0DE3                     l2913:
  3770  0DE3  1283               	bcf	3,5	;RP0=0, select bank0
  3771  0DE4  1303               	bcf	3,6	;RP1=0, select bank0
  3772  0DE5  0861               	movf	___fladd@b+3,w
  3773  0DE6  0460               	iorwf	___fladd@b+2,w
  3774  0DE7  045F               	iorwf	___fladd@b+1,w
  3775  0DE8  045E               	iorwf	___fladd@b,w
  3776  0DE9  1D03               	skipz
  3777  0DEA  2DEC               	goto	u3911
  3778  0DEB  2DEE               	goto	u3910
  3779  0DEC                     u3911:
  3780  0DEC  3001               	movlw	1
  3781  0DED  2DEF               	goto	u3920
  3782  0DEE                     u3910:
  3783  0DEE  3000               	movlw	0
  3784  0DEF                     u3920:
  3785  0DEF  00E6               	movwf	??___fladd
  3786  0DF0  0866               	movf	??___fladd,w
  3787  0DF1  1683               	bsf	3,5	;RP0=1, select bank1
  3788  0DF2  1303               	bcf	3,6	;RP1=0, select bank1
  3789  0DF3  00A3               	movwf	___fladd@grs^(0+128)
  3790  0DF4  3000               	movlw	0
  3791  0DF5  1283               	bcf	3,5	;RP0=0, select bank0
  3792  0DF6  1303               	bcf	3,6	;RP1=0, select bank0
  3793  0DF7  00E1               	movwf	___fladd@b+3
  3794  0DF8  3000               	movlw	0
  3795  0DF9  00E0               	movwf	___fladd@b+2
  3796  0DFA  3000               	movlw	0
  3797  0DFB  00DF               	movwf	___fladd@b+1
  3798  0DFC  3000               	movlw	0
  3799  0DFD  00DE               	movwf	___fladd@b
  3800  0DFE  1683               	bsf	3,5	;RP0=1, select bank1
  3801  0DFF  1303               	bcf	3,6	;RP1=0, select bank1
  3802  0E00  0821               	movf	___fladd@aexp^(0+128),w
  3803  0E01  1283               	bcf	3,5	;RP0=0, select bank0
  3804  0E02  1303               	bcf	3,6	;RP1=0, select bank0
  3805  0E03  00E6               	movwf	??___fladd
  3806  0E04  0866               	movf	??___fladd,w
  3807  0E05  1683               	bsf	3,5	;RP0=1, select bank1
  3808  0E06  1303               	bcf	3,6	;RP1=0, select bank1
  3809  0E07  00A2               	movwf	___fladd@bexp^(0+128)
  3810  0E08  2E3D               	goto	l668
  3811  0E09                     l670:
  3812  0E09  1C23               	btfss	___fladd@grs^(0+128),0
  3813  0E0A  2E0C               	goto	u3931
  3814  0E0B  2E0D               	goto	u3930
  3815  0E0C                     u3931:
  3816  0E0C  2E1A               	goto	l2917
  3817  0E0D                     u3930:
  3818  0E0D                     l2915:
  3819  0E0D  0823               	movf	___fladd@grs^(0+128),w
  3820  0E0E  1283               	bcf	3,5	;RP0=0, select bank0
  3821  0E0F  1303               	bcf	3,6	;RP1=0, select bank0
  3822  0E10  00E6               	movwf	??___fladd
  3823  0E11  1003               	clrc
  3824  0E12  0C66               	rrf	??___fladd,w
  3825  0E13  3801               	iorlw	1
  3826  0E14  00E7               	movwf	??___fladd+1
  3827  0E15  0867               	movf	??___fladd+1,w
  3828  0E16  1683               	bsf	3,5	;RP0=1, select bank1
  3829  0E17  1303               	bcf	3,6	;RP1=0, select bank1
  3830  0E18  00A3               	movwf	___fladd@grs^(0+128)
  3831  0E19  2E1C               	goto	l2919
  3832  0E1A                     l2917:
  3833  0E1A  1003               	clrc
  3834  0E1B  0CA3               	rrf	___fladd@grs^(0+128),f
  3835  0E1C                     l2919:
  3836  0E1C  1283               	bcf	3,5	;RP0=0, select bank0
  3837  0E1D  1303               	bcf	3,6	;RP1=0, select bank0
  3838  0E1E  1C5E               	btfss	___fladd@b,0
  3839  0E1F  2E21               	goto	u3941
  3840  0E20  2E22               	goto	u3940
  3841  0E21                     u3941:
  3842  0E21  2E25               	goto	l2923
  3843  0E22                     u3940:
  3844  0E22                     l2921:
  3845  0E22  1683               	bsf	3,5	;RP0=1, select bank1
  3846  0E23  1303               	bcf	3,6	;RP1=0, select bank1
  3847  0E24  17A3               	bsf	___fladd@grs^(0+128),7
  3848  0E25                     l2923:
  3849  0E25  3001               	movlw	1
  3850  0E26  1283               	bcf	3,5	;RP0=0, select bank0
  3851  0E27  00E6               	movwf	??___fladd
  3852  0E28                     u3955:
  3853  0E28  0D61               	rlf	___fladd@b+3,w
  3854  0E29  0CE1               	rrf	___fladd@b+3,f
  3855  0E2A  0CE0               	rrf	___fladd@b+2,f
  3856  0E2B  0CDF               	rrf	___fladd@b+1,f
  3857  0E2C  0CDE               	rrf	___fladd@b,f
  3858  0E2D  0BE6               	decfsz	??___fladd& (0+127),f
  3859  0E2E  2E28               	goto	u3955
  3860  0E2F                     l2925:
  3861  0E2F  3001               	movlw	1
  3862  0E30  00E6               	movwf	??___fladd
  3863  0E31  0866               	movf	??___fladd,w
  3864  0E32  1683               	bsf	3,5	;RP0=1, select bank1
  3865  0E33  1303               	bcf	3,6	;RP1=0, select bank1
  3866  0E34  07A2               	addwf	___fladd@bexp^(0+128),f
  3867  0E35                     l2927:
  3868  0E35  1683               	bsf	3,5	;RP0=1, select bank1
  3869  0E36  1303               	bcf	3,6	;RP1=0, select bank1
  3870  0E37  0821               	movf	___fladd@aexp^(0+128),w
  3871  0E38  0222               	subwf	___fladd@bexp^(0+128),w
  3872  0E39  1C03               	skipc
  3873  0E3A  2E3C               	goto	u3961
  3874  0E3B  2E3D               	goto	u3960
  3875  0E3C                     u3961:
  3876  0E3C  2E09               	goto	l670
  3877  0E3D                     u3960:
  3878  0E3D                     l668:
  3879  0E3D  1B20               	btfsc	___fladd@signs^(0+128),6
  3880  0E3E  2E40               	goto	u3971
  3881  0E3F  2E41               	goto	u3970
  3882  0E40                     u3971:
  3883  0E40  2E9D               	goto	l2953
  3884  0E41                     u3970:
  3885  0E41                     l2929:
  3886  0E41  0822               	movf	___fladd@bexp^(0+128),w
  3887  0E42  1D03               	btfss	3,2
  3888  0E43  2E45               	goto	u3981
  3889  0E44  2E46               	goto	u3980
  3890  0E45                     u3981:
  3891  0E45  2E51               	goto	l2935
  3892  0E46                     u3980:
  3893  0E46                     l2931:
  3894  0E46  3000               	movlw	0
  3895  0E47  1283               	bcf	3,5	;RP0=0, select bank0
  3896  0E48  1303               	bcf	3,6	;RP1=0, select bank0
  3897  0E49  00E1               	movwf	?___fladd+3
  3898  0E4A  3000               	movlw	0
  3899  0E4B  00E0               	movwf	?___fladd+2
  3900  0E4C  3000               	movlw	0
  3901  0E4D  00DF               	movwf	?___fladd+1
  3902  0E4E  3000               	movlw	0
  3903  0E4F  00DE               	movwf	?___fladd
  3904  0E50  2FFF               	goto	l677
  3905  0E51                     l2935:
  3906  0E51  1283               	bcf	3,5	;RP0=0, select bank0
  3907  0E52  1303               	bcf	3,6	;RP1=0, select bank0
  3908  0E53  0862               	movf	___fladd@a,w
  3909  0E54  07DE               	addwf	___fladd@b,f
  3910  0E55  0863               	movf	___fladd@a+1,w
  3911  0E56  1103               	clrz
  3912  0E57  1803               	skipnc
  3913  0E58  3E01               	addlw	1
  3914  0E59  1903               	skipnz
  3915  0E5A  2E5C               	goto	u3991
  3916  0E5B  07DF               	addwf	___fladd@b+1,f
  3917  0E5C                     u3991:
  3918  0E5C  0864               	movf	___fladd@a+2,w
  3919  0E5D  1103               	clrz
  3920  0E5E  1803               	skipnc
  3921  0E5F  3E01               	addlw	1
  3922  0E60  1903               	skipnz
  3923  0E61  2E63               	goto	u3992
  3924  0E62  07E0               	addwf	___fladd@b+2,f
  3925  0E63                     u3992:
  3926  0E63  0865               	movf	___fladd@a+3,w
  3927  0E64  1103               	clrz
  3928  0E65  1803               	skipnc
  3929  0E66  3E01               	addlw	1
  3930  0E67  1903               	skipnz
  3931  0E68  2E6A               	goto	u3993
  3932  0E69  07E1               	addwf	___fladd@b+3,f
  3933  0E6A                     u3993:
  3934  0E6A                     l2937:
  3935  0E6A  1C61               	btfss	___fladd@b+3,0
  3936  0E6B  2E6D               	goto	u4001
  3937  0E6C  2E6E               	goto	u4000
  3938  0E6D                     u4001:
  3939  0E6D  2F63               	goto	l2987
  3940  0E6E                     u4000:
  3941  0E6E                     l2939:
  3942  0E6E  1683               	bsf	3,5	;RP0=1, select bank1
  3943  0E6F  1303               	bcf	3,6	;RP1=0, select bank1
  3944  0E70  1C23               	btfss	___fladd@grs^(0+128),0
  3945  0E71  2E73               	goto	u4011
  3946  0E72  2E74               	goto	u4010
  3947  0E73                     u4011:
  3948  0E73  2E81               	goto	l2943
  3949  0E74                     u4010:
  3950  0E74                     l2941:
  3951  0E74  0823               	movf	___fladd@grs^(0+128),w
  3952  0E75  1283               	bcf	3,5	;RP0=0, select bank0
  3953  0E76  1303               	bcf	3,6	;RP1=0, select bank0
  3954  0E77  00E6               	movwf	??___fladd
  3955  0E78  1003               	clrc
  3956  0E79  0C66               	rrf	??___fladd,w
  3957  0E7A  3801               	iorlw	1
  3958  0E7B  00E7               	movwf	??___fladd+1
  3959  0E7C  0867               	movf	??___fladd+1,w
  3960  0E7D  1683               	bsf	3,5	;RP0=1, select bank1
  3961  0E7E  1303               	bcf	3,6	;RP1=0, select bank1
  3962  0E7F  00A3               	movwf	___fladd@grs^(0+128)
  3963  0E80  2E83               	goto	l2945
  3964  0E81                     l2943:
  3965  0E81  1003               	clrc
  3966  0E82  0CA3               	rrf	___fladd@grs^(0+128),f
  3967  0E83                     l2945:
  3968  0E83  1283               	bcf	3,5	;RP0=0, select bank0
  3969  0E84  1303               	bcf	3,6	;RP1=0, select bank0
  3970  0E85  1C5E               	btfss	___fladd@b,0
  3971  0E86  2E88               	goto	u4021
  3972  0E87  2E89               	goto	u4020
  3973  0E88                     u4021:
  3974  0E88  2E8C               	goto	l2949
  3975  0E89                     u4020:
  3976  0E89                     l2947:
  3977  0E89  1683               	bsf	3,5	;RP0=1, select bank1
  3978  0E8A  1303               	bcf	3,6	;RP1=0, select bank1
  3979  0E8B  17A3               	bsf	___fladd@grs^(0+128),7
  3980  0E8C                     l2949:
  3981  0E8C  3001               	movlw	1
  3982  0E8D  1283               	bcf	3,5	;RP0=0, select bank0
  3983  0E8E  00E6               	movwf	??___fladd
  3984  0E8F                     u4035:
  3985  0E8F  0D61               	rlf	___fladd@b+3,w
  3986  0E90  0CE1               	rrf	___fladd@b+3,f
  3987  0E91  0CE0               	rrf	___fladd@b+2,f
  3988  0E92  0CDF               	rrf	___fladd@b+1,f
  3989  0E93  0CDE               	rrf	___fladd@b,f
  3990  0E94  0BE6               	decfsz	??___fladd& (0+127),f
  3991  0E95  2E8F               	goto	u4035
  3992  0E96                     l2951:
  3993  0E96  3001               	movlw	1
  3994  0E97  00E6               	movwf	??___fladd
  3995  0E98  0866               	movf	??___fladd,w
  3996  0E99  1683               	bsf	3,5	;RP0=1, select bank1
  3997  0E9A  1303               	bcf	3,6	;RP1=0, select bank1
  3998  0E9B  07A2               	addwf	___fladd@bexp^(0+128),f
  3999  0E9C  2F63               	goto	l2987
  4000  0E9D                     l2953:
  4001  0E9D  1283               	bcf	3,5	;RP0=0, select bank0
  4002  0E9E  1303               	bcf	3,6	;RP1=0, select bank0
  4003  0E9F  0861               	movf	___fladd@b+3,w
  4004  0EA0  3A80               	xorlw	128
  4005  0EA1  00FF               	movwf	btemp+1
  4006  0EA2  0865               	movf	___fladd@a+3,w
  4007  0EA3  3A80               	xorlw	128
  4008  0EA4  027F               	subwf	btemp+1,w
  4009  0EA5  1D03               	skipz
  4010  0EA6  2EB1               	goto	u4043
  4011  0EA7  0864               	movf	___fladd@a+2,w
  4012  0EA8  0260               	subwf	___fladd@b+2,w
  4013  0EA9  1D03               	skipz
  4014  0EAA  2EB1               	goto	u4043
  4015  0EAB  0863               	movf	___fladd@a+1,w
  4016  0EAC  025F               	subwf	___fladd@b+1,w
  4017  0EAD  1D03               	skipz
  4018  0EAE  2EB1               	goto	u4043
  4019  0EAF  0862               	movf	___fladd@a,w
  4020  0EB0  025E               	subwf	___fladd@b,w
  4021  0EB1                     u4043:
  4022  0EB1  1803               	skipnc
  4023  0EB2  2EB4               	goto	u4041
  4024  0EB3  2EB5               	goto	u4040
  4025  0EB4                     u4041:
  4026  0EB4  2F11               	goto	l2963
  4027  0EB5                     u4040:
  4028  0EB5                     l2955:
  4029  0EB5  30FF               	movlw	255
  4030  0EB6  00E6               	movwf	??___fladd
  4031  0EB7  30FF               	movlw	255
  4032  0EB8  00E7               	movwf	??___fladd+1
  4033  0EB9  30FF               	movlw	255
  4034  0EBA  00E8               	movwf	??___fladd+2
  4035  0EBB  30FF               	movlw	255
  4036  0EBC  00E9               	movwf	??___fladd+3
  4037  0EBD  0862               	movf	___fladd@a,w
  4038  0EBE  00EA               	movwf	??___fladd+4
  4039  0EBF  0863               	movf	___fladd@a+1,w
  4040  0EC0  00EB               	movwf	??___fladd+5
  4041  0EC1  0864               	movf	___fladd@a+2,w
  4042  0EC2  00EC               	movwf	??___fladd+6
  4043  0EC3  0865               	movf	___fladd@a+3,w
  4044  0EC4  00ED               	movwf	??___fladd+7
  4045  0EC5  085E               	movf	___fladd@b,w
  4046  0EC6  02EA               	subwf	??___fladd+4,f
  4047  0EC7  085F               	movf	___fladd@b+1,w
  4048  0EC8  1C03               	skipc
  4049  0EC9  0F5F               	incfsz	___fladd@b+1,w
  4050  0ECA  2ECC               	goto	u4051
  4051  0ECB  2ECD               	goto	u4052
  4052  0ECC                     u4051:
  4053  0ECC  02EB               	subwf	??___fladd+5,f
  4054  0ECD                     u4052:
  4055  0ECD  0860               	movf	___fladd@b+2,w
  4056  0ECE  1C03               	skipc
  4057  0ECF  0F60               	incfsz	___fladd@b+2,w
  4058  0ED0  2ED2               	goto	u4053
  4059  0ED1  2ED3               	goto	u4054
  4060  0ED2                     u4053:
  4061  0ED2  02EC               	subwf	??___fladd+6,f
  4062  0ED3                     u4054:
  4063  0ED3  0861               	movf	___fladd@b+3,w
  4064  0ED4  1C03               	skipc
  4065  0ED5  0F61               	incfsz	___fladd@b+3,w
  4066  0ED6  2ED8               	goto	u4055
  4067  0ED7  2ED9               	goto	u4056
  4068  0ED8                     u4055:
  4069  0ED8  02ED               	subwf	??___fladd+7,f
  4070  0ED9                     u4056:
  4071  0ED9  086A               	movf	??___fladd+4,w
  4072  0EDA  07E6               	addwf	??___fladd,f
  4073  0EDB  086B               	movf	??___fladd+5,w
  4074  0EDC  1803               	skipnc
  4075  0EDD  0F6B               	incfsz	??___fladd+5,w
  4076  0EDE  2EE0               	goto	u4060
  4077  0EDF  2EE1               	goto	u4061
  4078  0EE0                     u4060:
  4079  0EE0  07E7               	addwf	??___fladd+1,f
  4080  0EE1                     u4061:
  4081  0EE1  086C               	movf	??___fladd+6,w
  4082  0EE2  1803               	skipnc
  4083  0EE3  0F6C               	incfsz	??___fladd+6,w
  4084  0EE4  2EE6               	goto	u4062
  4085  0EE5  2EE7               	goto	u4063
  4086  0EE6                     u4062:
  4087  0EE6  07E8               	addwf	??___fladd+2,f
  4088  0EE7                     u4063:
  4089  0EE7  086D               	movf	??___fladd+7,w
  4090  0EE8  1803               	skipnc
  4091  0EE9  0A6D               	incf	??___fladd+7,w
  4092  0EEA  07E9               	addwf	??___fladd+3,f
  4093  0EEB  0869               	movf	??___fladd+3,w
  4094  0EEC  00E1               	movwf	___fladd@b+3
  4095  0EED  0868               	movf	??___fladd+2,w
  4096  0EEE  00E0               	movwf	___fladd@b+2
  4097  0EEF  0867               	movf	??___fladd+1,w
  4098  0EF0  00DF               	movwf	___fladd@b+1
  4099  0EF1  0866               	movf	??___fladd,w
  4100  0EF2  00DE               	movwf	___fladd@b
  4101  0EF3                     l2957:
  4102  0EF3  3080               	movlw	128
  4103  0EF4  00E6               	movwf	??___fladd
  4104  0EF5  0866               	movf	??___fladd,w
  4105  0EF6  1683               	bsf	3,5	;RP0=1, select bank1
  4106  0EF7  1303               	bcf	3,6	;RP1=0, select bank1
  4107  0EF8  06A0               	xorwf	___fladd@signs^(0+128),f
  4108  0EF9  09A3               	comf	___fladd@grs^(0+128),f
  4109  0EFA  0AA3               	incf	___fladd@grs^(0+128),f
  4110  0EFB                     l2959:
  4111  0EFB  0823               	movf	___fladd@grs^(0+128),w
  4112  0EFC  1D03               	btfss	3,2
  4113  0EFD  2EFF               	goto	u4071
  4114  0EFE  2F00               	goto	u4070
  4115  0EFF                     u4071:
  4116  0EFF  2F1F               	goto	l685
  4117  0F00                     u4070:
  4118  0F00                     l2961:
  4119  0F00  3001               	movlw	1
  4120  0F01  1283               	bcf	3,5	;RP0=0, select bank0
  4121  0F02  1303               	bcf	3,6	;RP1=0, select bank0
  4122  0F03  07DE               	addwf	___fladd@b,f
  4123  0F04  3000               	movlw	0
  4124  0F05  1803               	skipnc
  4125  0F06  3001               	movlw	1
  4126  0F07  07DF               	addwf	___fladd@b+1,f
  4127  0F08  3000               	movlw	0
  4128  0F09  1803               	skipnc
  4129  0F0A  3001               	movlw	1
  4130  0F0B  07E0               	addwf	___fladd@b+2,f
  4131  0F0C  3000               	movlw	0
  4132  0F0D  1803               	skipnc
  4133  0F0E  3001               	movlw	1
  4134  0F0F  07E1               	addwf	___fladd@b+3,f
  4135  0F10  2F1F               	goto	l685
  4136  0F11                     l2963:
  4137  0F11  0862               	movf	___fladd@a,w
  4138  0F12  02DE               	subwf	___fladd@b,f
  4139  0F13  0863               	movf	___fladd@a+1,w
  4140  0F14  1C03               	skipc
  4141  0F15  0F63               	incfsz	___fladd@a+1,w
  4142  0F16  02DF               	subwf	___fladd@b+1,f
  4143  0F17  0864               	movf	___fladd@a+2,w
  4144  0F18  1C03               	skipc
  4145  0F19  0F64               	incfsz	___fladd@a+2,w
  4146  0F1A  02E0               	subwf	___fladd@b+2,f
  4147  0F1B  0865               	movf	___fladd@a+3,w
  4148  0F1C  1C03               	skipc
  4149  0F1D  0F65               	incfsz	___fladd@a+3,w
  4150  0F1E  02E1               	subwf	___fladd@b+3,f
  4151  0F1F                     l685:
  4152  0F1F  1283               	bcf	3,5	;RP0=0, select bank0
  4153  0F20  0861               	movf	___fladd@b+3,w
  4154  0F21  0460               	iorwf	___fladd@b+2,w
  4155  0F22  045F               	iorwf	___fladd@b+1,w
  4156  0F23  045E               	iorwf	___fladd@b,w
  4157  0F24  1D03               	skipz
  4158  0F25  2F27               	goto	u4081
  4159  0F26  2F28               	goto	u4080
  4160  0F27                     u4081:
  4161  0F27  2F5E               	goto	l2985
  4162  0F28                     u4080:
  4163  0F28                     l2965:
  4164  0F28  1683               	bsf	3,5	;RP0=1, select bank1
  4165  0F29  1303               	bcf	3,6	;RP1=0, select bank1
  4166  0F2A  0823               	movf	___fladd@grs^(0+128),w
  4167  0F2B  1D03               	btfss	3,2
  4168  0F2C  2F2E               	goto	u4091
  4169  0F2D  2F2F               	goto	u4090
  4170  0F2E                     u4091:
  4171  0F2E  2F5E               	goto	l2985
  4172  0F2F                     u4090:
  4173  0F2F                     l2967:
  4174  0F2F  3000               	movlw	0
  4175  0F30  1283               	bcf	3,5	;RP0=0, select bank0
  4176  0F31  1303               	bcf	3,6	;RP1=0, select bank0
  4177  0F32  00E1               	movwf	?___fladd+3
  4178  0F33  3000               	movlw	0
  4179  0F34  00E0               	movwf	?___fladd+2
  4180  0F35  3000               	movlw	0
  4181  0F36  00DF               	movwf	?___fladd+1
  4182  0F37  3000               	movlw	0
  4183  0F38  00DE               	movwf	?___fladd
  4184  0F39  2FFF               	goto	l677
  4185  0F3A                     l2971:
  4186  0F3A  3001               	movlw	1
  4187  0F3B  00E6               	movwf	??___fladd
  4188  0F3C                     u4105:
  4189  0F3C  1003               	clrc
  4190  0F3D  0DDE               	rlf	___fladd@b,f
  4191  0F3E  0DDF               	rlf	___fladd@b+1,f
  4192  0F3F  0DE0               	rlf	___fladd@b+2,f
  4193  0F40  0DE1               	rlf	___fladd@b+3,f
  4194  0F41  0BE6               	decfsz	??___fladd,f
  4195  0F42  2F3C               	goto	u4105
  4196  0F43                     l2973:
  4197  0F43  1683               	bsf	3,5	;RP0=1, select bank1
  4198  0F44  1303               	bcf	3,6	;RP1=0, select bank1
  4199  0F45  1FA3               	btfss	___fladd@grs^(0+128),7
  4200  0F46  2F48               	goto	u4111
  4201  0F47  2F49               	goto	u4110
  4202  0F48                     u4111:
  4203  0F48  2F4C               	goto	l689
  4204  0F49                     u4110:
  4205  0F49                     l2975:
  4206  0F49  1283               	bcf	3,5	;RP0=0, select bank0
  4207  0F4A  1303               	bcf	3,6	;RP1=0, select bank0
  4208  0F4B  145E               	bsf	___fladd@b,0
  4209  0F4C                     l689:
  4210  0F4C  1683               	bsf	3,5	;RP0=1, select bank1
  4211  0F4D  1303               	bcf	3,6	;RP1=0, select bank1
  4212  0F4E  1C23               	btfss	___fladd@grs^(0+128),0
  4213  0F4F  2F51               	goto	u4121
  4214  0F50  2F52               	goto	u4120
  4215  0F51                     u4121:
  4216  0F51  2F55               	goto	l2979
  4217  0F52                     u4120:
  4218  0F52                     l2977:
  4219  0F52  1403               	setc
  4220  0F53  0DA3               	rlf	___fladd@grs^(0+128),f
  4221  0F54  2F57               	goto	l2981
  4222  0F55                     l2979:
  4223  0F55  1003               	clrc
  4224  0F56  0DA3               	rlf	___fladd@grs^(0+128),f
  4225  0F57                     l2981:
  4226  0F57  0822               	movf	___fladd@bexp^(0+128),w
  4227  0F58  1903               	btfsc	3,2
  4228  0F59  2F5B               	goto	u4131
  4229  0F5A  2F5C               	goto	u4130
  4230  0F5B                     u4131:
  4231  0F5B  2F5E               	goto	l2985
  4232  0F5C                     u4130:
  4233  0F5C                     l2983:
  4234  0F5C  3001               	movlw	1
  4235  0F5D  02A2               	subwf	___fladd@bexp^(0+128),f
  4236  0F5E                     l2985:
  4237  0F5E  1283               	bcf	3,5	;RP0=0, select bank0
  4238  0F5F  1FE0               	btfss	___fladd@b+2,7
  4239  0F60  2F62               	goto	u4141
  4240  0F61  2F63               	goto	u4140
  4241  0F62                     u4141:
  4242  0F62  2F3A               	goto	l2971
  4243  0F63                     u4140:
  4244  0F63                     l2987:
  4245  0F63  1683               	bsf	3,5	;RP0=1, select bank1
  4246  0F64  1303               	bcf	3,6	;RP1=0, select bank1
  4247  0F65  01A1               	clrf	___fladd@aexp^(0+128)
  4248  0F66                     l2989:
  4249  0F66  1FA3               	btfss	___fladd@grs^(0+128),7
  4250  0F67  2F69               	goto	u4151
  4251  0F68  2F6A               	goto	u4150
  4252  0F69                     u4151:
  4253  0F69  2F7C               	goto	l2997
  4254  0F6A                     u4150:
  4255  0F6A                     l2991:
  4256  0F6A  0823               	movf	___fladd@grs^(0+128),w
  4257  0F6B  397F               	andlw	127
  4258  0F6C  1903               	btfsc	3,2
  4259  0F6D  2F6F               	goto	u4161
  4260  0F6E  2F70               	goto	u4160
  4261  0F6F                     u4161:
  4262  0F6F  2F75               	goto	l695
  4263  0F70                     u4160:
  4264  0F70                     l2993:
  4265  0F70  1683               	bsf	3,5	;RP0=1, select bank1
  4266  0F71  1303               	bcf	3,6	;RP1=0, select bank1
  4267  0F72  01A1               	clrf	___fladd@aexp^(0+128)
  4268  0F73  0AA1               	incf	___fladd@aexp^(0+128),f
  4269  0F74  2F7C               	goto	l2997
  4270  0F75                     l695:
  4271  0F75  1283               	bcf	3,5	;RP0=0, select bank0
  4272  0F76  1303               	bcf	3,6	;RP1=0, select bank0
  4273  0F77  1C5E               	btfss	___fladd@b,0
  4274  0F78  2F7A               	goto	u4171
  4275  0F79  2F7B               	goto	u4170
  4276  0F7A                     u4171:
  4277  0F7A  2F7C               	goto	l2997
  4278  0F7B                     u4170:
  4279  0F7B  2F70               	goto	l2993
  4280  0F7C                     l2997:
  4281  0F7C  1683               	bsf	3,5	;RP0=1, select bank1
  4282  0F7D  1303               	bcf	3,6	;RP1=0, select bank1
  4283  0F7E  0821               	movf	___fladd@aexp^(0+128),w
  4284  0F7F  1903               	btfsc	3,2
  4285  0F80  2F82               	goto	u4181
  4286  0F81  2F83               	goto	u4180
  4287  0F82                     u4181:
  4288  0F82  2FBF               	goto	l698
  4289  0F83                     u4180:
  4290  0F83                     l2999:
  4291  0F83  3001               	movlw	1
  4292  0F84  1283               	bcf	3,5	;RP0=0, select bank0
  4293  0F85  1303               	bcf	3,6	;RP1=0, select bank0
  4294  0F86  07DE               	addwf	___fladd@b,f
  4295  0F87  3000               	movlw	0
  4296  0F88  1803               	skipnc
  4297  0F89  3001               	movlw	1
  4298  0F8A  07DF               	addwf	___fladd@b+1,f
  4299  0F8B  3000               	movlw	0
  4300  0F8C  1803               	skipnc
  4301  0F8D  3001               	movlw	1
  4302  0F8E  07E0               	addwf	___fladd@b+2,f
  4303  0F8F  3000               	movlw	0
  4304  0F90  1803               	skipnc
  4305  0F91  3001               	movlw	1
  4306  0F92  07E1               	addwf	___fladd@b+3,f
  4307  0F93                     l3001:
  4308  0F93  1C61               	btfss	___fladd@b+3,0
  4309  0F94  2F96               	goto	u4191
  4310  0F95  2F97               	goto	u4190
  4311  0F96                     u4191:
  4312  0F96  2FBF               	goto	l698
  4313  0F97                     u4190:
  4314  0F97                     l3003:
  4315  0F97  085E               	movf	___fladd@b,w
  4316  0F98  00E6               	movwf	??___fladd
  4317  0F99  085F               	movf	___fladd@b+1,w
  4318  0F9A  00E7               	movwf	??___fladd+1
  4319  0F9B  0860               	movf	___fladd@b+2,w
  4320  0F9C  00E8               	movwf	??___fladd+2
  4321  0F9D  0861               	movf	___fladd@b+3,w
  4322  0F9E  00E9               	movwf	??___fladd+3
  4323  0F9F  3001               	movlw	1
  4324  0FA0  00EA               	movwf	??___fladd+4
  4325  0FA1                     u4205:
  4326  0FA1  0D69               	rlf	??___fladd+3,w
  4327  0FA2  0CE9               	rrf	??___fladd+3,f
  4328  0FA3  0CE8               	rrf	??___fladd+2,f
  4329  0FA4  0CE7               	rrf	??___fladd+1,f
  4330  0FA5  0CE6               	rrf	??___fladd,f
  4331  0FA6                     u4200:
  4332  0FA6  0BEA               	decfsz	??___fladd+4,f
  4333  0FA7  2FA1               	goto	u4205
  4334  0FA8  0869               	movf	??___fladd+3,w
  4335  0FA9  00E1               	movwf	___fladd@b+3
  4336  0FAA  0868               	movf	??___fladd+2,w
  4337  0FAB  00E0               	movwf	___fladd@b+2
  4338  0FAC  0867               	movf	??___fladd+1,w
  4339  0FAD  00DF               	movwf	___fladd@b+1
  4340  0FAE  0866               	movf	??___fladd,w
  4341  0FAF  00DE               	movwf	___fladd@b
  4342  0FB0  1683               	bsf	3,5	;RP0=1, select bank1
  4343  0FB1  1303               	bcf	3,6	;RP1=0, select bank1
  4344  0FB2  0A22               	incf	___fladd@bexp^(0+128),w
  4345  0FB3  1903               	btfsc	3,2
  4346  0FB4  2FB6               	goto	u4211
  4347  0FB5  2FB7               	goto	u4210
  4348  0FB6                     u4211:
  4349  0FB6  2FBF               	goto	l698
  4350  0FB7                     u4210:
  4351  0FB7                     l3005:
  4352  0FB7  3001               	movlw	1
  4353  0FB8  1283               	bcf	3,5	;RP0=0, select bank0
  4354  0FB9  1303               	bcf	3,6	;RP1=0, select bank0
  4355  0FBA  00E6               	movwf	??___fladd
  4356  0FBB  0866               	movf	??___fladd,w
  4357  0FBC  1683               	bsf	3,5	;RP0=1, select bank1
  4358  0FBD  1303               	bcf	3,6	;RP1=0, select bank1
  4359  0FBE  07A2               	addwf	___fladd@bexp^(0+128),f
  4360  0FBF                     l698:
  4361  0FBF  1683               	bsf	3,5	;RP0=1, select bank1
  4362  0FC0  1303               	bcf	3,6	;RP1=0, select bank1
  4363  0FC1  0A22               	incf	___fladd@bexp^(0+128),w
  4364  0FC2  1903               	btfsc	3,2
  4365  0FC3  2FC5               	goto	u4221
  4366  0FC4  2FC6               	goto	u4220
  4367  0FC5                     u4221:
  4368  0FC5  2FCB               	goto	l3009
  4369  0FC6                     u4220:
  4370  0FC6                     l3007:
  4371  0FC6  0822               	movf	___fladd@bexp^(0+128),w
  4372  0FC7  1D03               	btfss	3,2
  4373  0FC8  2FCA               	goto	u4231
  4374  0FC9  2FCB               	goto	u4230
  4375  0FCA                     u4231:
  4376  0FCA  2FDD               	goto	l3015
  4377  0FCB                     u4230:
  4378  0FCB                     l3009:
  4379  0FCB  3000               	movlw	0
  4380  0FCC  1283               	bcf	3,5	;RP0=0, select bank0
  4381  0FCD  1303               	bcf	3,6	;RP1=0, select bank0
  4382  0FCE  00E1               	movwf	___fladd@b+3
  4383  0FCF  3000               	movlw	0
  4384  0FD0  00E0               	movwf	___fladd@b+2
  4385  0FD1  3000               	movlw	0
  4386  0FD2  00DF               	movwf	___fladd@b+1
  4387  0FD3  3000               	movlw	0
  4388  0FD4  00DE               	movwf	___fladd@b
  4389  0FD5                     l3011:
  4390  0FD5  1683               	bsf	3,5	;RP0=1, select bank1
  4391  0FD6  1303               	bcf	3,6	;RP1=0, select bank1
  4392  0FD7  0822               	movf	___fladd@bexp^(0+128),w
  4393  0FD8  1D03               	btfss	3,2
  4394  0FD9  2FDB               	goto	u4241
  4395  0FDA  2FDC               	goto	u4240
  4396  0FDB                     u4241:
  4397  0FDB  2FDD               	goto	l3015
  4398  0FDC                     u4240:
  4399  0FDC                     l3013:
  4400  0FDC  01A0               	clrf	___fladd@signs^(0+128)
  4401  0FDD                     l3015:
  4402  0FDD  1C22               	btfss	___fladd@bexp^(0+128),0
  4403  0FDE  2FE0               	goto	u4251
  4404  0FDF  2FE1               	goto	u4250
  4405  0FE0                     u4251:
  4406  0FE0  2FE5               	goto	l3019
  4407  0FE1                     u4250:
  4408  0FE1                     l3017:
  4409  0FE1  1283               	bcf	3,5	;RP0=0, select bank0
  4410  0FE2  1303               	bcf	3,6	;RP1=0, select bank0
  4411  0FE3  17E0               	bsf	___fladd@b+2,7
  4412  0FE4  2FEB               	goto	l706
  4413  0FE5                     l3019:
  4414  0FE5  307F               	movlw	127
  4415  0FE6  1283               	bcf	3,5	;RP0=0, select bank0
  4416  0FE7  1303               	bcf	3,6	;RP1=0, select bank0
  4417  0FE8  00E6               	movwf	??___fladd
  4418  0FE9  0866               	movf	??___fladd,w
  4419  0FEA  05E0               	andwf	___fladd@b+2,f
  4420  0FEB                     l706:
  4421  0FEB  1683               	bsf	3,5	;RP0=1, select bank1
  4422  0FEC  1303               	bcf	3,6	;RP1=0, select bank1
  4423  0FED  0822               	movf	___fladd@bexp^(0+128),w
  4424  0FEE  1283               	bcf	3,5	;RP0=0, select bank0
  4425  0FEF  1303               	bcf	3,6	;RP1=0, select bank0
  4426  0FF0  00E6               	movwf	??___fladd
  4427  0FF1  1003               	clrc
  4428  0FF2  0C66               	rrf	??___fladd,w
  4429  0FF3  00E7               	movwf	??___fladd+1
  4430  0FF4  0867               	movf	??___fladd+1,w
  4431  0FF5  00E1               	movwf	___fladd@b+3
  4432  0FF6                     l3021:
  4433  0FF6  1683               	bsf	3,5	;RP0=1, select bank1
  4434  0FF7  1303               	bcf	3,6	;RP1=0, select bank1
  4435  0FF8  1FA0               	btfss	___fladd@signs^(0+128),7
  4436  0FF9  2FFB               	goto	u4261
  4437  0FFA  2FFC               	goto	u4260
  4438  0FFB                     u4261:
  4439  0FFB  2FFF               	goto	l707
  4440  0FFC                     u4260:
  4441  0FFC                     l3023:
  4442  0FFC  1283               	bcf	3,5	;RP0=0, select bank0
  4443  0FFD  1303               	bcf	3,6	;RP1=0, select bank0
  4444  0FFE  17E1               	bsf	___fladd@b+3,7
  4445  0FFF                     l707:
  4446  0FFF                     l677:
  4447  0FFF  0008               	return
  4448  1000                     __end_of___fladd:
  4449                           
  4450                           	psect	text8
  4451  1530                     __ptext8:	
  4452 ;; *************** function ___flneg *****************
  4453 ;; Defined at:
  4454 ;;		line 15 in file "C:\Program Files\Microchip\xc8\v2.31\pic\sources\c90\common\flneg.c"
  4455 ;; Parameters:    Size  Location     Type
  4456 ;;  f1              4    3[COMMON] unsigned char 
  4457 ;; Auto vars:     Size  Location     Type
  4458 ;;		None
  4459 ;; Return value:  Size  Location     Type
  4460 ;;                  4    3[COMMON] unsigned char 
  4461 ;; Registers used:
  4462 ;;		wreg
  4463 ;; Tracked objects:
  4464 ;;		On entry : 0/0
  4465 ;;		On exit  : 0/0
  4466 ;;		Unchanged: 0/0
  4467 ;; Data sizes:     COMMON   BANK0   BANK1   BANK3   BANK2
  4468 ;;      Params:         4       0       0       0       0
  4469 ;;      Locals:         0       0       0       0       0
  4470 ;;      Temps:          0       0       0       0       0
  4471 ;;      Totals:         4       0       0       0       0
  4472 ;;Total ram usage:        4 bytes
  4473 ;; Hardware stack levels used:    1
  4474 ;; Hardware stack levels required when called:    1
  4475 ;; This function calls:
  4476 ;;		Nothing
  4477 ;; This function is called by:
  4478 ;;		_floattostr_
  4479 ;; This function uses a non-reentrant model
  4480 ;;
  4481                           
  4482                           
  4483                           ;psect for function ___flneg
  4484  1530                     ___flneg:
  4485  1530                     l2173:	
  4486                           ;incstack = 0
  4487                           ; Regs used in ___flneg: [wreg]
  4488                           
  4489  1530  0876               	movf	___flneg@f1+3,w
  4490  1531  0475               	iorwf	___flneg@f1+2,w
  4491  1532  0474               	iorwf	___flneg@f1+1,w
  4492  1533  0473               	iorwf	___flneg@f1,w
  4493  1534  1903               	skipnz
  4494  1535  2D37               	goto	u2541
  4495  1536  2D38               	goto	u2540
  4496  1537                     u2541:
  4497  1537  2D3A               	goto	l2177
  4498  1538                     u2540:
  4499  1538                     l2175:
  4500  1538  3080               	movlw	128
  4501  1539  06F6               	xorwf	___flneg@f1+3,f
  4502  153A                     l2177:
  4503  153A                     l553:
  4504  153A  0008               	return
  4505  153B                     __end_of___flneg:
  4506                           
  4507                           	psect	text9
  4508  03B0                     __ptext9:	
  4509 ;; *************** function ___flmul *****************
  4510 ;; Defined at:
  4511 ;;		line 8 in file "C:\Program Files\Microchip\xc8\v2.31\pic\sources\c90\common\sprcmul.c"
  4512 ;; Parameters:    Size  Location     Type
  4513 ;;  b               4   10[BANK0 ] unsigned char 
  4514 ;;  a               4   14[BANK0 ] unsigned char 
  4515 ;; Auto vars:     Size  Location     Type
  4516 ;;  prod            4   30[BANK0 ] struct .
  4517 ;;  grs             4   24[BANK0 ] unsigned long 
  4518 ;;  temp            2   34[BANK0 ] struct .
  4519 ;;  bexp            1   29[BANK0 ] unsigned char 
  4520 ;;  aexp            1   28[BANK0 ] unsigned char 
  4521 ;;  sign            1   23[BANK0 ] unsigned char 
  4522 ;; Return value:  Size  Location     Type
  4523 ;;                  4   10[BANK0 ] unsigned char 
  4524 ;; Registers used:
  4525 ;;		wreg, status,2, status,0, btemp+1, pclath, cstack
  4526 ;; Tracked objects:
  4527 ;;		On entry : 0/0
  4528 ;;		On exit  : 0/0
  4529 ;;		Unchanged: 0/0
  4530 ;; Data sizes:     COMMON   BANK0   BANK1   BANK3   BANK2
  4531 ;;      Params:         0       8       0       0       0
  4532 ;;      Locals:         0      13       0       0       0
  4533 ;;      Temps:          0       5       0       0       0
  4534 ;;      Totals:         0      26       0       0       0
  4535 ;;Total ram usage:       26 bytes
  4536 ;; Hardware stack levels used:    1
  4537 ;; Hardware stack levels required when called:    2
  4538 ;; This function calls:
  4539 ;;		__Umul8_16
  4540 ;; This function is called by:
  4541 ;;		_main
  4542 ;;		_floattostr_
  4543 ;; This function uses a non-reentrant model
  4544 ;;
  4545                           
  4546                           
  4547                           ;psect for function ___flmul
  4548  03B0                     ___flmul:
  4549  03B0                     l2365:	
  4550                           ;incstack = 0
  4551                           ; Regs used in ___flmul: [wreg+status,2+status,0+btemp+1+pclath+cstack]
  4552                           
  4553  03B0  1283               	bcf	3,5	;RP0=0, select bank0
  4554  03B1  1303               	bcf	3,6	;RP1=0, select bank0
  4555  03B2  082D               	movf	___flmul@b+3,w
  4556  03B3  3980               	andlw	128
  4557  03B4  00B2               	movwf	??___flmul
  4558  03B5  0832               	movf	??___flmul,w
  4559  03B6  00B7               	movwf	___flmul@sign
  4560  03B7                     l2367:
  4561  03B7  082D               	movf	___flmul@b+3,w
  4562  03B8  00B2               	movwf	??___flmul
  4563  03B9  0732               	addwf	??___flmul,w
  4564  03BA  00B3               	movwf	??___flmul+1
  4565  03BB  0833               	movf	??___flmul+1,w
  4566  03BC  00BD               	movwf	___flmul@bexp
  4567  03BD                     l2369:
  4568  03BD  1FAC               	btfss	___flmul@b+2,7
  4569  03BE  2BC0               	goto	u2941
  4570  03BF  2BC1               	goto	u2940
  4571  03C0                     u2941:
  4572  03C0  2BC2               	goto	l2373
  4573  03C1                     u2940:
  4574  03C1                     l2371:
  4575  03C1  143D               	bsf	___flmul@bexp,0
  4576  03C2                     l2373:
  4577  03C2  083D               	movf	___flmul@bexp,w
  4578  03C3  1903               	btfsc	3,2
  4579  03C4  2BC6               	goto	u2951
  4580  03C5  2BC7               	goto	u2950
  4581  03C6                     u2951:
  4582  03C6  2BD6               	goto	l2381
  4583  03C7                     u2950:
  4584  03C7                     l2375:
  4585  03C7  0A3D               	incf	___flmul@bexp,w
  4586  03C8  1D03               	btfss	3,2
  4587  03C9  2BCB               	goto	u2961
  4588  03CA  2BCC               	goto	u2960
  4589  03CB                     u2961:
  4590  03CB  2BD4               	goto	l2379
  4591  03CC                     u2960:
  4592  03CC                     l2377:
  4593  03CC  3000               	movlw	0
  4594  03CD  00AD               	movwf	___flmul@b+3
  4595  03CE  3000               	movlw	0
  4596  03CF  00AC               	movwf	___flmul@b+2
  4597  03D0  3000               	movlw	0
  4598  03D1  00AB               	movwf	___flmul@b+1
  4599  03D2  3000               	movlw	0
  4600  03D3  00AA               	movwf	___flmul@b
  4601  03D4                     l2379:
  4602  03D4  17AC               	bsf	___flmul@b+2,7
  4603  03D5  2BDE               	goto	l2383
  4604  03D6                     l2381:
  4605  03D6  3000               	movlw	0
  4606  03D7  00AD               	movwf	___flmul@b+3
  4607  03D8  3000               	movlw	0
  4608  03D9  00AC               	movwf	___flmul@b+2
  4609  03DA  3000               	movlw	0
  4610  03DB  00AB               	movwf	___flmul@b+1
  4611  03DC  3000               	movlw	0
  4612  03DD  00AA               	movwf	___flmul@b
  4613  03DE                     l2383:
  4614  03DE  0831               	movf	___flmul@a+3,w
  4615  03DF  3980               	andlw	128
  4616  03E0  00B2               	movwf	??___flmul
  4617  03E1  0832               	movf	??___flmul,w
  4618  03E2  06B7               	xorwf	___flmul@sign,f
  4619  03E3                     l2385:
  4620  03E3  0831               	movf	___flmul@a+3,w
  4621  03E4  00B2               	movwf	??___flmul
  4622  03E5  0732               	addwf	??___flmul,w
  4623  03E6  00B3               	movwf	??___flmul+1
  4624  03E7  0833               	movf	??___flmul+1,w
  4625  03E8  00BC               	movwf	___flmul@aexp
  4626  03E9                     l2387:
  4627  03E9  1FB0               	btfss	___flmul@a+2,7
  4628  03EA  2BEC               	goto	u2971
  4629  03EB  2BED               	goto	u2970
  4630  03EC                     u2971:
  4631  03EC  2BEE               	goto	l2391
  4632  03ED                     u2970:
  4633  03ED                     l2389:
  4634  03ED  143C               	bsf	___flmul@aexp,0
  4635  03EE                     l2391:
  4636  03EE  083C               	movf	___flmul@aexp,w
  4637  03EF  1903               	btfsc	3,2
  4638  03F0  2BF2               	goto	u2981
  4639  03F1  2BF3               	goto	u2980
  4640  03F2                     u2981:
  4641  03F2  2C02               	goto	l2399
  4642  03F3                     u2980:
  4643  03F3                     l2393:
  4644  03F3  0A3C               	incf	___flmul@aexp,w
  4645  03F4  1D03               	btfss	3,2
  4646  03F5  2BF7               	goto	u2991
  4647  03F6  2BF8               	goto	u2990
  4648  03F7                     u2991:
  4649  03F7  2C00               	goto	l2397
  4650  03F8                     u2990:
  4651  03F8                     l2395:
  4652  03F8  3000               	movlw	0
  4653  03F9  00B1               	movwf	___flmul@a+3
  4654  03FA  3000               	movlw	0
  4655  03FB  00B0               	movwf	___flmul@a+2
  4656  03FC  3000               	movlw	0
  4657  03FD  00AF               	movwf	___flmul@a+1
  4658  03FE  3000               	movlw	0
  4659  03FF  00AE               	movwf	___flmul@a
  4660  0400                     l2397:
  4661  0400  17B0               	bsf	___flmul@a+2,7
  4662  0401  2C0A               	goto	l2401
  4663  0402                     l2399:
  4664  0402  3000               	movlw	0
  4665  0403  00B1               	movwf	___flmul@a+3
  4666  0404  3000               	movlw	0
  4667  0405  00B0               	movwf	___flmul@a+2
  4668  0406  3000               	movlw	0
  4669  0407  00AF               	movwf	___flmul@a+1
  4670  0408  3000               	movlw	0
  4671  0409  00AE               	movwf	___flmul@a
  4672  040A                     l2401:
  4673  040A  083C               	movf	___flmul@aexp,w
  4674  040B  1903               	btfsc	3,2
  4675  040C  2C0E               	goto	u3001
  4676  040D  2C0F               	goto	u3000
  4677  040E                     u3001:
  4678  040E  2C14               	goto	l2405
  4679  040F                     u3000:
  4680  040F                     l2403:
  4681  040F  083D               	movf	___flmul@bexp,w
  4682  0410  1D03               	btfss	3,2
  4683  0411  2C13               	goto	u3011
  4684  0412  2C14               	goto	u3010
  4685  0413                     u3011:
  4686  0413  2C1D               	goto	l2409
  4687  0414                     u3010:
  4688  0414                     l2405:
  4689  0414  3000               	movlw	0
  4690  0415  00AD               	movwf	?___flmul+3
  4691  0416  3000               	movlw	0
  4692  0417  00AC               	movwf	?___flmul+2
  4693  0418  3000               	movlw	0
  4694  0419  00AB               	movwf	?___flmul+1
  4695  041A  3000               	movlw	0
  4696  041B  00AA               	movwf	?___flmul
  4697  041C  2F10               	goto	l760
  4698  041D                     l2409:
  4699  041D  082A               	movf	___flmul@b,w
  4700  041E  00B2               	movwf	??___flmul
  4701  041F  0832               	movf	??___flmul,w
  4702  0420  00F3               	movwf	__Umul8_16@multiplicand
  4703  0421  0830               	movf	___flmul@a+2,w
  4704  0422  120A  118A  27CD  120A  118A  	fcall	__Umul8_16
  4705  0427  0874               	movf	?__Umul8_16+1,w
  4706  0428  1283               	bcf	3,5	;RP0=0, select bank0
  4707  0429  1303               	bcf	3,6	;RP1=0, select bank0
  4708  042A  00C3               	movwf	___flmul@temp+1
  4709  042B  0873               	movf	?__Umul8_16,w
  4710  042C  00C2               	movwf	___flmul@temp
  4711  042D                     l2411:
  4712  042D  0842               	movf	___flmul@temp,w
  4713  042E  00B2               	movwf	??___flmul
  4714  042F  01B3               	clrf	??___flmul+1
  4715  0430  01B4               	clrf	??___flmul+2
  4716  0431  01B5               	clrf	??___flmul+3
  4717  0432  0835               	movf	??___flmul+3,w
  4718  0433  00BB               	movwf	___flmul@grs+3
  4719  0434  0834               	movf	??___flmul+2,w
  4720  0435  00BA               	movwf	___flmul@grs+2
  4721  0436  0833               	movf	??___flmul+1,w
  4722  0437  00B9               	movwf	___flmul@grs+1
  4723  0438  0832               	movf	??___flmul,w
  4724  0439  00B8               	movwf	___flmul@grs
  4725  043A                     l2413:
  4726  043A  0843               	movf	___flmul@temp+1,w
  4727  043B  00B2               	movwf	??___flmul
  4728  043C  01B3               	clrf	??___flmul+1
  4729  043D  01B4               	clrf	??___flmul+2
  4730  043E  01B5               	clrf	??___flmul+3
  4731  043F  0835               	movf	??___flmul+3,w
  4732  0440  00C1               	movwf	___flmul@prod+3
  4733  0441  0834               	movf	??___flmul+2,w
  4734  0442  00C0               	movwf	___flmul@prod+2
  4735  0443  0833               	movf	??___flmul+1,w
  4736  0444  00BF               	movwf	___flmul@prod+1
  4737  0445  0832               	movf	??___flmul,w
  4738  0446  00BE               	movwf	___flmul@prod
  4739  0447  082B               	movf	___flmul@b+1,w
  4740  0448  00B2               	movwf	??___flmul
  4741  0449  0832               	movf	??___flmul,w
  4742  044A  00F3               	movwf	__Umul8_16@multiplicand
  4743  044B  082F               	movf	___flmul@a+1,w
  4744  044C  120A  118A  27CD  120A  118A  	fcall	__Umul8_16
  4745  0451  0874               	movf	?__Umul8_16+1,w
  4746  0452  1283               	bcf	3,5	;RP0=0, select bank0
  4747  0453  1303               	bcf	3,6	;RP1=0, select bank0
  4748  0454  00C3               	movwf	___flmul@temp+1
  4749  0455  0873               	movf	?__Umul8_16,w
  4750  0456  00C2               	movwf	___flmul@temp
  4751  0457                     l2415:
  4752  0457  0842               	movf	___flmul@temp,w
  4753  0458  00B2               	movwf	??___flmul
  4754  0459  01B3               	clrf	??___flmul+1
  4755  045A  01B4               	clrf	??___flmul+2
  4756  045B  01B5               	clrf	??___flmul+3
  4757  045C  0832               	movf	??___flmul,w
  4758  045D  07B8               	addwf	___flmul@grs,f
  4759  045E  0833               	movf	??___flmul+1,w
  4760  045F  1103               	clrz
  4761  0460  1803               	skipnc
  4762  0461  3E01               	addlw	1
  4763  0462  1903               	skipnz
  4764  0463  2C65               	goto	u3021
  4765  0464  07B9               	addwf	___flmul@grs+1,f
  4766  0465                     u3021:
  4767  0465  0834               	movf	??___flmul+2,w
  4768  0466  1103               	clrz
  4769  0467  1803               	skipnc
  4770  0468  3E01               	addlw	1
  4771  0469  1903               	skipnz
  4772  046A  2C6C               	goto	u3022
  4773  046B  07BA               	addwf	___flmul@grs+2,f
  4774  046C                     u3022:
  4775  046C  0835               	movf	??___flmul+3,w
  4776  046D  1103               	clrz
  4777  046E  1803               	skipnc
  4778  046F  3E01               	addlw	1
  4779  0470  1903               	skipnz
  4780  0471  2C73               	goto	u3023
  4781  0472  07BB               	addwf	___flmul@grs+3,f
  4782  0473                     u3023:
  4783  0473                     l2417:
  4784  0473  0843               	movf	___flmul@temp+1,w
  4785  0474  00B2               	movwf	??___flmul
  4786  0475  01B3               	clrf	??___flmul+1
  4787  0476  01B4               	clrf	??___flmul+2
  4788  0477  01B5               	clrf	??___flmul+3
  4789  0478  0832               	movf	??___flmul,w
  4790  0479  07BE               	addwf	___flmul@prod,f
  4791  047A  0833               	movf	??___flmul+1,w
  4792  047B  1103               	clrz
  4793  047C  1803               	skipnc
  4794  047D  3E01               	addlw	1
  4795  047E  1903               	skipnz
  4796  047F  2C81               	goto	u3031
  4797  0480  07BF               	addwf	___flmul@prod+1,f
  4798  0481                     u3031:
  4799  0481  0834               	movf	??___flmul+2,w
  4800  0482  1103               	clrz
  4801  0483  1803               	skipnc
  4802  0484  3E01               	addlw	1
  4803  0485  1903               	skipnz
  4804  0486  2C88               	goto	u3032
  4805  0487  07C0               	addwf	___flmul@prod+2,f
  4806  0488                     u3032:
  4807  0488  0835               	movf	??___flmul+3,w
  4808  0489  1103               	clrz
  4809  048A  1803               	skipnc
  4810  048B  3E01               	addlw	1
  4811  048C  1903               	skipnz
  4812  048D  2C8F               	goto	u3033
  4813  048E  07C1               	addwf	___flmul@prod+3,f
  4814  048F                     u3033:
  4815  048F  082C               	movf	___flmul@b+2,w
  4816  0490  00B2               	movwf	??___flmul
  4817  0491  0832               	movf	??___flmul,w
  4818  0492  00F3               	movwf	__Umul8_16@multiplicand
  4819  0493  082E               	movf	___flmul@a,w
  4820  0494  120A  118A  27CD  120A  118A  	fcall	__Umul8_16
  4821  0499  0874               	movf	?__Umul8_16+1,w
  4822  049A  1283               	bcf	3,5	;RP0=0, select bank0
  4823  049B  1303               	bcf	3,6	;RP1=0, select bank0
  4824  049C  00C3               	movwf	___flmul@temp+1
  4825  049D  0873               	movf	?__Umul8_16,w
  4826  049E  00C2               	movwf	___flmul@temp
  4827  049F                     l2419:
  4828  049F  0842               	movf	___flmul@temp,w
  4829  04A0  00B2               	movwf	??___flmul
  4830  04A1  01B3               	clrf	??___flmul+1
  4831  04A2  01B4               	clrf	??___flmul+2
  4832  04A3  01B5               	clrf	??___flmul+3
  4833  04A4  0832               	movf	??___flmul,w
  4834  04A5  07B8               	addwf	___flmul@grs,f
  4835  04A6  0833               	movf	??___flmul+1,w
  4836  04A7  1103               	clrz
  4837  04A8  1803               	skipnc
  4838  04A9  3E01               	addlw	1
  4839  04AA  1903               	skipnz
  4840  04AB  2CAD               	goto	u3041
  4841  04AC  07B9               	addwf	___flmul@grs+1,f
  4842  04AD                     u3041:
  4843  04AD  0834               	movf	??___flmul+2,w
  4844  04AE  1103               	clrz
  4845  04AF  1803               	skipnc
  4846  04B0  3E01               	addlw	1
  4847  04B1  1903               	skipnz
  4848  04B2  2CB4               	goto	u3042
  4849  04B3  07BA               	addwf	___flmul@grs+2,f
  4850  04B4                     u3042:
  4851  04B4  0835               	movf	??___flmul+3,w
  4852  04B5  1103               	clrz
  4853  04B6  1803               	skipnc
  4854  04B7  3E01               	addlw	1
  4855  04B8  1903               	skipnz
  4856  04B9  2CBB               	goto	u3043
  4857  04BA  07BB               	addwf	___flmul@grs+3,f
  4858  04BB                     u3043:
  4859  04BB                     l2421:
  4860  04BB  0843               	movf	___flmul@temp+1,w
  4861  04BC  00B2               	movwf	??___flmul
  4862  04BD  01B3               	clrf	??___flmul+1
  4863  04BE  01B4               	clrf	??___flmul+2
  4864  04BF  01B5               	clrf	??___flmul+3
  4865  04C0  0832               	movf	??___flmul,w
  4866  04C1  07BE               	addwf	___flmul@prod,f
  4867  04C2  0833               	movf	??___flmul+1,w
  4868  04C3  1103               	clrz
  4869  04C4  1803               	skipnc
  4870  04C5  3E01               	addlw	1
  4871  04C6  1903               	skipnz
  4872  04C7  2CC9               	goto	u3051
  4873  04C8  07BF               	addwf	___flmul@prod+1,f
  4874  04C9                     u3051:
  4875  04C9  0834               	movf	??___flmul+2,w
  4876  04CA  1103               	clrz
  4877  04CB  1803               	skipnc
  4878  04CC  3E01               	addlw	1
  4879  04CD  1903               	skipnz
  4880  04CE  2CD0               	goto	u3052
  4881  04CF  07C0               	addwf	___flmul@prod+2,f
  4882  04D0                     u3052:
  4883  04D0  0835               	movf	??___flmul+3,w
  4884  04D1  1103               	clrz
  4885  04D2  1803               	skipnc
  4886  04D3  3E01               	addlw	1
  4887  04D4  1903               	skipnz
  4888  04D5  2CD7               	goto	u3053
  4889  04D6  07C1               	addwf	___flmul@prod+3,f
  4890  04D7                     u3053:
  4891  04D7                     l2423:
  4892  04D7  3008               	movlw	8
  4893  04D8  00B2               	movwf	??___flmul
  4894  04D9                     u3065:
  4895  04D9  1003               	clrc
  4896  04DA  0DB8               	rlf	___flmul@grs,f
  4897  04DB  0DB9               	rlf	___flmul@grs+1,f
  4898  04DC  0DBA               	rlf	___flmul@grs+2,f
  4899  04DD  0DBB               	rlf	___flmul@grs+3,f
  4900  04DE  0BB2               	decfsz	??___flmul,f
  4901  04DF  2CD9               	goto	u3065
  4902  04E0                     l2425:
  4903  04E0  082B               	movf	___flmul@b+1,w
  4904  04E1  00B2               	movwf	??___flmul
  4905  04E2  0832               	movf	??___flmul,w
  4906  04E3  00F3               	movwf	__Umul8_16@multiplicand
  4907  04E4  082E               	movf	___flmul@a,w
  4908  04E5  120A  118A  27CD  120A  118A  	fcall	__Umul8_16
  4909  04EA  0874               	movf	?__Umul8_16+1,w
  4910  04EB  1283               	bcf	3,5	;RP0=0, select bank0
  4911  04EC  1303               	bcf	3,6	;RP1=0, select bank0
  4912  04ED  00C3               	movwf	___flmul@temp+1
  4913  04EE  0873               	movf	?__Umul8_16,w
  4914  04EF  00C2               	movwf	___flmul@temp
  4915  04F0                     l2427:
  4916  04F0  0842               	movf	___flmul@temp,w
  4917  04F1  00B2               	movwf	??___flmul
  4918  04F2  0843               	movf	___flmul@temp+1,w
  4919  04F3  00B3               	movwf	??___flmul+1
  4920  04F4  01B4               	clrf	??___flmul+2
  4921  04F5  01B5               	clrf	??___flmul+3
  4922  04F6  0832               	movf	??___flmul,w
  4923  04F7  07B8               	addwf	___flmul@grs,f
  4924  04F8  0833               	movf	??___flmul+1,w
  4925  04F9  1103               	clrz
  4926  04FA  1803               	skipnc
  4927  04FB  3E01               	addlw	1
  4928  04FC  1903               	skipnz
  4929  04FD  2CFF               	goto	u3071
  4930  04FE  07B9               	addwf	___flmul@grs+1,f
  4931  04FF                     u3071:
  4932  04FF  0834               	movf	??___flmul+2,w
  4933  0500  1103               	clrz
  4934  0501  1803               	skipnc
  4935  0502  3E01               	addlw	1
  4936  0503  1903               	skipnz
  4937  0504  2D06               	goto	u3072
  4938  0505  07BA               	addwf	___flmul@grs+2,f
  4939  0506                     u3072:
  4940  0506  0835               	movf	??___flmul+3,w
  4941  0507  1103               	clrz
  4942  0508  1803               	skipnc
  4943  0509  3E01               	addlw	1
  4944  050A  1903               	skipnz
  4945  050B  2D0D               	goto	u3073
  4946  050C  07BB               	addwf	___flmul@grs+3,f
  4947  050D                     u3073:
  4948  050D                     l2429:
  4949  050D  082A               	movf	___flmul@b,w
  4950  050E  00B2               	movwf	??___flmul
  4951  050F  0832               	movf	??___flmul,w
  4952  0510  00F3               	movwf	__Umul8_16@multiplicand
  4953  0511  082F               	movf	___flmul@a+1,w
  4954  0512  120A  118A  27CD  120A  118A  	fcall	__Umul8_16
  4955  0517  0874               	movf	?__Umul8_16+1,w
  4956  0518  1283               	bcf	3,5	;RP0=0, select bank0
  4957  0519  1303               	bcf	3,6	;RP1=0, select bank0
  4958  051A  00C3               	movwf	___flmul@temp+1
  4959  051B  0873               	movf	?__Umul8_16,w
  4960  051C  00C2               	movwf	___flmul@temp
  4961  051D                     l2431:
  4962  051D  0842               	movf	___flmul@temp,w
  4963  051E  00B2               	movwf	??___flmul
  4964  051F  0843               	movf	___flmul@temp+1,w
  4965  0520  00B3               	movwf	??___flmul+1
  4966  0521  01B4               	clrf	??___flmul+2
  4967  0522  01B5               	clrf	??___flmul+3
  4968  0523  0832               	movf	??___flmul,w
  4969  0524  07B8               	addwf	___flmul@grs,f
  4970  0525  0833               	movf	??___flmul+1,w
  4971  0526  1103               	clrz
  4972  0527  1803               	skipnc
  4973  0528  3E01               	addlw	1
  4974  0529  1903               	skipnz
  4975  052A  2D2C               	goto	u3081
  4976  052B  07B9               	addwf	___flmul@grs+1,f
  4977  052C                     u3081:
  4978  052C  0834               	movf	??___flmul+2,w
  4979  052D  1103               	clrz
  4980  052E  1803               	skipnc
  4981  052F  3E01               	addlw	1
  4982  0530  1903               	skipnz
  4983  0531  2D33               	goto	u3082
  4984  0532  07BA               	addwf	___flmul@grs+2,f
  4985  0533                     u3082:
  4986  0533  0835               	movf	??___flmul+3,w
  4987  0534  1103               	clrz
  4988  0535  1803               	skipnc
  4989  0536  3E01               	addlw	1
  4990  0537  1903               	skipnz
  4991  0538  2D3A               	goto	u3083
  4992  0539  07BB               	addwf	___flmul@grs+3,f
  4993  053A                     u3083:
  4994  053A                     l2433:
  4995  053A  3008               	movlw	8
  4996  053B  00B2               	movwf	??___flmul
  4997  053C                     u3095:
  4998  053C  1003               	clrc
  4999  053D  0DB8               	rlf	___flmul@grs,f
  5000  053E  0DB9               	rlf	___flmul@grs+1,f
  5001  053F  0DBA               	rlf	___flmul@grs+2,f
  5002  0540  0DBB               	rlf	___flmul@grs+3,f
  5003  0541  0BB2               	decfsz	??___flmul,f
  5004  0542  2D3C               	goto	u3095
  5005  0543  082A               	movf	___flmul@b,w
  5006  0544  00B2               	movwf	??___flmul
  5007  0545  0832               	movf	??___flmul,w
  5008  0546  00F3               	movwf	__Umul8_16@multiplicand
  5009  0547  082E               	movf	___flmul@a,w
  5010  0548  120A  118A  27CD  120A  118A  	fcall	__Umul8_16
  5011  054D  0874               	movf	?__Umul8_16+1,w
  5012  054E  1283               	bcf	3,5	;RP0=0, select bank0
  5013  054F  1303               	bcf	3,6	;RP1=0, select bank0
  5014  0550  00C3               	movwf	___flmul@temp+1
  5015  0551  0873               	movf	?__Umul8_16,w
  5016  0552  00C2               	movwf	___flmul@temp
  5017  0553                     l2435:
  5018  0553  0842               	movf	___flmul@temp,w
  5019  0554  00B2               	movwf	??___flmul
  5020  0555  0843               	movf	___flmul@temp+1,w
  5021  0556  00B3               	movwf	??___flmul+1
  5022  0557  01B4               	clrf	??___flmul+2
  5023  0558  01B5               	clrf	??___flmul+3
  5024  0559  0832               	movf	??___flmul,w
  5025  055A  07B8               	addwf	___flmul@grs,f
  5026  055B  0833               	movf	??___flmul+1,w
  5027  055C  1103               	clrz
  5028  055D  1803               	skipnc
  5029  055E  3E01               	addlw	1
  5030  055F  1903               	skipnz
  5031  0560  2D62               	goto	u3101
  5032  0561  07B9               	addwf	___flmul@grs+1,f
  5033  0562                     u3101:
  5034  0562  0834               	movf	??___flmul+2,w
  5035  0563  1103               	clrz
  5036  0564  1803               	skipnc
  5037  0565  3E01               	addlw	1
  5038  0566  1903               	skipnz
  5039  0567  2D69               	goto	u3102
  5040  0568  07BA               	addwf	___flmul@grs+2,f
  5041  0569                     u3102:
  5042  0569  0835               	movf	??___flmul+3,w
  5043  056A  1103               	clrz
  5044  056B  1803               	skipnc
  5045  056C  3E01               	addlw	1
  5046  056D  1903               	skipnz
  5047  056E  2D70               	goto	u3103
  5048  056F  07BB               	addwf	___flmul@grs+3,f
  5049  0570                     u3103:
  5050  0570                     l2437:
  5051  0570  082B               	movf	___flmul@b+1,w
  5052  0571  00B2               	movwf	??___flmul
  5053  0572  0832               	movf	??___flmul,w
  5054  0573  00F3               	movwf	__Umul8_16@multiplicand
  5055  0574  0830               	movf	___flmul@a+2,w
  5056  0575  120A  118A  27CD  120A  118A  	fcall	__Umul8_16
  5057  057A  0874               	movf	?__Umul8_16+1,w
  5058  057B  1283               	bcf	3,5	;RP0=0, select bank0
  5059  057C  1303               	bcf	3,6	;RP1=0, select bank0
  5060  057D  00C3               	movwf	___flmul@temp+1
  5061  057E  0873               	movf	?__Umul8_16,w
  5062  057F  00C2               	movwf	___flmul@temp
  5063  0580  0842               	movf	___flmul@temp,w
  5064  0581  00B2               	movwf	??___flmul
  5065  0582  0843               	movf	___flmul@temp+1,w
  5066  0583  00B3               	movwf	??___flmul+1
  5067  0584  01B4               	clrf	??___flmul+2
  5068  0585  01B5               	clrf	??___flmul+3
  5069  0586  0832               	movf	??___flmul,w
  5070  0587  07BE               	addwf	___flmul@prod,f
  5071  0588  0833               	movf	??___flmul+1,w
  5072  0589  1103               	clrz
  5073  058A  1803               	skipnc
  5074  058B  3E01               	addlw	1
  5075  058C  1903               	skipnz
  5076  058D  2D8F               	goto	u3111
  5077  058E  07BF               	addwf	___flmul@prod+1,f
  5078  058F                     u3111:
  5079  058F  0834               	movf	??___flmul+2,w
  5080  0590  1103               	clrz
  5081  0591  1803               	skipnc
  5082  0592  3E01               	addlw	1
  5083  0593  1903               	skipnz
  5084  0594  2D96               	goto	u3112
  5085  0595  07C0               	addwf	___flmul@prod+2,f
  5086  0596                     u3112:
  5087  0596  0835               	movf	??___flmul+3,w
  5088  0597  1103               	clrz
  5089  0598  1803               	skipnc
  5090  0599  3E01               	addlw	1
  5091  059A  1903               	skipnz
  5092  059B  2D9D               	goto	u3113
  5093  059C  07C1               	addwf	___flmul@prod+3,f
  5094  059D                     u3113:
  5095  059D                     l2439:
  5096  059D  082C               	movf	___flmul@b+2,w
  5097  059E  00B2               	movwf	??___flmul
  5098  059F  0832               	movf	??___flmul,w
  5099  05A0  00F3               	movwf	__Umul8_16@multiplicand
  5100  05A1  082F               	movf	___flmul@a+1,w
  5101  05A2  120A  118A  27CD  120A  118A  	fcall	__Umul8_16
  5102  05A7  0874               	movf	?__Umul8_16+1,w
  5103  05A8  1283               	bcf	3,5	;RP0=0, select bank0
  5104  05A9  1303               	bcf	3,6	;RP1=0, select bank0
  5105  05AA  00C3               	movwf	___flmul@temp+1
  5106  05AB  0873               	movf	?__Umul8_16,w
  5107  05AC  00C2               	movwf	___flmul@temp
  5108  05AD                     l2441:
  5109  05AD  0842               	movf	___flmul@temp,w
  5110  05AE  00B2               	movwf	??___flmul
  5111  05AF  0843               	movf	___flmul@temp+1,w
  5112  05B0  00B3               	movwf	??___flmul+1
  5113  05B1  01B4               	clrf	??___flmul+2
  5114  05B2  01B5               	clrf	??___flmul+3
  5115  05B3  0832               	movf	??___flmul,w
  5116  05B4  07BE               	addwf	___flmul@prod,f
  5117  05B5  0833               	movf	??___flmul+1,w
  5118  05B6  1103               	clrz
  5119  05B7  1803               	skipnc
  5120  05B8  3E01               	addlw	1
  5121  05B9  1903               	skipnz
  5122  05BA  2DBC               	goto	u3121
  5123  05BB  07BF               	addwf	___flmul@prod+1,f
  5124  05BC                     u3121:
  5125  05BC  0834               	movf	??___flmul+2,w
  5126  05BD  1103               	clrz
  5127  05BE  1803               	skipnc
  5128  05BF  3E01               	addlw	1
  5129  05C0  1903               	skipnz
  5130  05C1  2DC3               	goto	u3122
  5131  05C2  07C0               	addwf	___flmul@prod+2,f
  5132  05C3                     u3122:
  5133  05C3  0835               	movf	??___flmul+3,w
  5134  05C4  1103               	clrz
  5135  05C5  1803               	skipnc
  5136  05C6  3E01               	addlw	1
  5137  05C7  1903               	skipnz
  5138  05C8  2DCA               	goto	u3123
  5139  05C9  07C1               	addwf	___flmul@prod+3,f
  5140  05CA                     u3123:
  5141  05CA  082C               	movf	___flmul@b+2,w
  5142  05CB  00B2               	movwf	??___flmul
  5143  05CC  0832               	movf	??___flmul,w
  5144  05CD  00F3               	movwf	__Umul8_16@multiplicand
  5145  05CE  0830               	movf	___flmul@a+2,w
  5146  05CF  120A  118A  27CD  120A  118A  	fcall	__Umul8_16
  5147  05D4  0874               	movf	?__Umul8_16+1,w
  5148  05D5  1283               	bcf	3,5	;RP0=0, select bank0
  5149  05D6  1303               	bcf	3,6	;RP1=0, select bank0
  5150  05D7  00C3               	movwf	___flmul@temp+1
  5151  05D8  0873               	movf	?__Umul8_16,w
  5152  05D9  00C2               	movwf	___flmul@temp
  5153  05DA                     l2443:
  5154  05DA  0842               	movf	___flmul@temp,w
  5155  05DB  00B2               	movwf	??___flmul
  5156  05DC  0843               	movf	___flmul@temp+1,w
  5157  05DD  00B3               	movwf	??___flmul+1
  5158  05DE  01B4               	clrf	??___flmul+2
  5159  05DF  01B5               	clrf	??___flmul+3
  5160  05E0  3008               	movlw	8
  5161  05E1                     u3135:
  5162  05E1  1003               	clrc
  5163  05E2  0DB2               	rlf	??___flmul,f
  5164  05E3  0DB3               	rlf	??___flmul+1,f
  5165  05E4  0DB4               	rlf	??___flmul+2,f
  5166  05E5  0DB5               	rlf	??___flmul+3,f
  5167  05E6                     u3130:
  5168  05E6  3EFF               	addlw	-1
  5169  05E7  1D03               	skipz
  5170  05E8  2DE1               	goto	u3135
  5171  05E9  0832               	movf	??___flmul,w
  5172  05EA  07BE               	addwf	___flmul@prod,f
  5173  05EB  0833               	movf	??___flmul+1,w
  5174  05EC  1103               	clrz
  5175  05ED  1803               	skipnc
  5176  05EE  3E01               	addlw	1
  5177  05EF  1903               	skipnz
  5178  05F0  2DF2               	goto	u3141
  5179  05F1  07BF               	addwf	___flmul@prod+1,f
  5180  05F2                     u3141:
  5181  05F2  0834               	movf	??___flmul+2,w
  5182  05F3  1103               	clrz
  5183  05F4  1803               	skipnc
  5184  05F5  3E01               	addlw	1
  5185  05F6  1903               	skipnz
  5186  05F7  2DF9               	goto	u3142
  5187  05F8  07C0               	addwf	___flmul@prod+2,f
  5188  05F9                     u3142:
  5189  05F9  0835               	movf	??___flmul+3,w
  5190  05FA  1103               	clrz
  5191  05FB  1803               	skipnc
  5192  05FC  3E01               	addlw	1
  5193  05FD  1903               	skipnz
  5194  05FE  2E00               	goto	u3143
  5195  05FF  07C1               	addwf	___flmul@prod+3,f
  5196  0600                     u3143:
  5197  0600                     l2445:
  5198  0600  0838               	movf	___flmul@grs,w
  5199  0601  00B2               	movwf	??___flmul
  5200  0602  0839               	movf	___flmul@grs+1,w
  5201  0603  00B3               	movwf	??___flmul+1
  5202  0604  083A               	movf	___flmul@grs+2,w
  5203  0605  00B4               	movwf	??___flmul+2
  5204  0606  083B               	movf	___flmul@grs+3,w
  5205  0607  00B5               	movwf	??___flmul+3
  5206  0608  3018               	movlw	24
  5207  0609                     u3155:
  5208  0609  1003               	clrc
  5209  060A  0CB5               	rrf	??___flmul+3,f
  5210  060B  0CB4               	rrf	??___flmul+2,f
  5211  060C  0CB3               	rrf	??___flmul+1,f
  5212  060D  0CB2               	rrf	??___flmul,f
  5213  060E                     u3150:
  5214  060E  3EFF               	addlw	-1
  5215  060F  1D03               	skipz
  5216  0610  2E09               	goto	u3155
  5217  0611  0832               	movf	??___flmul,w
  5218  0612  07BE               	addwf	___flmul@prod,f
  5219  0613  0833               	movf	??___flmul+1,w
  5220  0614  1103               	clrz
  5221  0615  1803               	skipnc
  5222  0616  3E01               	addlw	1
  5223  0617  1903               	skipnz
  5224  0618  2E1A               	goto	u3161
  5225  0619  07BF               	addwf	___flmul@prod+1,f
  5226  061A                     u3161:
  5227  061A  0834               	movf	??___flmul+2,w
  5228  061B  1103               	clrz
  5229  061C  1803               	skipnc
  5230  061D  3E01               	addlw	1
  5231  061E  1903               	skipnz
  5232  061F  2E21               	goto	u3162
  5233  0620  07C0               	addwf	___flmul@prod+2,f
  5234  0621                     u3162:
  5235  0621  0835               	movf	??___flmul+3,w
  5236  0622  1103               	clrz
  5237  0623  1803               	skipnc
  5238  0624  3E01               	addlw	1
  5239  0625  1903               	skipnz
  5240  0626  2E28               	goto	u3163
  5241  0627  07C1               	addwf	___flmul@prod+3,f
  5242  0628                     u3163:
  5243  0628                     l2447:
  5244  0628  3008               	movlw	8
  5245  0629  00B2               	movwf	??___flmul
  5246  062A                     u3175:
  5247  062A  1003               	clrc
  5248  062B  0DB8               	rlf	___flmul@grs,f
  5249  062C  0DB9               	rlf	___flmul@grs+1,f
  5250  062D  0DBA               	rlf	___flmul@grs+2,f
  5251  062E  0DBB               	rlf	___flmul@grs+3,f
  5252  062F  0BB2               	decfsz	??___flmul,f
  5253  0630  2E2A               	goto	u3175
  5254  0631                     l2449:
  5255  0631  083D               	movf	___flmul@bexp,w
  5256  0632  073C               	addwf	___flmul@aexp,w
  5257  0633  00B2               	movwf	??___flmul
  5258  0634  01B3               	clrf	??___flmul+1
  5259  0635  0DB3               	rlf	??___flmul+1,f
  5260  0636  0832               	movf	??___flmul,w
  5261  0637  3E82               	addlw	130
  5262  0638  00C2               	movwf	___flmul@temp
  5263  0639  0833               	movf	??___flmul+1,w
  5264  063A  1803               	skipnc
  5265  063B  3E01               	addlw	1
  5266  063C  3EFF               	addlw	255
  5267  063D  00C3               	movwf	___flmul@temp+1
  5268  063E  2E5C               	goto	l2461
  5269  063F                     l2451:
  5270  063F  3001               	movlw	1
  5271  0640  00B2               	movwf	??___flmul
  5272  0641                     u3185:
  5273  0641  1003               	clrc
  5274  0642  0DBE               	rlf	___flmul@prod,f
  5275  0643  0DBF               	rlf	___flmul@prod+1,f
  5276  0644  0DC0               	rlf	___flmul@prod+2,f
  5277  0645  0DC1               	rlf	___flmul@prod+3,f
  5278  0646  0BB2               	decfsz	??___flmul,f
  5279  0647  2E41               	goto	u3185
  5280  0648                     l2453:
  5281  0648  1FBB               	btfss	___flmul@grs+3,7
  5282  0649  2E4B               	goto	u3191
  5283  064A  2E4C               	goto	u3190
  5284  064B                     u3191:
  5285  064B  2E4D               	goto	l2457
  5286  064C                     u3190:
  5287  064C                     l2455:
  5288  064C  143E               	bsf	___flmul@prod,0
  5289  064D                     l2457:
  5290  064D  3001               	movlw	1
  5291  064E  00B2               	movwf	??___flmul
  5292  064F                     u3205:
  5293  064F  1003               	clrc
  5294  0650  0DB8               	rlf	___flmul@grs,f
  5295  0651  0DB9               	rlf	___flmul@grs+1,f
  5296  0652  0DBA               	rlf	___flmul@grs+2,f
  5297  0653  0DBB               	rlf	___flmul@grs+3,f
  5298  0654  0BB2               	decfsz	??___flmul,f
  5299  0655  2E4F               	goto	u3205
  5300  0656                     l2459:
  5301  0656  30FF               	movlw	255
  5302  0657  07C2               	addwf	___flmul@temp,f
  5303  0658  1803               	skipnc
  5304  0659  0AC3               	incf	___flmul@temp+1,f
  5305  065A  30FF               	movlw	255
  5306  065B  07C3               	addwf	___flmul@temp+1,f
  5307  065C                     l2461:
  5308  065C  1FC0               	btfss	___flmul@prod+2,7
  5309  065D  2E5F               	goto	u3211
  5310  065E  2E60               	goto	u3210
  5311  065F                     u3211:
  5312  065F  2E3F               	goto	l2451
  5313  0660                     u3210:
  5314  0660                     l2463:
  5315  0660  01BC               	clrf	___flmul@aexp
  5316  0661                     l2465:
  5317  0661  1FBB               	btfss	___flmul@grs+3,7
  5318  0662  2E64               	goto	u3221
  5319  0663  2E65               	goto	u3220
  5320  0664                     u3221:
  5321  0664  2E81               	goto	l2473
  5322  0665                     u3220:
  5323  0665                     l2467:
  5324  0665  30FF               	movlw	255
  5325  0666  0538               	andwf	___flmul@grs,w
  5326  0667  00B2               	movwf	??___flmul
  5327  0668  30FF               	movlw	255
  5328  0669  0539               	andwf	___flmul@grs+1,w
  5329  066A  00B3               	movwf	??___flmul+1
  5330  066B  30FF               	movlw	255
  5331  066C  053A               	andwf	___flmul@grs+2,w
  5332  066D  00B4               	movwf	??___flmul+2
  5333  066E  307F               	movlw	127
  5334  066F  053B               	andwf	___flmul@grs+3,w
  5335  0670  00B5               	movwf	??___flmul+3
  5336  0671  0835               	movf	??___flmul+3,w
  5337  0672  0434               	iorwf	??___flmul+2,w
  5338  0673  0433               	iorwf	??___flmul+1,w
  5339  0674  0432               	iorwf	??___flmul,w
  5340  0675  1903               	skipnz
  5341  0676  2E78               	goto	u3231
  5342  0677  2E79               	goto	u3230
  5343  0678                     u3231:
  5344  0678  2E7C               	goto	l766
  5345  0679                     u3230:
  5346  0679                     l2469:
  5347  0679  01BC               	clrf	___flmul@aexp
  5348  067A  0ABC               	incf	___flmul@aexp,f
  5349  067B  2E81               	goto	l2473
  5350  067C                     l766:
  5351  067C  1C3E               	btfss	___flmul@prod,0
  5352  067D  2E7F               	goto	u3241
  5353  067E  2E80               	goto	u3240
  5354  067F                     u3241:
  5355  067F  2E81               	goto	l2473
  5356  0680                     u3240:
  5357  0680  2E79               	goto	l2469
  5358  0681                     l2473:
  5359  0681  083C               	movf	___flmul@aexp,w
  5360  0682  1903               	btfsc	3,2
  5361  0683  2E85               	goto	u3251
  5362  0684  2E86               	goto	u3250
  5363  0685                     u3251:
  5364  0685  2EB7               	goto	l2483
  5365  0686                     u3250:
  5366  0686                     l2475:
  5367  0686  3001               	movlw	1
  5368  0687  07BE               	addwf	___flmul@prod,f
  5369  0688  3000               	movlw	0
  5370  0689  1803               	skipnc
  5371  068A  3001               	movlw	1
  5372  068B  07BF               	addwf	___flmul@prod+1,f
  5373  068C  3000               	movlw	0
  5374  068D  1803               	skipnc
  5375  068E  3001               	movlw	1
  5376  068F  07C0               	addwf	___flmul@prod+2,f
  5377  0690  3000               	movlw	0
  5378  0691  1803               	skipnc
  5379  0692  3001               	movlw	1
  5380  0693  07C1               	addwf	___flmul@prod+3,f
  5381  0694                     l2477:
  5382  0694  1C41               	btfss	___flmul@prod+3,0
  5383  0695  2E97               	goto	u3261
  5384  0696  2E98               	goto	u3260
  5385  0697                     u3261:
  5386  0697  2EB7               	goto	l2483
  5387  0698                     u3260:
  5388  0698                     l2479:
  5389  0698  083E               	movf	___flmul@prod,w
  5390  0699  00B2               	movwf	??___flmul
  5391  069A  083F               	movf	___flmul@prod+1,w
  5392  069B  00B3               	movwf	??___flmul+1
  5393  069C  0840               	movf	___flmul@prod+2,w
  5394  069D  00B4               	movwf	??___flmul+2
  5395  069E  0841               	movf	___flmul@prod+3,w
  5396  069F  00B5               	movwf	??___flmul+3
  5397  06A0  3001               	movlw	1
  5398  06A1  00B6               	movwf	??___flmul+4
  5399  06A2                     u3275:
  5400  06A2  0D35               	rlf	??___flmul+3,w
  5401  06A3  0CB5               	rrf	??___flmul+3,f
  5402  06A4  0CB4               	rrf	??___flmul+2,f
  5403  06A5  0CB3               	rrf	??___flmul+1,f
  5404  06A6  0CB2               	rrf	??___flmul,f
  5405  06A7                     u3270:
  5406  06A7  0BB6               	decfsz	??___flmul+4,f
  5407  06A8  2EA2               	goto	u3275
  5408  06A9  0835               	movf	??___flmul+3,w
  5409  06AA  00C1               	movwf	___flmul@prod+3
  5410  06AB  0834               	movf	??___flmul+2,w
  5411  06AC  00C0               	movwf	___flmul@prod+2
  5412  06AD  0833               	movf	??___flmul+1,w
  5413  06AE  00BF               	movwf	___flmul@prod+1
  5414  06AF  0832               	movf	??___flmul,w
  5415  06B0  00BE               	movwf	___flmul@prod
  5416  06B1                     l2481:
  5417  06B1  3001               	movlw	1
  5418  06B2  07C2               	addwf	___flmul@temp,f
  5419  06B3  1803               	skipnc
  5420  06B4  0AC3               	incf	___flmul@temp+1,f
  5421  06B5  3000               	movlw	0
  5422  06B6  07C3               	addwf	___flmul@temp+1,f
  5423  06B7                     l2483:
  5424  06B7  0843               	movf	___flmul@temp+1,w
  5425  06B8  3A80               	xorlw	128
  5426  06B9  00FF               	movwf	btemp+1
  5427  06BA  3080               	movlw	128
  5428  06BB  027F               	subwf	btemp+1,w
  5429  06BC  1D03               	skipz
  5430  06BD  2EC0               	goto	u3285
  5431  06BE  30FF               	movlw	255
  5432  06BF  0242               	subwf	___flmul@temp,w
  5433  06C0                     u3285:
  5434  06C0  1C03               	skipc
  5435  06C1  2EC3               	goto	u3281
  5436  06C2  2EC4               	goto	u3280
  5437  06C3                     u3281:
  5438  06C3  2ECF               	goto	l2487
  5439  06C4                     u3280:
  5440  06C4                     l2485:
  5441  06C4  307F               	movlw	127
  5442  06C5  1283               	bcf	3,5	;RP0=0, select bank0
  5443  06C6  1303               	bcf	3,6	;RP1=0, select bank0
  5444  06C7  00C1               	movwf	___flmul@prod+3
  5445  06C8  3080               	movlw	128
  5446  06C9  00C0               	movwf	___flmul@prod+2
  5447  06CA  3000               	movlw	0
  5448  06CB  00BF               	movwf	___flmul@prod+1
  5449  06CC  3000               	movlw	0
  5450  06CD  00BE               	movwf	___flmul@prod
  5451  06CE  2F04               	goto	l772
  5452  06CF                     l2487:
  5453  06CF  1283               	bcf	3,5	;RP0=0, select bank0
  5454  06D0  1303               	bcf	3,6	;RP1=0, select bank0
  5455  06D1  0843               	movf	___flmul@temp+1,w
  5456  06D2  3A80               	xorlw	128
  5457  06D3  00FF               	movwf	btemp+1
  5458  06D4  3080               	movlw	128
  5459  06D5  027F               	subwf	btemp+1,w
  5460  06D6  1D03               	skipz
  5461  06D7  2EDA               	goto	u3295
  5462  06D8  3001               	movlw	1
  5463  06D9  0242               	subwf	___flmul@temp,w
  5464  06DA                     u3295:
  5465  06DA  1803               	skipnc
  5466  06DB  2EDD               	goto	u3291
  5467  06DC  2EDE               	goto	u3290
  5468  06DD                     u3291:
  5469  06DD  2EEA               	goto	l2493
  5470  06DE                     u3290:
  5471  06DE                     l2489:
  5472  06DE  3000               	movlw	0
  5473  06DF  1283               	bcf	3,5	;RP0=0, select bank0
  5474  06E0  1303               	bcf	3,6	;RP1=0, select bank0
  5475  06E1  00C1               	movwf	___flmul@prod+3
  5476  06E2  3000               	movlw	0
  5477  06E3  00C0               	movwf	___flmul@prod+2
  5478  06E4  3000               	movlw	0
  5479  06E5  00BF               	movwf	___flmul@prod+1
  5480  06E6  3000               	movlw	0
  5481  06E7  00BE               	movwf	___flmul@prod
  5482  06E8                     l2491:
  5483  06E8  01B7               	clrf	___flmul@sign
  5484  06E9  2F04               	goto	l772
  5485  06EA                     l2493:
  5486  06EA  1283               	bcf	3,5	;RP0=0, select bank0
  5487  06EB  1303               	bcf	3,6	;RP1=0, select bank0
  5488  06EC  0842               	movf	___flmul@temp,w
  5489  06ED  00B2               	movwf	??___flmul
  5490  06EE  0832               	movf	??___flmul,w
  5491  06EF  00BD               	movwf	___flmul@bexp
  5492  06F0  30FF               	movlw	255
  5493  06F1  05BE               	andwf	___flmul@prod,f
  5494  06F2  30FF               	movlw	255
  5495  06F3  05BF               	andwf	___flmul@prod+1,f
  5496  06F4  307F               	movlw	127
  5497  06F5  05C0               	andwf	___flmul@prod+2,f
  5498  06F6  3000               	movlw	0
  5499  06F7  05C1               	andwf	___flmul@prod+3,f
  5500  06F8                     l2495:
  5501  06F8  1C3D               	btfss	___flmul@bexp,0
  5502  06F9  2EFB               	goto	u3301
  5503  06FA  2EFC               	goto	u3300
  5504  06FB                     u3301:
  5505  06FB  2EFD               	goto	l2499
  5506  06FC                     u3300:
  5507  06FC                     l2497:
  5508  06FC  17C0               	bsf	___flmul@prod+2,7
  5509  06FD                     l2499:
  5510  06FD  083D               	movf	___flmul@bexp,w
  5511  06FE  00B2               	movwf	??___flmul
  5512  06FF  1003               	clrc
  5513  0700  0C32               	rrf	??___flmul,w
  5514  0701  00B3               	movwf	??___flmul+1
  5515  0702  0833               	movf	??___flmul+1,w
  5516  0703  00C1               	movwf	___flmul@prod+3
  5517  0704                     l772:
  5518  0704  0837               	movf	___flmul@sign,w
  5519  0705  00B2               	movwf	??___flmul
  5520  0706  0832               	movf	??___flmul,w
  5521  0707  04C1               	iorwf	___flmul@prod+3,f
  5522  0708                     l2501:
  5523  0708  0841               	movf	___flmul@prod+3,w
  5524  0709  00AD               	movwf	?___flmul+3
  5525  070A  0840               	movf	___flmul@prod+2,w
  5526  070B  00AC               	movwf	?___flmul+2
  5527  070C  083F               	movf	___flmul@prod+1,w
  5528  070D  00AB               	movwf	?___flmul+1
  5529  070E  083E               	movf	___flmul@prod,w
  5530  070F  00AA               	movwf	?___flmul
  5531  0710                     l760:
  5532  0710  0008               	return
  5533  0711                     __end_of___flmul:
  5534                           
  5535                           	psect	text10
  5536  07CD                     __ptext10:	
  5537 ;; *************** function __Umul8_16 *****************
  5538 ;; Defined at:
  5539 ;;		line 4 in file "C:\Program Files\Microchip\xc8\v2.31\pic\sources\c90\common\Umul8_16.c"
  5540 ;; Parameters:    Size  Location     Type
  5541 ;;  multiplier      1    wreg     unsigned char 
  5542 ;;  multiplicand    1    3[COMMON] unsigned char 
  5543 ;; Auto vars:     Size  Location     Type
  5544 ;;  multiplier      1    4[BANK0 ] unsigned char 
  5545 ;;  word_mpld       2    2[BANK0 ] unsigned int 
  5546 ;;  product         2    0[BANK0 ] unsigned int 
  5547 ;; Return value:  Size  Location     Type
  5548 ;;                  2    3[COMMON] unsigned int 
  5549 ;; Registers used:
  5550 ;;		wreg, status,2, status,0
  5551 ;; Tracked objects:
  5552 ;;		On entry : 0/0
  5553 ;;		On exit  : 0/0
  5554 ;;		Unchanged: 0/0
  5555 ;; Data sizes:     COMMON   BANK0   BANK1   BANK3   BANK2
  5556 ;;      Params:         2       0       0       0       0
  5557 ;;      Locals:         0       5       0       0       0
  5558 ;;      Temps:          2       0       0       0       0
  5559 ;;      Totals:         4       5       0       0       0
  5560 ;;Total ram usage:        9 bytes
  5561 ;; Hardware stack levels used:    1
  5562 ;; Hardware stack levels required when called:    1
  5563 ;; This function calls:
  5564 ;;		Nothing
  5565 ;; This function is called by:
  5566 ;;		___flmul
  5567 ;; This function uses a non-reentrant model
  5568 ;;
  5569                           
  5570                           
  5571                           ;psect for function __Umul8_16
  5572  07CD                     __Umul8_16:
  5573                           
  5574                           ;incstack = 0
  5575                           ; Regs used in __Umul8_16: [wreg+status,2+status,0]
  5576                           ;__Umul8_16@multiplier stored from wreg
  5577  07CD  1283               	bcf	3,5	;RP0=0, select bank0
  5578  07CE  1303               	bcf	3,6	;RP1=0, select bank0
  5579  07CF  00A4               	movwf	__Umul8_16@multiplier
  5580  07D0                     l2095:
  5581  07D0  01A0               	clrf	__Umul8_16@product
  5582  07D1  01A1               	clrf	__Umul8_16@product+1
  5583  07D2                     l2097:
  5584  07D2  0873               	movf	__Umul8_16@multiplicand,w
  5585  07D3  00F5               	movwf	??__Umul8_16
  5586  07D4  01F6               	clrf	??__Umul8_16+1
  5587  07D5  0875               	movf	??__Umul8_16,w
  5588  07D6  00A2               	movwf	__Umul8_16@word_mpld
  5589  07D7  0876               	movf	??__Umul8_16+1,w
  5590  07D8  00A3               	movwf	__Umul8_16@word_mpld+1
  5591  07D9                     l2099:
  5592  07D9  1C24               	btfss	__Umul8_16@multiplier,0
  5593  07DA  2FDC               	goto	u2431
  5594  07DB  2FDD               	goto	u2430
  5595  07DC                     u2431:
  5596  07DC  2FE3               	goto	l779
  5597  07DD                     u2430:
  5598  07DD                     l2101:
  5599  07DD  0822               	movf	__Umul8_16@word_mpld,w
  5600  07DE  07A0               	addwf	__Umul8_16@product,f
  5601  07DF  1803               	skipnc
  5602  07E0  0AA1               	incf	__Umul8_16@product+1,f
  5603  07E1  0823               	movf	__Umul8_16@word_mpld+1,w
  5604  07E2  07A1               	addwf	__Umul8_16@product+1,f
  5605  07E3                     l779:
  5606  07E3  3001               	movlw	1
  5607  07E4                     u2445:
  5608  07E4  1003               	clrc
  5609  07E5  0DA2               	rlf	__Umul8_16@word_mpld,f
  5610  07E6  0DA3               	rlf	__Umul8_16@word_mpld+1,f
  5611  07E7  3EFF               	addlw	-1
  5612  07E8  1D03               	skipz
  5613  07E9  2FE4               	goto	u2445
  5614  07EA  1003               	clrc
  5615  07EB  0CA4               	rrf	__Umul8_16@multiplier,f
  5616  07EC                     l2103:
  5617  07EC  0824               	movf	__Umul8_16@multiplier,w
  5618  07ED  1D03               	btfss	3,2
  5619  07EE  2FF0               	goto	u2451
  5620  07EF  2FF1               	goto	u2450
  5621  07F0                     u2451:
  5622  07F0  2FD9               	goto	l2099
  5623  07F1                     u2450:
  5624  07F1                     l2105:
  5625  07F1  0821               	movf	__Umul8_16@product+1,w
  5626  07F2  00F4               	movwf	?__Umul8_16+1
  5627  07F3  0820               	movf	__Umul8_16@product,w
  5628  07F4  00F3               	movwf	?__Umul8_16
  5629  07F5                     l781:
  5630  07F5  0008               	return
  5631  07F6                     __end_of__Umul8_16:
  5632                           
  5633                           	psect	text11
  5634  085C                     __ptext11:	
  5635 ;; *************** function ___flge *****************
  5636 ;; Defined at:
  5637 ;;		line 4 in file "C:\Program Files\Microchip\xc8\v2.31\pic\sources\c90\common\flge.c"
  5638 ;; Parameters:    Size  Location     Type
  5639 ;;  ff1             4    0[BANK0 ] unsigned int 
  5640 ;;  ff2             4    4[BANK0 ] unsigned int 
  5641 ;; Auto vars:     Size  Location     Type
  5642 ;;		None
  5643 ;; Return value:  Size  Location     Type
  5644 ;;		None               void
  5645 ;; Registers used:
  5646 ;;		wreg, status,2, status,0
  5647 ;; Tracked objects:
  5648 ;;		On entry : 0/0
  5649 ;;		On exit  : 0/0
  5650 ;;		Unchanged: 0/0
  5651 ;; Data sizes:     COMMON   BANK0   BANK1   BANK3   BANK2
  5652 ;;      Params:         0       8       0       0       0
  5653 ;;      Locals:         0       0       0       0       0
  5654 ;;      Temps:          4       0       0       0       0
  5655 ;;      Totals:         4       8       0       0       0
  5656 ;;Total ram usage:       12 bytes
  5657 ;; Hardware stack levels used:    1
  5658 ;; Hardware stack levels required when called:    1
  5659 ;; This function calls:
  5660 ;;		Nothing
  5661 ;; This function is called by:
  5662 ;;		_main
  5663 ;;		_floattostr_
  5664 ;; This function uses a non-reentrant model
  5665 ;;
  5666                           
  5667                           
  5668                           ;psect for function ___flge
  5669  085C                     ___flge:
  5670  085C                     l3025:	
  5671                           ;incstack = 0
  5672                           ; Regs used in ___flge: [wreg+status,2+status,0]
  5673                           
  5674  085C  3000               	movlw	0
  5675  085D  1283               	bcf	3,5	;RP0=0, select bank0
  5676  085E  1303               	bcf	3,6	;RP1=0, select bank0
  5677  085F  0520               	andwf	___flge@ff1,w
  5678  0860  00F3               	movwf	??___flge
  5679  0861  3000               	movlw	0
  5680  0862  0521               	andwf	___flge@ff1+1,w
  5681  0863  00F4               	movwf	??___flge+1
  5682  0864  3080               	movlw	128
  5683  0865  0522               	andwf	___flge@ff1+2,w
  5684  0866  00F5               	movwf	??___flge+2
  5685  0867  307F               	movlw	127
  5686  0868  0523               	andwf	___flge@ff1+3,w
  5687  0869  00F6               	movwf	??___flge+3
  5688  086A  0876               	movf	??___flge+3,w
  5689  086B  0475               	iorwf	??___flge+2,w
  5690  086C  0474               	iorwf	??___flge+1,w
  5691  086D  0473               	iorwf	??___flge,w
  5692  086E  1D03               	skipz
  5693  086F  2871               	goto	u4271
  5694  0870  2872               	goto	u4270
  5695  0871                     u4271:
  5696  0871  287A               	goto	l545
  5697  0872                     u4270:
  5698  0872                     l3027:
  5699  0872  3000               	movlw	0
  5700  0873  00A3               	movwf	___flge@ff1+3
  5701  0874  3000               	movlw	0
  5702  0875  00A2               	movwf	___flge@ff1+2
  5703  0876  3000               	movlw	0
  5704  0877  00A1               	movwf	___flge@ff1+1
  5705  0878  3000               	movlw	0
  5706  0879  00A0               	movwf	___flge@ff1
  5707  087A                     l545:
  5708  087A  3000               	movlw	0
  5709  087B  0524               	andwf	___flge@ff2,w
  5710  087C  00F3               	movwf	??___flge
  5711  087D  3000               	movlw	0
  5712  087E  0525               	andwf	___flge@ff2+1,w
  5713  087F  00F4               	movwf	??___flge+1
  5714  0880  3080               	movlw	128
  5715  0881  0526               	andwf	___flge@ff2+2,w
  5716  0882  00F5               	movwf	??___flge+2
  5717  0883  307F               	movlw	127
  5718  0884  0527               	andwf	___flge@ff2+3,w
  5719  0885  00F6               	movwf	??___flge+3
  5720  0886  0876               	movf	??___flge+3,w
  5721  0887  0475               	iorwf	??___flge+2,w
  5722  0888  0474               	iorwf	??___flge+1,w
  5723  0889  0473               	iorwf	??___flge,w
  5724  088A  1D03               	skipz
  5725  088B  288D               	goto	u4281
  5726  088C  288E               	goto	u4280
  5727  088D                     u4281:
  5728  088D  2896               	goto	l3031
  5729  088E                     u4280:
  5730  088E                     l3029:
  5731  088E  3000               	movlw	0
  5732  088F  00A7               	movwf	___flge@ff2+3
  5733  0890  3000               	movlw	0
  5734  0891  00A6               	movwf	___flge@ff2+2
  5735  0892  3000               	movlw	0
  5736  0893  00A5               	movwf	___flge@ff2+1
  5737  0894  3000               	movlw	0
  5738  0895  00A4               	movwf	___flge@ff2
  5739  0896                     l3031:
  5740  0896  1FA3               	btfss	___flge@ff1+3,7
  5741  0897  2899               	goto	u4291
  5742  0898  289A               	goto	u4290
  5743  0899                     u4291:
  5744  0899  28BE               	goto	l3035
  5745  089A                     u4290:
  5746  089A                     l3033:
  5747  089A  3000               	movlw	0
  5748  089B  00F3               	movwf	??___flge
  5749  089C  3000               	movlw	0
  5750  089D  00F4               	movwf	??___flge+1
  5751  089E  3000               	movlw	0
  5752  089F  00F5               	movwf	??___flge+2
  5753  08A0  3080               	movlw	128
  5754  08A1  00F6               	movwf	??___flge+3
  5755  08A2  0820               	movf	___flge@ff1,w
  5756  08A3  02F3               	subwf	??___flge,f
  5757  08A4  0821               	movf	___flge@ff1+1,w
  5758  08A5  1C03               	skipc
  5759  08A6  0F21               	incfsz	___flge@ff1+1,w
  5760  08A7  28A9               	goto	u4301
  5761  08A8  28AA               	goto	u4302
  5762  08A9                     u4301:
  5763  08A9  02F4               	subwf	??___flge+1,f
  5764  08AA                     u4302:
  5765  08AA  0822               	movf	___flge@ff1+2,w
  5766  08AB  1C03               	skipc
  5767  08AC  0F22               	incfsz	___flge@ff1+2,w
  5768  08AD  28AF               	goto	u4303
  5769  08AE  28B0               	goto	u4304
  5770  08AF                     u4303:
  5771  08AF  02F5               	subwf	??___flge+2,f
  5772  08B0                     u4304:
  5773  08B0  0823               	movf	___flge@ff1+3,w
  5774  08B1  1C03               	skipc
  5775  08B2  0F23               	incfsz	___flge@ff1+3,w
  5776  08B3  28B5               	goto	u4305
  5777  08B4  28B6               	goto	u4306
  5778  08B5                     u4305:
  5779  08B5  02F6               	subwf	??___flge+3,f
  5780  08B6                     u4306:
  5781  08B6  0876               	movf	??___flge+3,w
  5782  08B7  00A3               	movwf	___flge@ff1+3
  5783  08B8  0875               	movf	??___flge+2,w
  5784  08B9  00A2               	movwf	___flge@ff1+2
  5785  08BA  0874               	movf	??___flge+1,w
  5786  08BB  00A1               	movwf	___flge@ff1+1
  5787  08BC  0873               	movf	??___flge,w
  5788  08BD  00A0               	movwf	___flge@ff1
  5789  08BE                     l3035:
  5790  08BE  1FA7               	btfss	___flge@ff2+3,7
  5791  08BF  28C1               	goto	u4311
  5792  08C0  28C2               	goto	u4310
  5793  08C1                     u4311:
  5794  08C1  28E6               	goto	l548
  5795  08C2                     u4310:
  5796  08C2                     l3037:
  5797  08C2  3000               	movlw	0
  5798  08C3  00F3               	movwf	??___flge
  5799  08C4  3000               	movlw	0
  5800  08C5  00F4               	movwf	??___flge+1
  5801  08C6  3000               	movlw	0
  5802  08C7  00F5               	movwf	??___flge+2
  5803  08C8  3080               	movlw	128
  5804  08C9  00F6               	movwf	??___flge+3
  5805  08CA  0824               	movf	___flge@ff2,w
  5806  08CB  02F3               	subwf	??___flge,f
  5807  08CC  0825               	movf	___flge@ff2+1,w
  5808  08CD  1C03               	skipc
  5809  08CE  0F25               	incfsz	___flge@ff2+1,w
  5810  08CF  28D1               	goto	u4321
  5811  08D0  28D2               	goto	u4322
  5812  08D1                     u4321:
  5813  08D1  02F4               	subwf	??___flge+1,f
  5814  08D2                     u4322:
  5815  08D2  0826               	movf	___flge@ff2+2,w
  5816  08D3  1C03               	skipc
  5817  08D4  0F26               	incfsz	___flge@ff2+2,w
  5818  08D5  28D7               	goto	u4323
  5819  08D6  28D8               	goto	u4324
  5820  08D7                     u4323:
  5821  08D7  02F5               	subwf	??___flge+2,f
  5822  08D8                     u4324:
  5823  08D8  0827               	movf	___flge@ff2+3,w
  5824  08D9  1C03               	skipc
  5825  08DA  0F27               	incfsz	___flge@ff2+3,w
  5826  08DB  28DD               	goto	u4325
  5827  08DC  28DE               	goto	u4326
  5828  08DD                     u4325:
  5829  08DD  02F6               	subwf	??___flge+3,f
  5830  08DE                     u4326:
  5831  08DE  0876               	movf	??___flge+3,w
  5832  08DF  00A7               	movwf	___flge@ff2+3
  5833  08E0  0875               	movf	??___flge+2,w
  5834  08E1  00A6               	movwf	___flge@ff2+2
  5835  08E2  0874               	movf	??___flge+1,w
  5836  08E3  00A5               	movwf	___flge@ff2+1
  5837  08E4  0873               	movf	??___flge,w
  5838  08E5  00A4               	movwf	___flge@ff2
  5839  08E6                     l548:
  5840  08E6  3080               	movlw	128
  5841  08E7  06A3               	xorwf	___flge@ff1+3,f
  5842  08E8  3080               	movlw	128
  5843  08E9  06A7               	xorwf	___flge@ff2+3,f
  5844  08EA  0827               	movf	___flge@ff2+3,w
  5845  08EB  0223               	subwf	___flge@ff1+3,w
  5846  08EC  1D03               	skipz
  5847  08ED  28F8               	goto	u4335
  5848  08EE  0826               	movf	___flge@ff2+2,w
  5849  08EF  0222               	subwf	___flge@ff1+2,w
  5850  08F0  1D03               	skipz
  5851  08F1  28F8               	goto	u4335
  5852  08F2  0825               	movf	___flge@ff2+1,w
  5853  08F3  0221               	subwf	___flge@ff1+1,w
  5854  08F4  1D03               	skipz
  5855  08F5  28F8               	goto	u4335
  5856  08F6  0824               	movf	___flge@ff2,w
  5857  08F7  0220               	subwf	___flge@ff1,w
  5858  08F8                     u4335:
  5859  08F8  1803               	skipnc
  5860  08F9  28FB               	goto	u4331
  5861  08FA  28FC               	goto	u4330
  5862  08FB                     u4331:
  5863  08FB  28FE               	goto	l3041
  5864  08FC                     u4330:
  5865  08FC                     l3039:
  5866  08FC  1003               	clrc
  5867  08FD  28FF               	goto	l549
  5868  08FE                     l3041:
  5869  08FE  1403               	setc
  5870  08FF                     l549:
  5871  08FF  0008               	return
  5872  0900                     __end_of___flge:
  5873                           
  5874                           	psect	text12
  5875  0900                     __ptext12:	
  5876 ;; *************** function ___fldiv *****************
  5877 ;; Defined at:
  5878 ;;		line 8 in file "C:\Program Files\Microchip\xc8\v2.31\pic\sources\c90\common\sprcdiv.c"
  5879 ;; Parameters:    Size  Location     Type
  5880 ;;  a               4   36[BANK0 ] unsigned int 
  5881 ;;  b               4   40[BANK0 ] unsigned int 
  5882 ;; Auto vars:     Size  Location     Type
  5883 ;;  grs             4   56[BANK0 ] unsigned long 
  5884 ;;  rem             4   49[BANK0 ] unsigned long 
  5885 ;;  new_exp         2   54[BANK0 ] int 
  5886 ;;  aexp            1   61[BANK0 ] unsigned char 
  5887 ;;  bexp            1   60[BANK0 ] unsigned char 
  5888 ;;  sign            1   53[BANK0 ] unsigned char 
  5889 ;; Return value:  Size  Location     Type
  5890 ;;                  4   36[BANK0 ] unsigned char 
  5891 ;; Registers used:
  5892 ;;		wreg, status,2, status,0, btemp+1
  5893 ;; Tracked objects:
  5894 ;;		On entry : 0/0
  5895 ;;		On exit  : 0/0
  5896 ;;		Unchanged: 0/0
  5897 ;; Data sizes:     COMMON   BANK0   BANK1   BANK3   BANK2
  5898 ;;      Params:         0       8       0       0       0
  5899 ;;      Locals:         0      13       0       0       0
  5900 ;;      Temps:          0       5       0       0       0
  5901 ;;      Totals:         0      26       0       0       0
  5902 ;;Total ram usage:       26 bytes
  5903 ;; Hardware stack levels used:    1
  5904 ;; Hardware stack levels required when called:    1
  5905 ;; This function calls:
  5906 ;;		Nothing
  5907 ;; This function is called by:
  5908 ;;		_main
  5909 ;;		_floattostr_
  5910 ;; This function uses a non-reentrant model
  5911 ;;
  5912                           
  5913                           
  5914                           ;psect for function ___fldiv
  5915  0900                     ___fldiv:
  5916  0900                     l2223:	
  5917                           ;incstack = 0
  5918                           ; Regs used in ___fldiv: [wreg+status,2+status,0+btemp+1]
  5919                           
  5920  0900  1283               	bcf	3,5	;RP0=0, select bank0
  5921  0901  1303               	bcf	3,6	;RP1=0, select bank0
  5922  0902  084B               	movf	___fldiv@b+3,w
  5923  0903  3980               	andlw	128
  5924  0904  00CC               	movwf	??___fldiv
  5925  0905  084C               	movf	??___fldiv,w
  5926  0906  00D5               	movwf	___fldiv@sign
  5927  0907                     l2225:
  5928  0907  084B               	movf	___fldiv@b+3,w
  5929  0908  00CC               	movwf	??___fldiv
  5930  0909  074C               	addwf	??___fldiv,w
  5931  090A  00CD               	movwf	??___fldiv+1
  5932  090B  084D               	movf	??___fldiv+1,w
  5933  090C  00DC               	movwf	___fldiv@bexp
  5934  090D                     l2227:
  5935  090D  1FCA               	btfss	___fldiv@b+2,7
  5936  090E  2910               	goto	u2651
  5937  090F  2911               	goto	u2650
  5938  0910                     u2651:
  5939  0910  2912               	goto	l2231
  5940  0911                     u2650:
  5941  0911                     l2229:
  5942  0911  145C               	bsf	___fldiv@bexp,0
  5943  0912                     l2231:
  5944  0912  085C               	movf	___fldiv@bexp,w
  5945  0913  1903               	btfsc	3,2
  5946  0914  2916               	goto	u2661
  5947  0915  2917               	goto	u2660
  5948  0916                     u2661:
  5949  0916  2927               	goto	l2241
  5950  0917                     u2660:
  5951  0917                     l2233:
  5952  0917  0A5C               	incf	___fldiv@bexp,w
  5953  0918  1D03               	btfss	3,2
  5954  0919  291B               	goto	u2671
  5955  091A  291C               	goto	u2670
  5956  091B                     u2671:
  5957  091B  2924               	goto	l2237
  5958  091C                     u2670:
  5959  091C                     l2235:
  5960  091C  3000               	movlw	0
  5961  091D  00CB               	movwf	___fldiv@b+3
  5962  091E  3000               	movlw	0
  5963  091F  00CA               	movwf	___fldiv@b+2
  5964  0920  3000               	movlw	0
  5965  0921  00C9               	movwf	___fldiv@b+1
  5966  0922  3000               	movlw	0
  5967  0923  00C8               	movwf	___fldiv@b
  5968  0924                     l2237:
  5969  0924  17CA               	bsf	___fldiv@b+2,7
  5970  0925                     l2239:
  5971  0925  01CB               	clrf	___fldiv@b+3
  5972  0926  292F               	goto	l2243
  5973  0927                     l2241:
  5974  0927  3000               	movlw	0
  5975  0928  00CB               	movwf	___fldiv@b+3
  5976  0929  3000               	movlw	0
  5977  092A  00CA               	movwf	___fldiv@b+2
  5978  092B  3000               	movlw	0
  5979  092C  00C9               	movwf	___fldiv@b+1
  5980  092D  3000               	movlw	0
  5981  092E  00C8               	movwf	___fldiv@b
  5982  092F                     l2243:
  5983  092F  0847               	movf	___fldiv@a+3,w
  5984  0930  3980               	andlw	128
  5985  0931  00CC               	movwf	??___fldiv
  5986  0932  084C               	movf	??___fldiv,w
  5987  0933  06D5               	xorwf	___fldiv@sign,f
  5988  0934                     l2245:
  5989  0934  0847               	movf	___fldiv@a+3,w
  5990  0935  00CC               	movwf	??___fldiv
  5991  0936  074C               	addwf	??___fldiv,w
  5992  0937  00CD               	movwf	??___fldiv+1
  5993  0938  084D               	movf	??___fldiv+1,w
  5994  0939  00DD               	movwf	___fldiv@aexp
  5995  093A                     l2247:
  5996  093A  1FC6               	btfss	___fldiv@a+2,7
  5997  093B  293D               	goto	u2681
  5998  093C  293E               	goto	u2680
  5999  093D                     u2681:
  6000  093D  293F               	goto	l2251
  6001  093E                     u2680:
  6002  093E                     l2249:
  6003  093E  145D               	bsf	___fldiv@aexp,0
  6004  093F                     l2251:
  6005  093F  085D               	movf	___fldiv@aexp,w
  6006  0940  1903               	btfsc	3,2
  6007  0941  2943               	goto	u2691
  6008  0942  2944               	goto	u2690
  6009  0943                     u2691:
  6010  0943  2954               	goto	l2261
  6011  0944                     u2690:
  6012  0944                     l2253:
  6013  0944  0A5D               	incf	___fldiv@aexp,w
  6014  0945  1D03               	btfss	3,2
  6015  0946  2948               	goto	u2701
  6016  0947  2949               	goto	u2700
  6017  0948                     u2701:
  6018  0948  2951               	goto	l2257
  6019  0949                     u2700:
  6020  0949                     l2255:
  6021  0949  3000               	movlw	0
  6022  094A  00C7               	movwf	___fldiv@a+3
  6023  094B  3000               	movlw	0
  6024  094C  00C6               	movwf	___fldiv@a+2
  6025  094D  3000               	movlw	0
  6026  094E  00C5               	movwf	___fldiv@a+1
  6027  094F  3000               	movlw	0
  6028  0950  00C4               	movwf	___fldiv@a
  6029  0951                     l2257:
  6030  0951  17C6               	bsf	___fldiv@a+2,7
  6031  0952                     l2259:
  6032  0952  01C7               	clrf	___fldiv@a+3
  6033  0953  295C               	goto	l720
  6034  0954                     l2261:
  6035  0954  3000               	movlw	0
  6036  0955  00C7               	movwf	___fldiv@a+3
  6037  0956  3000               	movlw	0
  6038  0957  00C6               	movwf	___fldiv@a+2
  6039  0958  3000               	movlw	0
  6040  0959  00C5               	movwf	___fldiv@a+1
  6041  095A  3000               	movlw	0
  6042  095B  00C4               	movwf	___fldiv@a
  6043  095C                     l720:
  6044  095C  0847               	movf	___fldiv@a+3,w
  6045  095D  0446               	iorwf	___fldiv@a+2,w
  6046  095E  0445               	iorwf	___fldiv@a+1,w
  6047  095F  0444               	iorwf	___fldiv@a,w
  6048  0960  1D03               	skipz
  6049  0961  2963               	goto	u2711
  6050  0962  2964               	goto	u2710
  6051  0963                     u2711:
  6052  0963  297D               	goto	l2271
  6053  0964                     u2710:
  6054  0964                     l2263:
  6055  0964  3000               	movlw	0
  6056  0965  00CB               	movwf	___fldiv@b+3
  6057  0966  3000               	movlw	0
  6058  0967  00CA               	movwf	___fldiv@b+2
  6059  0968  3000               	movlw	0
  6060  0969  00C9               	movwf	___fldiv@b+1
  6061  096A  3000               	movlw	0
  6062  096B  00C8               	movwf	___fldiv@b
  6063  096C  3080               	movlw	128
  6064  096D  04CA               	iorwf	___fldiv@b+2,f
  6065  096E  307F               	movlw	127
  6066  096F  04CB               	iorwf	___fldiv@b+3,f
  6067  0970                     l2265:
  6068  0970  0855               	movf	___fldiv@sign,w
  6069  0971  00CC               	movwf	??___fldiv
  6070  0972  084C               	movf	??___fldiv,w
  6071  0973  04CB               	iorwf	___fldiv@b+3,f
  6072  0974                     l2267:
  6073  0974  084B               	movf	___fldiv@b+3,w
  6074  0975  00C7               	movwf	?___fldiv+3
  6075  0976  084A               	movf	___fldiv@b+2,w
  6076  0977  00C6               	movwf	?___fldiv+2
  6077  0978  0849               	movf	___fldiv@b+1,w
  6078  0979  00C5               	movwf	?___fldiv+1
  6079  097A  0848               	movf	___fldiv@b,w
  6080  097B  00C4               	movwf	?___fldiv
  6081  097C  2ADC               	goto	l722
  6082  097D                     l2271:
  6083  097D  085C               	movf	___fldiv@bexp,w
  6084  097E  1D03               	btfss	3,2
  6085  097F  2981               	goto	u2721
  6086  0980  2982               	goto	u2720
  6087  0981                     u2721:
  6088  0981  298B               	goto	l2277
  6089  0982                     u2720:
  6090  0982                     l2273:
  6091  0982  3000               	movlw	0
  6092  0983  00C7               	movwf	?___fldiv+3
  6093  0984  3000               	movlw	0
  6094  0985  00C6               	movwf	?___fldiv+2
  6095  0986  3000               	movlw	0
  6096  0987  00C5               	movwf	?___fldiv+1
  6097  0988  3000               	movlw	0
  6098  0989  00C4               	movwf	?___fldiv
  6099  098A  2ADC               	goto	l722
  6100  098B                     l2277:
  6101  098B  085C               	movf	___fldiv@bexp,w
  6102  098C  00CC               	movwf	??___fldiv
  6103  098D  01CD               	clrf	??___fldiv+1
  6104  098E  084D               	movf	??___fldiv+1,w
  6105  098F  00CF               	movwf	??___fldiv+3
  6106  0990  085D               	movf	___fldiv@aexp,w
  6107  0991  024C               	subwf	??___fldiv,w
  6108  0992  00CE               	movwf	??___fldiv+2
  6109  0993  1C03               	skipc
  6110  0994  03CF               	decf	??___fldiv+3,f
  6111  0995  084E               	movf	??___fldiv+2,w
  6112  0996  3E7F               	addlw	127
  6113  0997  00D6               	movwf	___fldiv@new_exp
  6114  0998  084F               	movf	??___fldiv+3,w
  6115  0999  1803               	skipnc
  6116  099A  3E01               	addlw	1
  6117  099B  3E00               	addlw	0
  6118  099C  00D7               	movwf	___fldiv@new_exp+1
  6119  099D                     l2279:
  6120  099D  084B               	movf	___fldiv@b+3,w
  6121  099E  00D4               	movwf	___fldiv@rem+3
  6122  099F  084A               	movf	___fldiv@b+2,w
  6123  09A0  00D3               	movwf	___fldiv@rem+2
  6124  09A1  0849               	movf	___fldiv@b+1,w
  6125  09A2  00D2               	movwf	___fldiv@rem+1
  6126  09A3  0848               	movf	___fldiv@b,w
  6127  09A4  00D1               	movwf	___fldiv@rem
  6128  09A5                     l2281:
  6129  09A5  3000               	movlw	0
  6130  09A6  00CB               	movwf	___fldiv@b+3
  6131  09A7  3000               	movlw	0
  6132  09A8  00CA               	movwf	___fldiv@b+2
  6133  09A9  3000               	movlw	0
  6134  09AA  00C9               	movwf	___fldiv@b+1
  6135  09AB  3000               	movlw	0
  6136  09AC  00C8               	movwf	___fldiv@b
  6137  09AD                     l2283:
  6138  09AD  3000               	movlw	0
  6139  09AE  00DB               	movwf	___fldiv@grs+3
  6140  09AF  3000               	movlw	0
  6141  09B0  00DA               	movwf	___fldiv@grs+2
  6142  09B1  3000               	movlw	0
  6143  09B2  00D9               	movwf	___fldiv@grs+1
  6144  09B3  3000               	movlw	0
  6145  09B4  00D8               	movwf	___fldiv@grs
  6146  09B5                     l2285:
  6147  09B5  01DD               	clrf	___fldiv@aexp
  6148  09B6  2A01               	goto	l2305
  6149  09B7                     l2287:
  6150  09B7  085D               	movf	___fldiv@aexp,w
  6151  09B8  1903               	btfsc	3,2
  6152  09B9  29BB               	goto	u2731
  6153  09BA  29BC               	goto	u2730
  6154  09BB                     u2731:
  6155  09BB  29DC               	goto	l2297
  6156  09BC                     u2730:
  6157  09BC                     l2289:
  6158  09BC  3001               	movlw	1
  6159  09BD  00CC               	movwf	??___fldiv
  6160  09BE                     u2745:
  6161  09BE  1003               	clrc
  6162  09BF  0DD1               	rlf	___fldiv@rem,f
  6163  09C0  0DD2               	rlf	___fldiv@rem+1,f
  6164  09C1  0DD3               	rlf	___fldiv@rem+2,f
  6165  09C2  0DD4               	rlf	___fldiv@rem+3,f
  6166  09C3  0BCC               	decfsz	??___fldiv,f
  6167  09C4  29BE               	goto	u2745
  6168  09C5  3001               	movlw	1
  6169  09C6  00CC               	movwf	??___fldiv
  6170  09C7                     u2755:
  6171  09C7  1003               	clrc
  6172  09C8  0DC8               	rlf	___fldiv@b,f
  6173  09C9  0DC9               	rlf	___fldiv@b+1,f
  6174  09CA  0DCA               	rlf	___fldiv@b+2,f
  6175  09CB  0DCB               	rlf	___fldiv@b+3,f
  6176  09CC  0BCC               	decfsz	??___fldiv,f
  6177  09CD  29C7               	goto	u2755
  6178  09CE                     l2291:
  6179  09CE  1FDB               	btfss	___fldiv@grs+3,7
  6180  09CF  29D1               	goto	u2761
  6181  09D0  29D2               	goto	u2760
  6182  09D1                     u2761:
  6183  09D1  29D3               	goto	l2295
  6184  09D2                     u2760:
  6185  09D2                     l2293:
  6186  09D2  1448               	bsf	___fldiv@b,0
  6187  09D3                     l2295:
  6188  09D3  3001               	movlw	1
  6189  09D4  00CC               	movwf	??___fldiv
  6190  09D5                     u2775:
  6191  09D5  1003               	clrc
  6192  09D6  0DD8               	rlf	___fldiv@grs,f
  6193  09D7  0DD9               	rlf	___fldiv@grs+1,f
  6194  09D8  0DDA               	rlf	___fldiv@grs+2,f
  6195  09D9  0DDB               	rlf	___fldiv@grs+3,f
  6196  09DA  0BCC               	decfsz	??___fldiv,f
  6197  09DB  29D5               	goto	u2775
  6198  09DC                     l2297:
  6199  09DC  0847               	movf	___fldiv@a+3,w
  6200  09DD  0254               	subwf	___fldiv@rem+3,w
  6201  09DE  1D03               	skipz
  6202  09DF  29EA               	goto	u2785
  6203  09E0  0846               	movf	___fldiv@a+2,w
  6204  09E1  0253               	subwf	___fldiv@rem+2,w
  6205  09E2  1D03               	skipz
  6206  09E3  29EA               	goto	u2785
  6207  09E4  0845               	movf	___fldiv@a+1,w
  6208  09E5  0252               	subwf	___fldiv@rem+1,w
  6209  09E6  1D03               	skipz
  6210  09E7  29EA               	goto	u2785
  6211  09E8  0844               	movf	___fldiv@a,w
  6212  09E9  0251               	subwf	___fldiv@rem,w
  6213  09EA                     u2785:
  6214  09EA  1C03               	skipc
  6215  09EB  29ED               	goto	u2781
  6216  09EC  29EE               	goto	u2780
  6217  09ED                     u2781:
  6218  09ED  29FD               	goto	l2303
  6219  09EE                     u2780:
  6220  09EE                     l2299:
  6221  09EE  175B               	bsf	___fldiv@grs+3,6
  6222  09EF                     l2301:
  6223  09EF  0844               	movf	___fldiv@a,w
  6224  09F0  02D1               	subwf	___fldiv@rem,f
  6225  09F1  0845               	movf	___fldiv@a+1,w
  6226  09F2  1C03               	skipc
  6227  09F3  0F45               	incfsz	___fldiv@a+1,w
  6228  09F4  02D2               	subwf	___fldiv@rem+1,f
  6229  09F5  0846               	movf	___fldiv@a+2,w
  6230  09F6  1C03               	skipc
  6231  09F7  0F46               	incfsz	___fldiv@a+2,w
  6232  09F8  02D3               	subwf	___fldiv@rem+2,f
  6233  09F9  0847               	movf	___fldiv@a+3,w
  6234  09FA  1C03               	skipc
  6235  09FB  0F47               	incfsz	___fldiv@a+3,w
  6236  09FC  02D4               	subwf	___fldiv@rem+3,f
  6237  09FD                     l2303:
  6238  09FD  3001               	movlw	1
  6239  09FE  00CC               	movwf	??___fldiv
  6240  09FF  084C               	movf	??___fldiv,w
  6241  0A00  07DD               	addwf	___fldiv@aexp,f
  6242  0A01                     l2305:
  6243  0A01  301A               	movlw	26
  6244  0A02  025D               	subwf	___fldiv@aexp,w
  6245  0A03  1C03               	skipc
  6246  0A04  2A06               	goto	u2791
  6247  0A05  2A07               	goto	u2790
  6248  0A06                     u2791:
  6249  0A06  29B7               	goto	l2287
  6250  0A07                     u2790:
  6251  0A07                     l2307:
  6252  0A07  0854               	movf	___fldiv@rem+3,w
  6253  0A08  0453               	iorwf	___fldiv@rem+2,w
  6254  0A09  0452               	iorwf	___fldiv@rem+1,w
  6255  0A0A  0451               	iorwf	___fldiv@rem,w
  6256  0A0B  1903               	skipnz
  6257  0A0C  2A0E               	goto	u2801
  6258  0A0D  2A0F               	goto	u2800
  6259  0A0E                     u2801:
  6260  0A0E  2A2E               	goto	l2321
  6261  0A0F                     u2800:
  6262  0A0F                     l2309:
  6263  0A0F  1458               	bsf	___fldiv@grs,0
  6264  0A10  2A2E               	goto	l2321
  6265  0A11                     l2311:
  6266  0A11  3001               	movlw	1
  6267  0A12  00CC               	movwf	??___fldiv
  6268  0A13                     u2815:
  6269  0A13  1003               	clrc
  6270  0A14  0DC8               	rlf	___fldiv@b,f
  6271  0A15  0DC9               	rlf	___fldiv@b+1,f
  6272  0A16  0DCA               	rlf	___fldiv@b+2,f
  6273  0A17  0DCB               	rlf	___fldiv@b+3,f
  6274  0A18  0BCC               	decfsz	??___fldiv,f
  6275  0A19  2A13               	goto	u2815
  6276  0A1A                     l2313:
  6277  0A1A  1FDB               	btfss	___fldiv@grs+3,7
  6278  0A1B  2A1D               	goto	u2821
  6279  0A1C  2A1E               	goto	u2820
  6280  0A1D                     u2821:
  6281  0A1D  2A1F               	goto	l2317
  6282  0A1E                     u2820:
  6283  0A1E                     l2315:
  6284  0A1E  1448               	bsf	___fldiv@b,0
  6285  0A1F                     l2317:
  6286  0A1F  3001               	movlw	1
  6287  0A20  00CC               	movwf	??___fldiv
  6288  0A21                     u2835:
  6289  0A21  1003               	clrc
  6290  0A22  0DD8               	rlf	___fldiv@grs,f
  6291  0A23  0DD9               	rlf	___fldiv@grs+1,f
  6292  0A24  0DDA               	rlf	___fldiv@grs+2,f
  6293  0A25  0DDB               	rlf	___fldiv@grs+3,f
  6294  0A26  0BCC               	decfsz	??___fldiv,f
  6295  0A27  2A21               	goto	u2835
  6296  0A28                     l2319:
  6297  0A28  30FF               	movlw	255
  6298  0A29  07D6               	addwf	___fldiv@new_exp,f
  6299  0A2A  1803               	skipnc
  6300  0A2B  0AD7               	incf	___fldiv@new_exp+1,f
  6301  0A2C  30FF               	movlw	255
  6302  0A2D  07D7               	addwf	___fldiv@new_exp+1,f
  6303  0A2E                     l2321:
  6304  0A2E  1FCA               	btfss	___fldiv@b+2,7
  6305  0A2F  2A31               	goto	u2841
  6306  0A30  2A32               	goto	u2840
  6307  0A31                     u2841:
  6308  0A31  2A11               	goto	l2311
  6309  0A32                     u2840:
  6310  0A32                     l2323:
  6311  0A32  01DD               	clrf	___fldiv@aexp
  6312  0A33                     l2325:
  6313  0A33  1FDB               	btfss	___fldiv@grs+3,7
  6314  0A34  2A36               	goto	u2851
  6315  0A35  2A37               	goto	u2850
  6316  0A36                     u2851:
  6317  0A36  2A53               	goto	l2333
  6318  0A37                     u2850:
  6319  0A37                     l2327:
  6320  0A37  30FF               	movlw	255
  6321  0A38  0558               	andwf	___fldiv@grs,w
  6322  0A39  00CC               	movwf	??___fldiv
  6323  0A3A  30FF               	movlw	255
  6324  0A3B  0559               	andwf	___fldiv@grs+1,w
  6325  0A3C  00CD               	movwf	??___fldiv+1
  6326  0A3D  30FF               	movlw	255
  6327  0A3E  055A               	andwf	___fldiv@grs+2,w
  6328  0A3F  00CE               	movwf	??___fldiv+2
  6329  0A40  307F               	movlw	127
  6330  0A41  055B               	andwf	___fldiv@grs+3,w
  6331  0A42  00CF               	movwf	??___fldiv+3
  6332  0A43  084F               	movf	??___fldiv+3,w
  6333  0A44  044E               	iorwf	??___fldiv+2,w
  6334  0A45  044D               	iorwf	??___fldiv+1,w
  6335  0A46  044C               	iorwf	??___fldiv,w
  6336  0A47  1903               	skipnz
  6337  0A48  2A4A               	goto	u2861
  6338  0A49  2A4B               	goto	u2860
  6339  0A4A                     u2861:
  6340  0A4A  2A4E               	goto	l736
  6341  0A4B                     u2860:
  6342  0A4B                     l2329:
  6343  0A4B  01DD               	clrf	___fldiv@aexp
  6344  0A4C  0ADD               	incf	___fldiv@aexp,f
  6345  0A4D  2A53               	goto	l2333
  6346  0A4E                     l736:
  6347  0A4E  1C48               	btfss	___fldiv@b,0
  6348  0A4F  2A51               	goto	u2871
  6349  0A50  2A52               	goto	u2870
  6350  0A51                     u2871:
  6351  0A51  2A53               	goto	l2333
  6352  0A52                     u2870:
  6353  0A52  2A4B               	goto	l2329
  6354  0A53                     l2333:
  6355  0A53  085D               	movf	___fldiv@aexp,w
  6356  0A54  1903               	btfsc	3,2
  6357  0A55  2A57               	goto	u2881
  6358  0A56  2A58               	goto	u2880
  6359  0A57                     u2881:
  6360  0A57  2A89               	goto	l2343
  6361  0A58                     u2880:
  6362  0A58                     l2335:
  6363  0A58  3001               	movlw	1
  6364  0A59  07C8               	addwf	___fldiv@b,f
  6365  0A5A  3000               	movlw	0
  6366  0A5B  1803               	skipnc
  6367  0A5C  3001               	movlw	1
  6368  0A5D  07C9               	addwf	___fldiv@b+1,f
  6369  0A5E  3000               	movlw	0
  6370  0A5F  1803               	skipnc
  6371  0A60  3001               	movlw	1
  6372  0A61  07CA               	addwf	___fldiv@b+2,f
  6373  0A62  3000               	movlw	0
  6374  0A63  1803               	skipnc
  6375  0A64  3001               	movlw	1
  6376  0A65  07CB               	addwf	___fldiv@b+3,f
  6377  0A66                     l2337:
  6378  0A66  1C4B               	btfss	___fldiv@b+3,0
  6379  0A67  2A69               	goto	u2891
  6380  0A68  2A6A               	goto	u2890
  6381  0A69                     u2891:
  6382  0A69  2A89               	goto	l2343
  6383  0A6A                     u2890:
  6384  0A6A                     l2339:
  6385  0A6A  0848               	movf	___fldiv@b,w
  6386  0A6B  00CC               	movwf	??___fldiv
  6387  0A6C  0849               	movf	___fldiv@b+1,w
  6388  0A6D  00CD               	movwf	??___fldiv+1
  6389  0A6E  084A               	movf	___fldiv@b+2,w
  6390  0A6F  00CE               	movwf	??___fldiv+2
  6391  0A70  084B               	movf	___fldiv@b+3,w
  6392  0A71  00CF               	movwf	??___fldiv+3
  6393  0A72  3001               	movlw	1
  6394  0A73  00D0               	movwf	??___fldiv+4
  6395  0A74                     u2905:
  6396  0A74  0D4F               	rlf	??___fldiv+3,w
  6397  0A75  0CCF               	rrf	??___fldiv+3,f
  6398  0A76  0CCE               	rrf	??___fldiv+2,f
  6399  0A77  0CCD               	rrf	??___fldiv+1,f
  6400  0A78  0CCC               	rrf	??___fldiv,f
  6401  0A79                     u2900:
  6402  0A79  0BD0               	decfsz	??___fldiv+4,f
  6403  0A7A  2A74               	goto	u2905
  6404  0A7B  084F               	movf	??___fldiv+3,w
  6405  0A7C  00CB               	movwf	___fldiv@b+3
  6406  0A7D  084E               	movf	??___fldiv+2,w
  6407  0A7E  00CA               	movwf	___fldiv@b+2
  6408  0A7F  084D               	movf	??___fldiv+1,w
  6409  0A80  00C9               	movwf	___fldiv@b+1
  6410  0A81  084C               	movf	??___fldiv,w
  6411  0A82  00C8               	movwf	___fldiv@b
  6412  0A83                     l2341:
  6413  0A83  3001               	movlw	1
  6414  0A84  07D6               	addwf	___fldiv@new_exp,f
  6415  0A85  1803               	skipnc
  6416  0A86  0AD7               	incf	___fldiv@new_exp+1,f
  6417  0A87  3000               	movlw	0
  6418  0A88  07D7               	addwf	___fldiv@new_exp+1,f
  6419  0A89                     l2343:
  6420  0A89  0857               	movf	___fldiv@new_exp+1,w
  6421  0A8A  3A80               	xorlw	128
  6422  0A8B  00FF               	movwf	btemp+1
  6423  0A8C  3080               	movlw	128
  6424  0A8D  027F               	subwf	btemp+1,w
  6425  0A8E  1D03               	skipz
  6426  0A8F  2A92               	goto	u2915
  6427  0A90  30FF               	movlw	255
  6428  0A91  0256               	subwf	___fldiv@new_exp,w
  6429  0A92                     u2915:
  6430  0A92  1C03               	skipc
  6431  0A93  2A95               	goto	u2911
  6432  0A94  2A96               	goto	u2910
  6433  0A95                     u2911:
  6434  0A95  2AA4               	goto	l2347
  6435  0A96                     u2910:
  6436  0A96                     l2345:
  6437  0A96  30FF               	movlw	255
  6438  0A97  1283               	bcf	3,5	;RP0=0, select bank0
  6439  0A98  1303               	bcf	3,6	;RP1=0, select bank0
  6440  0A99  00D6               	movwf	___fldiv@new_exp
  6441  0A9A  3000               	movlw	0
  6442  0A9B  00D7               	movwf	___fldiv@new_exp+1
  6443  0A9C  3000               	movlw	0
  6444  0A9D  00CB               	movwf	___fldiv@b+3
  6445  0A9E  3000               	movlw	0
  6446  0A9F  00CA               	movwf	___fldiv@b+2
  6447  0AA0  3000               	movlw	0
  6448  0AA1  00C9               	movwf	___fldiv@b+1
  6449  0AA2  3000               	movlw	0
  6450  0AA3  00C8               	movwf	___fldiv@b
  6451  0AA4                     l2347:
  6452  0AA4  1283               	bcf	3,5	;RP0=0, select bank0
  6453  0AA5  1303               	bcf	3,6	;RP1=0, select bank0
  6454  0AA6  0857               	movf	___fldiv@new_exp+1,w
  6455  0AA7  3A80               	xorlw	128
  6456  0AA8  00FF               	movwf	btemp+1
  6457  0AA9  3080               	movlw	128
  6458  0AAA  027F               	subwf	btemp+1,w
  6459  0AAB  1D03               	skipz
  6460  0AAC  2AAF               	goto	u2925
  6461  0AAD  3001               	movlw	1
  6462  0AAE  0256               	subwf	___fldiv@new_exp,w
  6463  0AAF                     u2925:
  6464  0AAF  1803               	skipnc
  6465  0AB0  2AB2               	goto	u2921
  6466  0AB1  2AB3               	goto	u2920
  6467  0AB2                     u2921:
  6468  0AB2  2AC0               	goto	l742
  6469  0AB3                     u2920:
  6470  0AB3                     l2349:
  6471  0AB3  1283               	bcf	3,5	;RP0=0, select bank0
  6472  0AB4  1303               	bcf	3,6	;RP1=0, select bank0
  6473  0AB5  01D6               	clrf	___fldiv@new_exp
  6474  0AB6  01D7               	clrf	___fldiv@new_exp+1
  6475  0AB7                     l2351:
  6476  0AB7  3000               	movlw	0
  6477  0AB8  00CB               	movwf	___fldiv@b+3
  6478  0AB9  3000               	movlw	0
  6479  0ABA  00CA               	movwf	___fldiv@b+2
  6480  0ABB  3000               	movlw	0
  6481  0ABC  00C9               	movwf	___fldiv@b+1
  6482  0ABD  3000               	movlw	0
  6483  0ABE  00C8               	movwf	___fldiv@b
  6484  0ABF                     l2353:
  6485  0ABF  01D5               	clrf	___fldiv@sign
  6486  0AC0                     l742:
  6487  0AC0  1283               	bcf	3,5	;RP0=0, select bank0
  6488  0AC1  1303               	bcf	3,6	;RP1=0, select bank0
  6489  0AC2  0856               	movf	___fldiv@new_exp,w
  6490  0AC3  00CC               	movwf	??___fldiv
  6491  0AC4  084C               	movf	??___fldiv,w
  6492  0AC5  00DC               	movwf	___fldiv@bexp
  6493  0AC6                     l2355:
  6494  0AC6  1C5C               	btfss	___fldiv@bexp,0
  6495  0AC7  2AC9               	goto	u2931
  6496  0AC8  2ACA               	goto	u2930
  6497  0AC9                     u2931:
  6498  0AC9  2ACC               	goto	l2359
  6499  0ACA                     u2930:
  6500  0ACA                     l2357:
  6501  0ACA  17CA               	bsf	___fldiv@b+2,7
  6502  0ACB  2AD0               	goto	l744
  6503  0ACC                     l2359:
  6504  0ACC  307F               	movlw	127
  6505  0ACD  00CC               	movwf	??___fldiv
  6506  0ACE  084C               	movf	??___fldiv,w
  6507  0ACF  05CA               	andwf	___fldiv@b+2,f
  6508  0AD0                     l744:
  6509  0AD0  085C               	movf	___fldiv@bexp,w
  6510  0AD1  00CC               	movwf	??___fldiv
  6511  0AD2  1003               	clrc
  6512  0AD3  0C4C               	rrf	??___fldiv,w
  6513  0AD4  00CD               	movwf	??___fldiv+1
  6514  0AD5  084D               	movf	??___fldiv+1,w
  6515  0AD6  00CB               	movwf	___fldiv@b+3
  6516  0AD7  0855               	movf	___fldiv@sign,w
  6517  0AD8  00CC               	movwf	??___fldiv
  6518  0AD9  084C               	movf	??___fldiv,w
  6519  0ADA  04CB               	iorwf	___fldiv@b+3,f
  6520  0ADB  2974               	goto	l2267
  6521  0ADC                     l722:
  6522  0ADC  0008               	return
  6523  0ADD                     __end_of___fldiv:
  6524                           
  6525                           	psect	text13
  6526  160C                     __ptext13:	
  6527 ;; *************** function _Lcd_Write_String *****************
  6528 ;; Defined at:
  6529 ;;		line 98 in file "LCD.c"
  6530 ;; Parameters:    Size  Location     Type
  6531 ;;  a               2    0[BANK0 ] PTR unsigned char 
  6532 ;;		 -> texto(20), STR_1(11), 
  6533 ;; Auto vars:     Size  Location     Type
  6534 ;;  i               2    5[BANK0 ] int 
  6535 ;; Return value:  Size  Location     Type
  6536 ;;                  1    wreg      void 
  6537 ;; Registers used:
  6538 ;;		wreg, fsr0l, fsr0h, status,2, status,0, btemp+1, pclath, cstack
  6539 ;; Tracked objects:
  6540 ;;		On entry : 0/0
  6541 ;;		On exit  : 0/0
  6542 ;;		Unchanged: 0/0
  6543 ;; Data sizes:     COMMON   BANK0   BANK1   BANK3   BANK2
  6544 ;;      Params:         0       2       0       0       0
  6545 ;;      Locals:         0       2       0       0       0
  6546 ;;      Temps:          0       3       0       0       0
  6547 ;;      Totals:         0       7       0       0       0
  6548 ;;Total ram usage:        7 bytes
  6549 ;; Hardware stack levels used:    1
  6550 ;; Hardware stack levels required when called:    3
  6551 ;; This function calls:
  6552 ;;		_Lcd_Write_Char
  6553 ;; This function is called by:
  6554 ;;		_main
  6555 ;; This function uses a non-reentrant model
  6556 ;;
  6557                           
  6558                           
  6559                           ;psect for function _Lcd_Write_String
  6560  160C                     _Lcd_Write_String:
  6561  160C                     l3161:	
  6562                           ;incstack = 0
  6563                           ; Regs used in _Lcd_Write_String: [wreg-fsr0h+status,2+status,0+btemp+1+pclath+cstack]
  6564                           
  6565                           
  6566                           ;LCD.c: 99:     int i;;LCD.c: 100:     for (i = 0; a[i] != '\0'; i++)
  6567  160C  1283               	bcf	3,5	;RP0=0, select bank0
  6568  160D  1303               	bcf	3,6	;RP1=0, select bank0
  6569  160E  01A5               	clrf	Lcd_Write_String@i
  6570  160F  01A6               	clrf	Lcd_Write_String@i+1
  6571  1610  2E35               	goto	l3167
  6572  1611                     l3163:
  6573                           
  6574                           ;LCD.c: 101:         Lcd_Write_Char(a[i]);
  6575  1611  0825               	movf	Lcd_Write_String@i,w
  6576  1612  0720               	addwf	Lcd_Write_String@a,w
  6577  1613  00A3               	movwf	??_Lcd_Write_String+1
  6578  1614  0821               	movf	Lcd_Write_String@a+1,w
  6579  1615  00A2               	movwf	??_Lcd_Write_String
  6580  1616  1803               	skipnc
  6581  1617  0AA2               	incf	??_Lcd_Write_String,f
  6582  1618  1FA5               	btfss	Lcd_Write_String@i,7
  6583  1619  2E1B               	goto	u4620
  6584  161A  03A2               	decf	??_Lcd_Write_String,f
  6585  161B                     u4620:
  6586  161B  1283               	bcf	3,5	;RP0=0, select bank0
  6587  161C  1303               	bcf	3,6	;RP1=0, select bank0
  6588  161D  0822               	movf	??_Lcd_Write_String,w
  6589  161E  00A4               	movwf	??_Lcd_Write_String+2
  6590  161F  0824               	movf	??_Lcd_Write_String+2,w
  6591  1620  00FF               	movwf	btemp+1
  6592  1621  0823               	movf	??_Lcd_Write_String+1,w
  6593  1622  0084               	movwf	4
  6594  1623  160A  118A  2000  160A  118A  	fcall	stringtab
  6595  1628  160A  118A  25D3  160A  118A  	fcall	_Lcd_Write_Char
  6596  162D                     l3165:
  6597  162D  3001               	movlw	1
  6598  162E  1283               	bcf	3,5	;RP0=0, select bank0
  6599  162F  1303               	bcf	3,6	;RP1=0, select bank0
  6600  1630  07A5               	addwf	Lcd_Write_String@i,f
  6601  1631  1803               	skipnc
  6602  1632  0AA6               	incf	Lcd_Write_String@i+1,f
  6603  1633  3000               	movlw	0
  6604  1634  07A6               	addwf	Lcd_Write_String@i+1,f
  6605  1635                     l3167:
  6606  1635  0825               	movf	Lcd_Write_String@i,w
  6607  1636  0720               	addwf	Lcd_Write_String@a,w
  6608  1637  00A3               	movwf	??_Lcd_Write_String+1
  6609  1638  0821               	movf	Lcd_Write_String@a+1,w
  6610  1639  00A2               	movwf	??_Lcd_Write_String
  6611  163A  1803               	skipnc
  6612  163B  0AA2               	incf	??_Lcd_Write_String,f
  6613  163C  1FA5               	btfss	Lcd_Write_String@i,7
  6614  163D  2E3F               	goto	u4630
  6615  163E  03A2               	decf	??_Lcd_Write_String,f
  6616  163F                     u4630:
  6617  163F  1283               	bcf	3,5	;RP0=0, select bank0
  6618  1640  1303               	bcf	3,6	;RP1=0, select bank0
  6619  1641  0822               	movf	??_Lcd_Write_String,w
  6620  1642  00A4               	movwf	??_Lcd_Write_String+2
  6621  1643  0824               	movf	??_Lcd_Write_String+2,w
  6622  1644  00FF               	movwf	btemp+1
  6623  1645  0823               	movf	??_Lcd_Write_String+1,w
  6624  1646  0084               	movwf	4
  6625  1647  160A  118A  2000  160A  118A  	fcall	stringtab
  6626  164C  3A00               	xorlw	0
  6627  164D  1D03               	skipz
  6628  164E  2E50               	goto	u4641
  6629  164F  2E51               	goto	u4640
  6630  1650                     u4641:
  6631  1650  2E11               	goto	l3163
  6632  1651                     u4640:
  6633  1651                     l279:
  6634  1651  0008               	return
  6635  1652                     __end_of_Lcd_Write_String:
  6636                           
  6637                           	psect	text14
  6638  15D3                     __ptext14:	
  6639 ;; *************** function _Lcd_Write_Char *****************
  6640 ;; Defined at:
  6641 ;;		line 83 in file "LCD.c"
  6642 ;; Parameters:    Size  Location     Type
  6643 ;;  a               1    wreg     unsigned char 
  6644 ;; Auto vars:     Size  Location     Type
  6645 ;;  a               1    7[COMMON] unsigned char 
  6646 ;;  y               1    6[COMMON] unsigned char 
  6647 ;;  temp            1    5[COMMON] unsigned char 
  6648 ;; Return value:  Size  Location     Type
  6649 ;;                  1    wreg      void 
  6650 ;; Registers used:
  6651 ;;		wreg, status,2, status,0, pclath, cstack
  6652 ;; Tracked objects:
  6653 ;;		On entry : 0/0
  6654 ;;		On exit  : 0/0
  6655 ;;		Unchanged: 0/0
  6656 ;; Data sizes:     COMMON   BANK0   BANK1   BANK3   BANK2
  6657 ;;      Params:         0       0       0       0       0
  6658 ;;      Locals:         3       0       0       0       0
  6659 ;;      Temps:          1       0       0       0       0
  6660 ;;      Totals:         4       0       0       0       0
  6661 ;;Total ram usage:        4 bytes
  6662 ;; Hardware stack levels used:    1
  6663 ;; Hardware stack levels required when called:    2
  6664 ;; This function calls:
  6665 ;;		_Lcd_Port
  6666 ;; This function is called by:
  6667 ;;		_Lcd_Write_String
  6668 ;; This function uses a non-reentrant model
  6669 ;;
  6670                           
  6671                           
  6672                           ;psect for function _Lcd_Write_Char
  6673  15D3                     _Lcd_Write_Char:
  6674                           
  6675                           ;incstack = 0
  6676                           ; Regs used in _Lcd_Write_Char: [wreg+status,2+status,0+pclath+cstack]
  6677                           ;Lcd_Write_Char@a stored from wreg
  6678  15D3  00F7               	movwf	Lcd_Write_Char@a
  6679  15D4                     l2133:
  6680                           
  6681                           ;LCD.c: 84:     char temp, y;;LCD.c: 85:     temp = a & 0x0F;
  6682  15D4  0877               	movf	Lcd_Write_Char@a,w
  6683  15D5  390F               	andlw	15
  6684  15D6  00F4               	movwf	??_Lcd_Write_Char
  6685  15D7  0874               	movf	??_Lcd_Write_Char,w
  6686  15D8  00F5               	movwf	Lcd_Write_Char@temp
  6687                           
  6688                           ;LCD.c: 86:     y = a & 0xF0;
  6689  15D9  0877               	movf	Lcd_Write_Char@a,w
  6690  15DA  39F0               	andlw	240
  6691  15DB  00F4               	movwf	??_Lcd_Write_Char
  6692  15DC  0874               	movf	??_Lcd_Write_Char,w
  6693  15DD  00F6               	movwf	Lcd_Write_Char@y
  6694  15DE                     l2135:
  6695                           
  6696                           ;LCD.c: 87:     PORTBbits.RB4 = 1;
  6697  15DE  1283               	bcf	3,5	;RP0=0, select bank0
  6698  15DF  1303               	bcf	3,6	;RP1=0, select bank0
  6699  15E0  1606               	bsf	6,4	;volatile
  6700  15E1                     l2137:
  6701                           
  6702                           ;LCD.c: 88:     Lcd_Port(y >> 4);
  6703  15E1  0876               	movf	Lcd_Write_Char@y,w
  6704  15E2  00F4               	movwf	??_Lcd_Write_Char
  6705  15E3  3004               	movlw	4
  6706  15E4                     u2465:
  6707  15E4  1003               	clrc
  6708  15E5  0CF4               	rrf	??_Lcd_Write_Char,f
  6709  15E6  3EFF               	addlw	-1
  6710  15E7  1D03               	skipz
  6711  15E8  2DE4               	goto	u2465
  6712  15E9  0874               	movf	??_Lcd_Write_Char,w
  6713  15EA  160A  118A  257C  160A  118A  	fcall	_Lcd_Port
  6714  15EF                     l2139:
  6715                           
  6716                           ;LCD.c: 89:     RB5 = 1;
  6717  15EF  1283               	bcf	3,5	;RP0=0, select bank0
  6718  15F0  1303               	bcf	3,6	;RP1=0, select bank0
  6719  15F1  1686               	bsf	6,5	;volatile
  6720  15F2                     l2141:
  6721                           
  6722                           ;LCD.c: 90:     _delay((unsigned long)((40)*(8000000/4000000.0)));
  6723  15F2  301A               	movlw	26
  6724  15F3  00F4               	movwf	??_Lcd_Write_Char
  6725  15F4                     u4857:
  6726  15F4  0BF4               	decfsz	??_Lcd_Write_Char,f
  6727  15F5  2DF4               	goto	u4857
  6728  15F6  0000               	nop
  6729  15F7                     l2143:
  6730                           
  6731                           ;LCD.c: 91:     RB5 = 0;
  6732  15F7  1283               	bcf	3,5	;RP0=0, select bank0
  6733  15F8  1303               	bcf	3,6	;RP1=0, select bank0
  6734  15F9  1286               	bcf	6,5	;volatile
  6735  15FA                     l2145:
  6736                           
  6737                           ;LCD.c: 92:     Lcd_Port(temp);
  6738  15FA  0875               	movf	Lcd_Write_Char@temp,w
  6739  15FB  160A  118A  257C  160A  118A  	fcall	_Lcd_Port
  6740  1600                     l2147:
  6741                           
  6742                           ;LCD.c: 93:     RB5 = 1;
  6743  1600  1283               	bcf	3,5	;RP0=0, select bank0
  6744  1601  1303               	bcf	3,6	;RP1=0, select bank0
  6745  1602  1686               	bsf	6,5	;volatile
  6746  1603                     l2149:
  6747                           
  6748                           ;LCD.c: 94:     _delay((unsigned long)((40)*(8000000/4000000.0)));
  6749  1603  301A               	movlw	26
  6750  1604  00F4               	movwf	??_Lcd_Write_Char
  6751  1605                     u4867:
  6752  1605  0BF4               	decfsz	??_Lcd_Write_Char,f
  6753  1606  2E05               	goto	u4867
  6754  1607  0000               	nop
  6755  1608                     l2151:
  6756                           
  6757                           ;LCD.c: 95:     RB5 = 0;
  6758  1608  1283               	bcf	3,5	;RP0=0, select bank0
  6759  1609  1303               	bcf	3,6	;RP1=0, select bank0
  6760  160A  1286               	bcf	6,5	;volatile
  6761  160B                     l273:
  6762  160B  0008               	return
  6763  160C                     __end_of_Lcd_Write_Char:
  6764                           
  6765                           	psect	text15
  6766  0804                     __ptext15:	
  6767 ;; *************** function _Lcd_Set_Cursor *****************
  6768 ;; Defined at:
  6769 ;;		line 48 in file "LCD.c"
  6770 ;; Parameters:    Size  Location     Type
  6771 ;;  a               1    wreg     unsigned char 
  6772 ;;  b               1    7[COMMON] unsigned char 
  6773 ;; Auto vars:     Size  Location     Type
  6774 ;;  a               1    2[BANK0 ] unsigned char 
  6775 ;;  temp            1    5[BANK0 ] unsigned char 
  6776 ;;  y               1    4[BANK0 ] unsigned char 
  6777 ;;  z               1    3[BANK0 ] unsigned char 
  6778 ;; Return value:  Size  Location     Type
  6779 ;;                  1    wreg      void 
  6780 ;; Registers used:
  6781 ;;		wreg, status,2, status,0, pclath, cstack
  6782 ;; Tracked objects:
  6783 ;;		On entry : 0/0
  6784 ;;		On exit  : 0/0
  6785 ;;		Unchanged: 0/0
  6786 ;; Data sizes:     COMMON   BANK0   BANK1   BANK3   BANK2
  6787 ;;      Params:         1       0       0       0       0
  6788 ;;      Locals:         0       4       0       0       0
  6789 ;;      Temps:          0       2       0       0       0
  6790 ;;      Totals:         1       6       0       0       0
  6791 ;;Total ram usage:        7 bytes
  6792 ;; Hardware stack levels used:    1
  6793 ;; Hardware stack levels required when called:    3
  6794 ;; This function calls:
  6795 ;;		_Lcd_Cmd
  6796 ;; This function is called by:
  6797 ;;		_main
  6798 ;; This function uses a non-reentrant model
  6799 ;;
  6800                           
  6801                           
  6802                           ;psect for function _Lcd_Set_Cursor
  6803  0804                     _Lcd_Set_Cursor:
  6804                           
  6805                           ;incstack = 0
  6806                           ; Regs used in _Lcd_Set_Cursor: [wreg+status,2+status,0+pclath+cstack]
  6807                           ;Lcd_Set_Cursor@a stored from wreg
  6808  0804  1283               	bcf	3,5	;RP0=0, select bank0
  6809  0805  1303               	bcf	3,6	;RP1=0, select bank0
  6810  0806  00A2               	movwf	Lcd_Set_Cursor@a
  6811  0807                     l3141:
  6812                           
  6813                           ;LCD.c: 49:     char temp, z, y;;LCD.c: 50:     if (a == 1) {
  6814  0807  0322               	decf	Lcd_Set_Cursor@a,w
  6815  0808  1D03               	btfss	3,2
  6816  0809  280B               	goto	u4581
  6817  080A  280C               	goto	u4580
  6818  080B                     u4581:
  6819  080B  2831               	goto	l3151
  6820  080C                     u4580:
  6821  080C                     l3143:
  6822                           
  6823                           ;LCD.c: 51:         temp = 0x80 + b - 1;
  6824  080C  0877               	movf	Lcd_Set_Cursor@b,w
  6825  080D  3E7F               	addlw	127
  6826  080E  00A0               	movwf	??_Lcd_Set_Cursor
  6827  080F  0820               	movf	??_Lcd_Set_Cursor,w
  6828  0810  00A5               	movwf	Lcd_Set_Cursor@temp
  6829                           
  6830                           ;LCD.c: 52:         z = temp >> 4;
  6831  0811  0825               	movf	Lcd_Set_Cursor@temp,w
  6832  0812  00A0               	movwf	??_Lcd_Set_Cursor
  6833  0813  3004               	movlw	4
  6834  0814                     u4595:
  6835  0814  1003               	clrc
  6836  0815  0CA0               	rrf	??_Lcd_Set_Cursor,f
  6837  0816  3EFF               	addlw	-1
  6838  0817  1D03               	skipz
  6839  0818  2814               	goto	u4595
  6840  0819  0820               	movf	??_Lcd_Set_Cursor,w
  6841  081A  00A1               	movwf	??_Lcd_Set_Cursor+1
  6842  081B  0821               	movf	??_Lcd_Set_Cursor+1,w
  6843  081C  00A3               	movwf	Lcd_Set_Cursor@z
  6844  081D                     l3145:
  6845                           
  6846                           ;LCD.c: 53:         y = temp & 0x0F;
  6847  081D  0825               	movf	Lcd_Set_Cursor@temp,w
  6848  081E  390F               	andlw	15
  6849  081F  00A0               	movwf	??_Lcd_Set_Cursor
  6850  0820  0820               	movf	??_Lcd_Set_Cursor,w
  6851  0821  00A4               	movwf	Lcd_Set_Cursor@y
  6852  0822                     l3147:
  6853                           
  6854                           ;LCD.c: 54:         Lcd_Cmd(z);
  6855  0822  0823               	movf	Lcd_Set_Cursor@z,w
  6856  0823  160A  118A  2548  120A  158A  	fcall	_Lcd_Cmd
  6857  0828                     l3149:
  6858                           
  6859                           ;LCD.c: 55:         Lcd_Cmd(y);
  6860  0828  1283               	bcf	3,5	;RP0=0, select bank0
  6861  0829  1303               	bcf	3,6	;RP1=0, select bank0
  6862  082A  0824               	movf	Lcd_Set_Cursor@y,w
  6863  082B  160A  118A  2548  120A  158A  	fcall	_Lcd_Cmd
  6864                           
  6865                           ;LCD.c: 56:     } else if (a == 2) {
  6866  0830  285B               	goto	l267
  6867  0831                     l3151:
  6868  0831  3002               	movlw	2
  6869  0832  0622               	xorwf	Lcd_Set_Cursor@a,w
  6870  0833  1D03               	btfss	3,2
  6871  0834  2836               	goto	u4601
  6872  0835  2837               	goto	u4600
  6873  0836                     u4601:
  6874  0836  285B               	goto	l267
  6875  0837                     u4600:
  6876  0837                     l3153:
  6877                           
  6878                           ;LCD.c: 57:         temp = 0xC0 + b - 1;
  6879  0837  0877               	movf	Lcd_Set_Cursor@b,w
  6880  0838  3EBF               	addlw	191
  6881  0839  00A0               	movwf	??_Lcd_Set_Cursor
  6882  083A  0820               	movf	??_Lcd_Set_Cursor,w
  6883  083B  00A5               	movwf	Lcd_Set_Cursor@temp
  6884                           
  6885                           ;LCD.c: 58:         z = temp >> 4;
  6886  083C  0825               	movf	Lcd_Set_Cursor@temp,w
  6887  083D  00A0               	movwf	??_Lcd_Set_Cursor
  6888  083E  3004               	movlw	4
  6889  083F                     u4615:
  6890  083F  1003               	clrc
  6891  0840  0CA0               	rrf	??_Lcd_Set_Cursor,f
  6892  0841  3EFF               	addlw	-1
  6893  0842  1D03               	skipz
  6894  0843  283F               	goto	u4615
  6895  0844  0820               	movf	??_Lcd_Set_Cursor,w
  6896  0845  00A1               	movwf	??_Lcd_Set_Cursor+1
  6897  0846  0821               	movf	??_Lcd_Set_Cursor+1,w
  6898  0847  00A3               	movwf	Lcd_Set_Cursor@z
  6899  0848                     l3155:
  6900                           
  6901                           ;LCD.c: 59:         y = temp & 0x0F;
  6902  0848  0825               	movf	Lcd_Set_Cursor@temp,w
  6903  0849  390F               	andlw	15
  6904  084A  00A0               	movwf	??_Lcd_Set_Cursor
  6905  084B  0820               	movf	??_Lcd_Set_Cursor,w
  6906  084C  00A4               	movwf	Lcd_Set_Cursor@y
  6907  084D                     l3157:
  6908                           
  6909                           ;LCD.c: 60:         Lcd_Cmd(z);
  6910  084D  0823               	movf	Lcd_Set_Cursor@z,w
  6911  084E  160A  118A  2548  120A  158A  	fcall	_Lcd_Cmd
  6912  0853                     l3159:
  6913                           
  6914                           ;LCD.c: 61:         Lcd_Cmd(y);
  6915  0853  1283               	bcf	3,5	;RP0=0, select bank0
  6916  0854  1303               	bcf	3,6	;RP1=0, select bank0
  6917  0855  0824               	movf	Lcd_Set_Cursor@y,w
  6918  0856  160A  118A  2548  120A  158A  	fcall	_Lcd_Cmd
  6919  085B                     l267:
  6920  085B  0008               	return
  6921  085C                     __end_of_Lcd_Set_Cursor:
  6922                           
  6923                           	psect	text16
  6924  16A2                     __ptext16:	
  6925 ;; *************** function _Lcd_Init *****************
  6926 ;; Defined at:
  6927 ;;		line 65 in file "LCD.c"
  6928 ;; Parameters:    Size  Location     Type
  6929 ;;		None
  6930 ;; Auto vars:     Size  Location     Type
  6931 ;;		None
  6932 ;; Return value:  Size  Location     Type
  6933 ;;                  1    wreg      void 
  6934 ;; Registers used:
  6935 ;;		wreg, status,2, status,0, pclath, cstack
  6936 ;; Tracked objects:
  6937 ;;		On entry : 0/0
  6938 ;;		On exit  : 0/0
  6939 ;;		Unchanged: 0/0
  6940 ;; Data sizes:     COMMON   BANK0   BANK1   BANK3   BANK2
  6941 ;;      Params:         0       0       0       0       0
  6942 ;;      Locals:         0       0       0       0       0
  6943 ;;      Temps:          0       2       0       0       0
  6944 ;;      Totals:         0       2       0       0       0
  6945 ;;Total ram usage:        2 bytes
  6946 ;; Hardware stack levels used:    1
  6947 ;; Hardware stack levels required when called:    3
  6948 ;; This function calls:
  6949 ;;		_Lcd_Cmd
  6950 ;;		_Lcd_Port
  6951 ;; This function is called by:
  6952 ;;		_main
  6953 ;; This function uses a non-reentrant model
  6954 ;;
  6955                           
  6956                           
  6957                           ;psect for function _Lcd_Init
  6958  16A2                     _Lcd_Init:
  6959  16A2                     l3131:	
  6960                           ;incstack = 0
  6961                           ; Regs used in _Lcd_Init: [wreg+status,2+status,0+pclath+cstack]
  6962                           
  6963                           
  6964                           ;LCD.c: 66:     Lcd_Port(0x00);
  6965  16A2  3000               	movlw	0
  6966  16A3  160A  118A  257C  160A  118A  	fcall	_Lcd_Port
  6967  16A8                     l3133:
  6968                           
  6969                           ;LCD.c: 67:     _delay((unsigned long)((20)*(8000000/4000.0)));
  6970  16A8  3034               	movlw	52
  6971  16A9  1283               	bcf	3,5	;RP0=0, select bank0
  6972  16AA  1303               	bcf	3,6	;RP1=0, select bank0
  6973  16AB  00A1               	movwf	??_Lcd_Init+1
  6974  16AC  30F1               	movlw	241
  6975  16AD  00A0               	movwf	??_Lcd_Init
  6976  16AE                     u4877:
  6977  16AE  0BA0               	decfsz	??_Lcd_Init,f
  6978  16AF  2EAE               	goto	u4877
  6979  16B0  0BA1               	decfsz	??_Lcd_Init+1,f
  6980  16B1  2EAE               	goto	u4877
  6981  16B2                     l3135:
  6982                           
  6983                           ;LCD.c: 68:     Lcd_Cmd(0x03);
  6984  16B2  3003               	movlw	3
  6985  16B3  160A  118A  2548  160A  118A  	fcall	_Lcd_Cmd
  6986                           
  6987                           ;LCD.c: 69:     _delay((unsigned long)((5)*(8000000/4000.0)));
  6988  16B8  300D               	movlw	13
  6989  16B9  1283               	bcf	3,5	;RP0=0, select bank0
  6990  16BA  1303               	bcf	3,6	;RP1=0, select bank0
  6991  16BB  00A1               	movwf	??_Lcd_Init+1
  6992  16BC  30FB               	movlw	251
  6993  16BD  00A0               	movwf	??_Lcd_Init
  6994  16BE                     u4887:
  6995  16BE  0BA0               	decfsz	??_Lcd_Init,f
  6996  16BF  2EBE               	goto	u4887
  6997  16C0  0BA1               	decfsz	??_Lcd_Init+1,f
  6998  16C1  2EBE               	goto	u4887
  6999  16C2                     l3137:
  7000                           
  7001                           ;LCD.c: 70:     Lcd_Cmd(0x03);
  7002  16C2  3003               	movlw	3
  7003  16C3  160A  118A  2548  160A  118A  	fcall	_Lcd_Cmd
  7004  16C8                     l3139:
  7005                           
  7006                           ;LCD.c: 71:     _delay((unsigned long)((11)*(8000000/4000.0)));
  7007  16C8  301D               	movlw	29
  7008  16C9  1283               	bcf	3,5	;RP0=0, select bank0
  7009  16CA  1303               	bcf	3,6	;RP1=0, select bank0
  7010  16CB  00A1               	movwf	??_Lcd_Init+1
  7011  16CC  3090               	movlw	144
  7012  16CD  00A0               	movwf	??_Lcd_Init
  7013  16CE                     u4897:
  7014  16CE  0BA0               	decfsz	??_Lcd_Init,f
  7015  16CF  2ECE               	goto	u4897
  7016  16D0  0BA1               	decfsz	??_Lcd_Init+1,f
  7017  16D1  2ECE               	goto	u4897
  7018  16D2  0000               	nop
  7019                           
  7020                           ;LCD.c: 72:     Lcd_Cmd(0x03);
  7021  16D3  3003               	movlw	3
  7022  16D4  160A  118A  2548  160A  118A  	fcall	_Lcd_Cmd
  7023                           
  7024                           ;LCD.c: 74:     Lcd_Cmd(0x02);
  7025  16D9  3002               	movlw	2
  7026  16DA  160A  118A  2548  160A  118A  	fcall	_Lcd_Cmd
  7027                           
  7028                           ;LCD.c: 75:     Lcd_Cmd(0x02);
  7029  16DF  3002               	movlw	2
  7030  16E0  160A  118A  2548  160A  118A  	fcall	_Lcd_Cmd
  7031                           
  7032                           ;LCD.c: 76:     Lcd_Cmd(0x08);
  7033  16E5  3008               	movlw	8
  7034  16E6  160A  118A  2548  160A  118A  	fcall	_Lcd_Cmd
  7035                           
  7036                           ;LCD.c: 77:     Lcd_Cmd(0x00);
  7037  16EB  3000               	movlw	0
  7038  16EC  160A  118A  2548  160A  118A  	fcall	_Lcd_Cmd
  7039                           
  7040                           ;LCD.c: 78:     Lcd_Cmd(0x0C);
  7041  16F1  300C               	movlw	12
  7042  16F2  160A  118A  2548  160A  118A  	fcall	_Lcd_Cmd
  7043                           
  7044                           ;LCD.c: 79:     Lcd_Cmd(0x00);
  7045  16F7  3000               	movlw	0
  7046  16F8  160A  118A  2548  160A  118A  	fcall	_Lcd_Cmd
  7047                           
  7048                           ;LCD.c: 80:     Lcd_Cmd(0x06);
  7049  16FD  3006               	movlw	6
  7050  16FE  160A  118A  2548  160A  118A  	fcall	_Lcd_Cmd
  7051  1703                     l270:
  7052  1703  0008               	return
  7053  1704                     __end_of_Lcd_Init:
  7054                           
  7055                           	psect	text17
  7056  153B                     __ptext17:	
  7057 ;; *************** function _Lcd_Clear *****************
  7058 ;; Defined at:
  7059 ;;		line 43 in file "LCD.c"
  7060 ;; Parameters:    Size  Location     Type
  7061 ;;		None
  7062 ;; Auto vars:     Size  Location     Type
  7063 ;;		None
  7064 ;; Return value:  Size  Location     Type
  7065 ;;                  1    wreg      void 
  7066 ;; Registers used:
  7067 ;;		wreg, status,2, status,0, pclath, cstack
  7068 ;; Tracked objects:
  7069 ;;		On entry : 0/0
  7070 ;;		On exit  : 0/0
  7071 ;;		Unchanged: 0/0
  7072 ;; Data sizes:     COMMON   BANK0   BANK1   BANK3   BANK2
  7073 ;;      Params:         0       0       0       0       0
  7074 ;;      Locals:         0       0       0       0       0
  7075 ;;      Temps:          0       0       0       0       0
  7076 ;;      Totals:         0       0       0       0       0
  7077 ;;Total ram usage:        0 bytes
  7078 ;; Hardware stack levels used:    1
  7079 ;; Hardware stack levels required when called:    3
  7080 ;; This function calls:
  7081 ;;		_Lcd_Cmd
  7082 ;; This function is called by:
  7083 ;;		_main
  7084 ;; This function uses a non-reentrant model
  7085 ;;
  7086                           
  7087                           
  7088                           ;psect for function _Lcd_Clear
  7089  153B                     _Lcd_Clear:
  7090  153B                     l2609:	
  7091                           ;incstack = 0
  7092                           ; Regs used in _Lcd_Clear: [wreg+status,2+status,0+pclath+cstack]
  7093                           
  7094                           
  7095                           ;LCD.c: 44:     Lcd_Cmd(0);
  7096  153B  3000               	movlw	0
  7097  153C  160A  118A  2548  160A  118A  	fcall	_Lcd_Cmd
  7098                           
  7099                           ;LCD.c: 45:     Lcd_Cmd(1);
  7100  1541  3001               	movlw	1
  7101  1542  160A  118A  2548  160A  118A  	fcall	_Lcd_Cmd
  7102  1547                     l261:
  7103  1547  0008               	return
  7104  1548                     __end_of_Lcd_Clear:
  7105                           
  7106                           	psect	text18
  7107  1548                     __ptext18:	
  7108 ;; *************** function _Lcd_Cmd *****************
  7109 ;; Defined at:
  7110 ;;		line 35 in file "LCD.c"
  7111 ;; Parameters:    Size  Location     Type
  7112 ;;  a               1    wreg     unsigned char 
  7113 ;; Auto vars:     Size  Location     Type
  7114 ;;  a               1    6[COMMON] unsigned char 
  7115 ;; Return value:  Size  Location     Type
  7116 ;;                  1    wreg      void 
  7117 ;; Registers used:
  7118 ;;		wreg, status,2, status,0, pclath, cstack
  7119 ;; Tracked objects:
  7120 ;;		On entry : 0/0
  7121 ;;		On exit  : 0/0
  7122 ;;		Unchanged: 0/0
  7123 ;; Data sizes:     COMMON   BANK0   BANK1   BANK3   BANK2
  7124 ;;      Params:         0       0       0       0       0
  7125 ;;      Locals:         1       0       0       0       0
  7126 ;;      Temps:          2       0       0       0       0
  7127 ;;      Totals:         3       0       0       0       0
  7128 ;;Total ram usage:        3 bytes
  7129 ;; Hardware stack levels used:    1
  7130 ;; Hardware stack levels required when called:    2
  7131 ;; This function calls:
  7132 ;;		_Lcd_Port
  7133 ;; This function is called by:
  7134 ;;		_Lcd_Clear
  7135 ;;		_Lcd_Set_Cursor
  7136 ;;		_Lcd_Init
  7137 ;;		_Lcd_Shift_Right
  7138 ;;		_Lcd_Shift_Left
  7139 ;; This function uses a non-reentrant model
  7140 ;;
  7141                           
  7142                           
  7143                           ;psect for function _Lcd_Cmd
  7144  1548                     _Lcd_Cmd:
  7145                           
  7146                           ;incstack = 0
  7147                           ; Regs used in _Lcd_Cmd: [wreg+status,2+status,0+pclath+cstack]
  7148                           ;Lcd_Cmd@a stored from wreg
  7149  1548  00F6               	movwf	Lcd_Cmd@a
  7150  1549                     l2123:
  7151                           
  7152                           ;LCD.c: 36:     PORTBbits.RB4 = 0;
  7153  1549  1283               	bcf	3,5	;RP0=0, select bank0
  7154  154A  1303               	bcf	3,6	;RP1=0, select bank0
  7155  154B  1206               	bcf	6,4	;volatile
  7156  154C                     l2125:
  7157                           
  7158                           ;LCD.c: 37:     Lcd_Port(a);
  7159  154C  0876               	movf	Lcd_Cmd@a,w
  7160  154D  160A  118A  257C  160A  118A  	fcall	_Lcd_Port
  7161  1552                     l2127:
  7162                           
  7163                           ;LCD.c: 38:     RB5 = 1;
  7164  1552  1283               	bcf	3,5	;RP0=0, select bank0
  7165  1553  1303               	bcf	3,6	;RP1=0, select bank0
  7166  1554  1686               	bsf	6,5	;volatile
  7167  1555                     l2129:
  7168                           
  7169                           ;LCD.c: 39:     _delay((unsigned long)((4)*(8000000/4000.0)));
  7170  1555  300B               	movlw	11
  7171  1556  00F5               	movwf	??_Lcd_Cmd+1
  7172  1557  3062               	movlw	98
  7173  1558  00F4               	movwf	??_Lcd_Cmd
  7174  1559                     u4907:
  7175  1559  0BF4               	decfsz	??_Lcd_Cmd,f
  7176  155A  2D59               	goto	u4907
  7177  155B  0BF5               	decfsz	??_Lcd_Cmd+1,f
  7178  155C  2D59               	goto	u4907
  7179  155D  0000               	nop
  7180  155E                     l2131:
  7181                           
  7182                           ;LCD.c: 40:     RB5 = 0;
  7183  155E  1283               	bcf	3,5	;RP0=0, select bank0
  7184  155F  1303               	bcf	3,6	;RP1=0, select bank0
  7185  1560  1286               	bcf	6,5	;volatile
  7186  1561                     l258:
  7187  1561  0008               	return
  7188  1562                     __end_of_Lcd_Cmd:
  7189                           
  7190                           	psect	text19
  7191  157C                     __ptext19:	
  7192 ;; *************** function _Lcd_Port *****************
  7193 ;; Defined at:
  7194 ;;		line 13 in file "LCD.c"
  7195 ;; Parameters:    Size  Location     Type
  7196 ;;  a               1    wreg     unsigned char 
  7197 ;; Auto vars:     Size  Location     Type
  7198 ;;  a               1    3[COMMON] unsigned char 
  7199 ;; Return value:  Size  Location     Type
  7200 ;;                  1    wreg      void 
  7201 ;; Registers used:
  7202 ;;		wreg
  7203 ;; Tracked objects:
  7204 ;;		On entry : 0/0
  7205 ;;		On exit  : 0/0
  7206 ;;		Unchanged: 0/0
  7207 ;; Data sizes:     COMMON   BANK0   BANK1   BANK3   BANK2
  7208 ;;      Params:         0       0       0       0       0
  7209 ;;      Locals:         1       0       0       0       0
  7210 ;;      Temps:          0       0       0       0       0
  7211 ;;      Totals:         1       0       0       0       0
  7212 ;;Total ram usage:        1 bytes
  7213 ;; Hardware stack levels used:    1
  7214 ;; Hardware stack levels required when called:    1
  7215 ;; This function calls:
  7216 ;;		Nothing
  7217 ;; This function is called by:
  7218 ;;		_Lcd_Cmd
  7219 ;;		_Lcd_Init
  7220 ;;		_Lcd_Write_Char
  7221 ;; This function uses a non-reentrant model
  7222 ;;
  7223                           
  7224                           
  7225                           ;psect for function _Lcd_Port
  7226  157C                     _Lcd_Port:
  7227                           
  7228                           ;incstack = 0
  7229                           ; Regs used in _Lcd_Port: [wreg]
  7230                           ;Lcd_Port@a stored from wreg
  7231  157C  00F3               	movwf	Lcd_Port@a
  7232  157D                     l1891:
  7233                           
  7234                           ;LCD.c: 14:     if (a & 1)
  7235  157D  1C73               	btfss	Lcd_Port@a,0
  7236  157E  2D80               	goto	u1931
  7237  157F  2D81               	goto	u1930
  7238  1580                     u1931:
  7239  1580  2D85               	goto	l247
  7240  1581                     u1930:
  7241  1581                     l1893:
  7242                           
  7243                           ;LCD.c: 15:         RB0 = 1;
  7244  1581  1283               	bcf	3,5	;RP0=0, select bank0
  7245  1582  1303               	bcf	3,6	;RP1=0, select bank0
  7246  1583  1406               	bsf	6,0	;volatile
  7247  1584  2D88               	goto	l248
  7248  1585                     l247:	
  7249                           ;LCD.c: 16:     else
  7250                           
  7251                           
  7252                           ;LCD.c: 17:         RB0 = 0;
  7253  1585  1283               	bcf	3,5	;RP0=0, select bank0
  7254  1586  1303               	bcf	3,6	;RP1=0, select bank0
  7255  1587  1006               	bcf	6,0	;volatile
  7256  1588                     l248:
  7257                           
  7258                           ;LCD.c: 19:     if (a & 2)
  7259  1588  1CF3               	btfss	Lcd_Port@a,1
  7260  1589  2D8B               	goto	u1941
  7261  158A  2D8C               	goto	u1940
  7262  158B                     u1941:
  7263  158B  2D8E               	goto	l249
  7264  158C                     u1940:
  7265  158C                     l1895:
  7266                           
  7267                           ;LCD.c: 20:         RB1 = 1;
  7268  158C  1486               	bsf	6,1	;volatile
  7269  158D  2D8F               	goto	l250
  7270  158E                     l249:	
  7271                           ;LCD.c: 21:     else
  7272                           
  7273                           
  7274                           ;LCD.c: 22:         RB1 = 0;
  7275  158E  1086               	bcf	6,1	;volatile
  7276  158F                     l250:
  7277                           
  7278                           ;LCD.c: 24:     if (a & 4)
  7279  158F  1D73               	btfss	Lcd_Port@a,2
  7280  1590  2D92               	goto	u1951
  7281  1591  2D93               	goto	u1950
  7282  1592                     u1951:
  7283  1592  2D95               	goto	l251
  7284  1593                     u1950:
  7285  1593                     l1897:
  7286                           
  7287                           ;LCD.c: 25:         RB2 = 1;
  7288  1593  1506               	bsf	6,2	;volatile
  7289  1594  2D96               	goto	l252
  7290  1595                     l251:	
  7291                           ;LCD.c: 26:     else
  7292                           
  7293                           
  7294                           ;LCD.c: 27:         RB2 = 0;
  7295  1595  1106               	bcf	6,2	;volatile
  7296  1596                     l252:
  7297                           
  7298                           ;LCD.c: 29:     if (a & 8)
  7299  1596  1DF3               	btfss	Lcd_Port@a,3
  7300  1597  2D99               	goto	u1961
  7301  1598  2D9A               	goto	u1960
  7302  1599                     u1961:
  7303  1599  2D9C               	goto	l253
  7304  159A                     u1960:
  7305  159A                     l1899:
  7306                           
  7307                           ;LCD.c: 30:         RB3 = 1;
  7308  159A  1586               	bsf	6,3	;volatile
  7309  159B  2D9D               	goto	l255
  7310  159C                     l253:	
  7311                           ;LCD.c: 31:     else
  7312                           
  7313                           
  7314                           ;LCD.c: 32:         RB3 = 0;
  7315  159C  1186               	bcf	6,3	;volatile
  7316  159D                     l255:
  7317  159D  0008               	return
  7318  159E                     __end_of_Lcd_Port:
  7319                           
  7320                           	psect	text20
  7321  1780                     __ptext20:	
  7322 ;; *************** function _isr *****************
  7323 ;; Defined at:
  7324 ;;		line 63 in file "main.c"
  7325 ;; Parameters:    Size  Location     Type
  7326 ;;		None
  7327 ;; Auto vars:     Size  Location     Type
  7328 ;;		None
  7329 ;; Return value:  Size  Location     Type
  7330 ;;                  1    wreg      void 
  7331 ;; Registers used:
  7332 ;;		wreg, status,2
  7333 ;; Tracked objects:
  7334 ;;		On entry : 0/0
  7335 ;;		On exit  : 0/0
  7336 ;;		Unchanged: 0/0
  7337 ;; Data sizes:     COMMON   BANK0   BANK1   BANK3   BANK2
  7338 ;;      Params:         0       0       0       0       0
  7339 ;;      Locals:         0       0       0       0       0
  7340 ;;      Temps:          3       0       0       0       0
  7341 ;;      Totals:         3       0       0       0       0
  7342 ;;Total ram usage:        3 bytes
  7343 ;; Hardware stack levels used:    1
  7344 ;; This function calls:
  7345 ;;		Nothing
  7346 ;; This function is called by:
  7347 ;;		Interrupt level 1
  7348 ;; This function uses a non-reentrant model
  7349 ;;
  7350                           
  7351                           
  7352                           ;psect for function _isr
  7353  1780                     _isr:
  7354  1780                     i1l2729:
  7355                           
  7356                           ;main.c: 64:     (INTCONbits.GIE = 0);
  7357  1780  138B               	bcf	11,7	;volatile
  7358                           
  7359                           ;main.c: 65:     if (PIR2bits.CCP2IF == 1){
  7360  1781  1283               	bcf	3,5	;RP0=0, select bank0
  7361  1782  1303               	bcf	3,6	;RP1=0, select bank0
  7362  1783  1C0D               	btfss	13,0	;volatile
  7363  1784  2F86               	goto	u363_21
  7364  1785  2F87               	goto	u363_20
  7365  1786                     u363_21:
  7366  1786  2F9A               	goto	i1l2745
  7367  1787                     u363_20:
  7368  1787                     i1l2731:
  7369                           
  7370                           ;main.c: 67:         TMR1ON = 0;
  7371  1787  1010               	bcf	16,0	;volatile
  7372  1788                     i1l2733:
  7373                           
  7374                           ;main.c: 68:         frecu=(CCPR2H << 8 ) | CCPR2L;
  7375  1788  081C               	movf	28,w	;volatile
  7376  1789  1683               	bsf	3,5	;RP0=1, select bank1
  7377  178A  1303               	bcf	3,6	;RP1=0, select bank1
  7378  178B  00E0               	movwf	(_frecu+1)^(0+128)
  7379  178C  1283               	bcf	3,5	;RP0=0, select bank0
  7380  178D  1303               	bcf	3,6	;RP1=0, select bank0
  7381  178E  081B               	movf	27,w	;volatile
  7382  178F  1683               	bsf	3,5	;RP0=1, select bank1
  7383  1790  1303               	bcf	3,6	;RP1=0, select bank1
  7384  1791  00DF               	movwf	_frecu^(0+128)
  7385  1792                     i1l2735:
  7386                           
  7387                           ;main.c: 69:         flag_frec=1;
  7388  1792  01C6               	clrf	_flag_frec^(0+128)
  7389  1793  0AC6               	incf	_flag_frec^(0+128),f
  7390  1794                     i1l2737:
  7391                           
  7392                           ;main.c: 70:         TMR1L = 0X00;
  7393  1794  1283               	bcf	3,5	;RP0=0, select bank0
  7394  1795  1303               	bcf	3,6	;RP1=0, select bank0
  7395  1796  018E               	clrf	14	;volatile
  7396  1797                     i1l2739:
  7397                           
  7398                           ;main.c: 71:         TMR1H = 0X00;
  7399  1797  018F               	clrf	15	;volatile
  7400  1798                     i1l2741:
  7401                           
  7402                           ;main.c: 72:         PIR2bits.CCP2IF = 0;
  7403  1798  100D               	bcf	13,0	;volatile
  7404  1799                     i1l2743:
  7405                           
  7406                           ;main.c: 73:         TMR1ON = 1;
  7407  1799  1410               	bsf	16,0	;volatile
  7408  179A                     i1l2745:
  7409                           
  7410                           ;main.c: 76:      if(PIR1bits.SSPIF == 1){
  7411  179A  1D8C               	btfss	12,3	;volatile
  7412  179B  2F9D               	goto	u364_21
  7413  179C  2F9E               	goto	u364_20
  7414  179D                     u364_21:
  7415  179D  2FF8               	goto	i1l116
  7416  179E                     u364_20:
  7417  179E                     i1l2747:
  7418                           
  7419                           ;main.c: 78:         SSPCONbits.CKP = 0;
  7420  179E  1214               	bcf	20,4	;volatile
  7421                           
  7422                           ;main.c: 80:         if ((SSPCONbits.SSPOV) || (SSPCONbits.WCOL)){
  7423  179F  1B14               	btfsc	20,6	;volatile
  7424  17A0  2FA2               	goto	u365_21
  7425  17A1  2FA3               	goto	u365_20
  7426  17A2                     u365_21:
  7427  17A2  2FA7               	goto	i1l2751
  7428  17A3                     u365_20:
  7429  17A3                     i1l2749:
  7430  17A3  1F94               	btfss	20,7	;volatile
  7431  17A4  2FA6               	goto	u366_21
  7432  17A5  2FA7               	goto	u366_20
  7433  17A6                     u366_21:
  7434  17A6  2FB2               	goto	i1l2759
  7435  17A7                     u366_20:
  7436  17A7                     i1l2751:
  7437                           
  7438                           ;main.c: 81:             z = SSPBUF;
  7439  17A7  0813               	movf	19,w	;volatile
  7440  17A8  00F0               	movwf	??_isr
  7441  17A9  0870               	movf	??_isr,w
  7442  17AA  1683               	bsf	3,5	;RP0=1, select bank1
  7443  17AB  1303               	bcf	3,6	;RP1=0, select bank1
  7444  17AC  00C5               	movwf	_z^(0+128)
  7445  17AD                     i1l2753:
  7446                           
  7447                           ;main.c: 82:             SSPCONbits.SSPOV = 0;
  7448  17AD  1283               	bcf	3,5	;RP0=0, select bank0
  7449  17AE  1303               	bcf	3,6	;RP1=0, select bank0
  7450  17AF  1314               	bcf	20,6	;volatile
  7451  17B0                     i1l2755:
  7452                           
  7453                           ;main.c: 83:             SSPCONbits.WCOL = 0;
  7454  17B0  1394               	bcf	20,7	;volatile
  7455  17B1                     i1l2757:
  7456                           
  7457                           ;main.c: 84:             SSPCONbits.CKP = 1;
  7458  17B1  1614               	bsf	20,4	;volatile
  7459  17B2                     i1l2759:
  7460                           
  7461                           ;main.c: 87:         if(!SSPSTATbits.D_nA && !SSPSTATbits.R_nW) {
  7462  17B2  1683               	bsf	3,5	;RP0=1, select bank1
  7463  17B3  1303               	bcf	3,6	;RP1=0, select bank1
  7464  17B4  1A94               	btfsc	20,5	;volatile
  7465  17B5  2FB7               	goto	u367_21
  7466  17B6  2FB8               	goto	u367_20
  7467  17B7                     u367_21:
  7468  17B7  2FD4               	goto	i1l120
  7469  17B8                     u367_20:
  7470  17B8                     i1l2761:
  7471  17B8  1914               	btfsc	20,2	;volatile
  7472  17B9  2FBB               	goto	u368_21
  7473  17BA  2FBC               	goto	u368_20
  7474  17BB                     u368_21:
  7475  17BB  2FD4               	goto	i1l120
  7476  17BC                     u368_20:
  7477  17BC                     i1l2763:
  7478                           
  7479                           ;main.c: 89:             z = SSPBUF;
  7480  17BC  1283               	bcf	3,5	;RP0=0, select bank0
  7481  17BD  1303               	bcf	3,6	;RP1=0, select bank0
  7482  17BE  0813               	movf	19,w	;volatile
  7483  17BF  00F0               	movwf	??_isr
  7484  17C0  0870               	movf	??_isr,w
  7485  17C1  1683               	bsf	3,5	;RP0=1, select bank1
  7486  17C2  1303               	bcf	3,6	;RP1=0, select bank1
  7487  17C3  00C5               	movwf	_z^(0+128)
  7488  17C4                     i1l2765:
  7489                           
  7490                           ;main.c: 91:             PIR1bits.SSPIF = 0;
  7491  17C4  1283               	bcf	3,5	;RP0=0, select bank0
  7492  17C5  1303               	bcf	3,6	;RP1=0, select bank0
  7493  17C6  118C               	bcf	12,3	;volatile
  7494  17C7                     i1l2767:
  7495                           
  7496                           ;main.c: 92:             SSPCONbits.CKP = 1;
  7497  17C7  1614               	bsf	20,4	;volatile
  7498  17C8                     i1l121:	
  7499                           ;main.c: 93:             while(!SSPSTATbits.BF);
  7500                           
  7501  17C8  1683               	bsf	3,5	;RP0=1, select bank1
  7502  17C9  1303               	bcf	3,6	;RP1=0, select bank1
  7503  17CA  1C14               	btfss	20,0	;volatile
  7504  17CB  2FCD               	goto	u369_21
  7505  17CC  2FCE               	goto	u369_20
  7506  17CD                     u369_21:
  7507  17CD  2FC8               	goto	i1l121
  7508  17CE                     u369_20:
  7509  17CE                     i1l2769:
  7510                           
  7511                           ;main.c: 95:             _delay((unsigned long)((250)*(8000000/4000000.0)));
  7512  17CE  30A6               	movlw	166
  7513  17CF  00F0               	movwf	??_isr
  7514  17D0                     u491_27:
  7515  17D0  0BF0               	decfsz	??_isr,f
  7516  17D1  2FD0               	goto	u491_27
  7517  17D2  0000               	nop
  7518                           
  7519                           ;main.c: 97:         }else if(!SSPSTATbits.D_nA && SSPSTATbits.R_nW){
  7520  17D3  2FF5               	goto	i1l124
  7521  17D4                     i1l120:
  7522  17D4  1A94               	btfsc	20,5	;volatile
  7523  17D5  2FD7               	goto	u370_21
  7524  17D6  2FD8               	goto	u370_20
  7525  17D7                     u370_21:
  7526  17D7  2FF5               	goto	i1l124
  7527  17D8                     u370_20:
  7528  17D8                     i1l2771:
  7529  17D8  1D14               	btfss	20,2	;volatile
  7530  17D9  2FDB               	goto	u371_21
  7531  17DA  2FDC               	goto	u371_20
  7532  17DB                     u371_21:
  7533  17DB  2FF5               	goto	i1l124
  7534  17DC                     u371_20:
  7535  17DC                     i1l2773:
  7536                           
  7537                           ;main.c: 98:             z = SSPBUF;
  7538  17DC  1283               	bcf	3,5	;RP0=0, select bank0
  7539  17DD  1303               	bcf	3,6	;RP1=0, select bank0
  7540  17DE  0813               	movf	19,w	;volatile
  7541  17DF  00F0               	movwf	??_isr
  7542  17E0  0870               	movf	??_isr,w
  7543  17E1  1683               	bsf	3,5	;RP0=1, select bank1
  7544  17E2  1303               	bcf	3,6	;RP1=0, select bank1
  7545  17E3  00C5               	movwf	_z^(0+128)
  7546  17E4                     i1l2775:
  7547                           
  7548                           ;main.c: 99:             BF = 0;
  7549  17E4  1014               	bcf	20,0	;volatile
  7550                           
  7551                           ;main.c: 100:             SSPBUF = COLOR;
  7552  17E5  0848               	movf	_COLOR^(0+128),w
  7553  17E6  1283               	bcf	3,5	;RP0=0, select bank0
  7554  17E7  1303               	bcf	3,6	;RP1=0, select bank0
  7555  17E8  0093               	movwf	19	;volatile
  7556  17E9                     i1l2777:
  7557                           
  7558                           ;main.c: 101:             SSPCONbits.CKP = 1;
  7559  17E9  1614               	bsf	20,4	;volatile
  7560                           
  7561                           ;main.c: 102:             _delay((unsigned long)((250)*(8000000/4000000.0)));
  7562  17EA  30A6               	movlw	166
  7563  17EB  00F0               	movwf	??_isr
  7564  17EC                     u492_27:
  7565  17EC  0BF0               	decfsz	??_isr,f
  7566  17ED  2FEC               	goto	u492_27
  7567  17EE  0000               	nop
  7568  17EF                     i1l126:	
  7569                           ;main.c: 103:             while(SSPSTATbits.BF);
  7570                           
  7571  17EF  1683               	bsf	3,5	;RP0=1, select bank1
  7572  17F0  1303               	bcf	3,6	;RP1=0, select bank1
  7573  17F1  1814               	btfsc	20,0	;volatile
  7574  17F2  2FF4               	goto	u372_21
  7575  17F3  2FF5               	goto	u372_20
  7576  17F4                     u372_21:
  7577  17F4  2FEF               	goto	i1l126
  7578  17F5                     u372_20:
  7579  17F5                     i1l124:
  7580                           
  7581                           ;main.c: 106:         PIR1bits.SSPIF = 0;
  7582  17F5  1283               	bcf	3,5	;RP0=0, select bank0
  7583  17F6  1303               	bcf	3,6	;RP1=0, select bank0
  7584  17F7  118C               	bcf	12,3	;volatile
  7585  17F8                     i1l116:	
  7586                           ;main.c: 107:     }
  7587                           
  7588                           
  7589                           ;main.c: 108:     (INTCONbits.GIE = 1);
  7590  17F8  178B               	bsf	11,7	;volatile
  7591  17F9                     i1l129:
  7592  17F9  0872               	movf	??_isr+2,w
  7593  17FA  008A               	movwf	10
  7594  17FB  0E71               	swapf	??_isr+1,w
  7595  17FC  0083               	movwf	3
  7596  17FD  0EFE               	swapf	btemp,f
  7597  17FE  0E7E               	swapf	btemp,w
  7598  17FF  0009               	retfie
  7599  1800                     __end_of_isr:
  7600  007E                     btemp	set	126	;btemp
  7601  007E                     wtemp0	set	126
  7602                           
  7603                           	psect	intentry
  7604  0004                     __pintentry:	
  7605                           ;incstack = 0
  7606                           ; Regs used in _isr: [wreg+status,2]
  7607                           
  7608  0004                     interrupt_function:
  7609  007E                     saved_w	set	btemp
  7610  0004  00FE               	movwf	btemp
  7611  0005  0E03               	swapf	3,w
  7612  0006  00F1               	movwf	??_isr+1
  7613  0007  080A               	movf	10,w
  7614  0008  00F2               	movwf	??_isr+2
  7615  0009  160A  118A  2F80   	ljmp	_isr
  7616                           
  7617                           	psect	config
  7618                           
  7619                           ;Config register CONFIG1 @ 0x2007
  7620                           ;	Oscillator Selection bits
  7621                           ;	FOSC = INTRC_CLKOUT, INTOSC oscillator: CLKOUT function on RA6/OSC2/CLKOUT pin, I/O fu
      +                          nction on RA7/OSC1/CLKIN
  7622                           ;	Watchdog Timer Enable bit
  7623                           ;	WDTE = OFF, WDT disabled and can be enabled by SWDTEN bit of the WDTCON register
  7624                           ;	Power-up Timer Enable bit
  7625                           ;	PWRTE = OFF, PWRT disabled
  7626                           ;	RE3/MCLR pin function select bit
  7627                           ;	MCLRE = OFF, RE3/MCLR pin function is digital input, MCLR internally tied to VDD
  7628                           ;	Code Protection bit
  7629                           ;	CP = OFF, Program memory code protection is disabled
  7630                           ;	Data Code Protection bit
  7631                           ;	CPD = OFF, Data memory code protection is disabled
  7632                           ;	Brown Out Reset Selection bits
  7633                           ;	BOREN = OFF, BOR disabled
  7634                           ;	Internal External Switchover bit
  7635                           ;	IESO = OFF, Internal/External Switchover mode is disabled
  7636                           ;	Fail-Safe Clock Monitor Enabled bit
  7637                           ;	FCMEN = OFF, Fail-Safe Clock Monitor is disabled
  7638                           ;	Low Voltage Programming Enable bit
  7639                           ;	LVP = OFF, RB3 pin has digital I/O, HV on MCLR must be used for programming
  7640                           ;	In-Circuit Debugger Mode bit
  7641                           ;	DEBUG = 0x1, unprogrammed default
  7642  2007                     	org	8199
  7643  2007  20D5               	dw	8405
  7644                           
  7645                           ;Config register CONFIG2 @ 0x2008
  7646                           ;	Brown-out Reset Selection bit
  7647                           ;	BOR4V = BOR40V, Brown-out Reset set to 4.0V
  7648                           ;	Flash Program Memory Self Write Enable bits
  7649                           ;	WRT = OFF, Write protection off
  7650  2008                     	org	8200
  7651  2008  3FFF               	dw	16383

Data Sizes:
    Strings     11
    Constant    0
    Data        0
    BSS         36
    Persistent  0
    Stack       0

Auto Spaces:
    Space          Size  Autos    Used
    COMMON           14      8      11
    BANK0            80     78      79
    BANK1            80     33      65
    BANK3            96      0       0
    BANK2            96      0       0

Pointer List with Targets:

    Lcd_Write_String@a	PTR unsigned char  size(2) Largest target is 20
		 -> texto(BANK1[20]), STR_1(CODE[11]), 

    floattostr_@cadena_	PTR unsigned char  size(1) Largest target is 20
		 -> texto(BANK1[20]), 


Critical Paths under _main in COMMON

    _main->_Lcd_Set_Cursor
    _main->_floattostr_
    _setup->_I2C_Slave_Init
    _floattostr_->___flge
    _floattostr_->___flneg
    _floattostr_->___fltol
    _floattostr_->___xxtofl
    ___flsub->___xxtofl
    ___flmul->__Umul8_16
    ___flmul->___xxtofl
    ___fldiv->___xxtofl
    _Lcd_Write_String->_Lcd_Write_Char
    _Lcd_Write_Char->_Lcd_Port
    _Lcd_Set_Cursor->_Lcd_Cmd
    _Lcd_Init->_Lcd_Cmd
    _Lcd_Clear->_Lcd_Cmd
    _Lcd_Cmd->_Lcd_Port

Critical Paths under _isr in COMMON

    None.

Critical Paths under _main in BANK0

    _floattostr_->___fladd
    ___flsub->___fladd
    ___fladd->___fldiv
    ___flmul->___xxtofl
    ___fldiv->___flmul

Critical Paths under _isr in BANK0

    None.

Critical Paths under _main in BANK1

    _main->_floattostr_
    _floattostr_->___flsub
    ___flsub->___fladd

Critical Paths under _isr in BANK1

    None.

Critical Paths under _main in BANK3

    None.

Critical Paths under _isr in BANK3

    None.

Critical Paths under _main in BANK2

    None.

Critical Paths under _isr in BANK2

    None.

Call Graph Tables:

 ---------------------------------------------------------------------------------
 (Depth) Function   	        Calls       Base Space   Used Autos Params    Refs
 ---------------------------------------------------------------------------------
 (0) _main                                                 3     3      0   25317
                                             30 BANK1      3     3      0
                          _Lcd_Clear
                           _Lcd_Init
                     _Lcd_Set_Cursor
                   _Lcd_Write_String
                            ___fldiv
                             ___flge
                            ___flmul
                           ___xxtofl
                        _floattostr_
                              _setup
 ---------------------------------------------------------------------------------
 (1) _setup                                                0     0      0      22
                     _I2C_Slave_Init
 ---------------------------------------------------------------------------------
 (2) _I2C_Slave_Init                                       1     1      0      22
                                              3 COMMON     1     1      0
 ---------------------------------------------------------------------------------
 (1) _floattostr_                                         19    13      6   16377
                                              7 COMMON     1     1      0
                                             12 BANK1     18    12      6
                            ___fladd
                            ___fldiv
                             ___flge
                            ___flmul
                            ___flneg
                            ___flsub
                            ___fltol
                           ___xxtofl
 ---------------------------------------------------------------------------------
 (2) ___xxtofl                                            14    10      4     746
                                              3 COMMON     4     0      4
                                              0 BANK0     10    10      0
 ---------------------------------------------------------------------------------
 (2) ___fltol                                             11     7      4     427
                                              3 COMMON     4     0      4
                                              0 BANK0      7     7      0
 ---------------------------------------------------------------------------------
 (2) ___flsub                                              8     0      8    3547
                                              4 BANK1      8     0      8
                            ___fladd
                           ___xxtofl (ARG)
 ---------------------------------------------------------------------------------
 (3) ___fladd                                             20    12      8    3302
                                             62 BANK0     16     8      8
                                              0 BANK1      4     4      0
                            ___fldiv (ARG)
 ---------------------------------------------------------------------------------
 (2) ___flneg                                              4     0      4     121
                                              3 COMMON     4     0      4
 ---------------------------------------------------------------------------------
 (2) ___flmul                                             26    18      8    2721
                                             10 BANK0     26    18      8
                          __Umul8_16
                           ___xxtofl (ARG)
 ---------------------------------------------------------------------------------
 (3) __Umul8_16                                            9     7      2     799
                                              3 COMMON     4     2      2
                                              0 BANK0      5     5      0
 ---------------------------------------------------------------------------------
 (2) ___flge                                              12     4      8    2246
                                              3 COMMON     4     4      0
                                              0 BANK0      8     0      8
 ---------------------------------------------------------------------------------
 (2) ___fldiv                                             26    18      8    1729
                                             36 BANK0     26    18      8
                            ___flmul (ARG)
                           ___xxtofl (ARG)
 ---------------------------------------------------------------------------------
 (1) _Lcd_Write_String                                     7     5      2     488
                                              0 BANK0      7     5      2
                     _Lcd_Write_Char
 ---------------------------------------------------------------------------------
 (2) _Lcd_Write_Char                                       4     4      0     178
                                              4 COMMON     4     4      0
                           _Lcd_Port
 ---------------------------------------------------------------------------------
 (1) _Lcd_Set_Cursor                                       7     6      1     680
                                              7 COMMON     1     0      1
                                              0 BANK0      6     6      0
                            _Lcd_Cmd
 ---------------------------------------------------------------------------------
 (1) _Lcd_Init                                             2     2      0     198
                                              0 BANK0      2     2      0
                            _Lcd_Cmd
                           _Lcd_Port
 ---------------------------------------------------------------------------------
 (1) _Lcd_Clear                                            0     0      0     110
                            _Lcd_Cmd
 ---------------------------------------------------------------------------------
 (2) _Lcd_Cmd                                              3     3      0     110
                                              4 COMMON     3     3      0
                           _Lcd_Port
 ---------------------------------------------------------------------------------
 (3) _Lcd_Port                                             1     1      0      88
                                              3 COMMON     1     1      0
 ---------------------------------------------------------------------------------
 Estimated maximum stack depth 3
 ---------------------------------------------------------------------------------
 (Depth) Function   	        Calls       Base Space   Used Autos Params    Refs
 ---------------------------------------------------------------------------------
 (4) _isr                                                  3     3      0       0
                                              0 COMMON     3     3      0
 ---------------------------------------------------------------------------------
 Estimated maximum stack depth 4
 ---------------------------------------------------------------------------------

 Call Graph Graphs:

 _main (ROOT)
   _Lcd_Clear
     _Lcd_Cmd
       _Lcd_Port
   _Lcd_Init
     _Lcd_Cmd
       _Lcd_Port
     _Lcd_Port
   _Lcd_Set_Cursor
     _Lcd_Cmd
       _Lcd_Port
   _Lcd_Write_String
     _Lcd_Write_Char
       _Lcd_Port
   ___fldiv
     ___flmul (ARG)
       __Umul8_16
       ___xxtofl (ARG)
     ___xxtofl (ARG)
   ___flge
   ___flmul
     __Umul8_16
     ___xxtofl (ARG)
   ___xxtofl
   _floattostr_
     ___fladd
       ___fldiv (ARG)
         ___flmul (ARG)
           __Umul8_16
           ___xxtofl (ARG)
         ___xxtofl (ARG)
     ___fldiv
       ___flmul (ARG)
         __Umul8_16
         ___xxtofl (ARG)
       ___xxtofl (ARG)
     ___flge
     ___flmul
       __Umul8_16
       ___xxtofl (ARG)
     ___flneg
     ___flsub
       ___fladd
         ___fldiv (ARG)
           ___flmul (ARG)
             __Umul8_16
             ___xxtofl (ARG)
           ___xxtofl (ARG)
       ___xxtofl (ARG)
     ___fltol
     ___xxtofl
   _setup
     _I2C_Slave_Init

 _isr (ROOT)

 Address spaces:
Name               Size   Autos  Total    Cost      Usage
BITCOMMON            E      0       0       0        0.0%
EEDATA             100      0       0       0        0.0%
NULL                 0      0       0       0        0.0%
CODE                 0      0       0       0        0.0%
COMMON               E      8       B       1       78.6%
BITSFR0              0      0       0       1        0.0%
SFR0                 0      0       0       1        0.0%
BITSFR1              0      0       0       2        0.0%
SFR1                 0      0       0       2        0.0%
STACK                0      0       0       2        0.0%
ABS                  0      0      9B       3        0.0%
BITBANK0            50      0       0       4        0.0%
BITSFR3              0      0       0       4        0.0%
SFR3                 0      0       0       4        0.0%
BANK0               50     4E      4F       5       98.8%
BITSFR2              0      0       0       5        0.0%
SFR2                 0      0       0       5        0.0%
BITBANK1            50      0       0       6        0.0%
BANK1               50     21      41       7       81.2%
BITBANK3            60      0       0       8        0.0%
BANK3               60      0       0       9        0.0%
BITBANK2            60      0       0      10        0.0%
BANK2               60      0       0      11        0.0%
DATA                 0      0      9B      12        0.0%


Microchip Technology PIC Macro Assembler V2.31 build 20201012212115 
Symbol Table                                                                                   Sun Sep 05 19:09:59 2021

             ___fldiv@aexp 005D               ___fldiv@bexp 005C                          _z 00C5  
                        pc 0002               ___fldiv@sign 0055                _SSPSTATbits 0094  
                       _BF 04A0                         fsr 0004        __Umul8_16@word_mpld 0022  
                      l230 157B                        l145 15D2                        l250 158F  
                      l251 1595                        l139 0CAD                        l252 1596  
                      l253 159C                        l261 1547                        l270 1703  
                      l255 159D                        l247 1585                        l175 03AF  
                      l248 1588                        l249 158E                        l273 160B  
                      l258 1561                        l267 085B                        l710 16A1  
                      l279 1651                        l720 095C                        l545 087A  
                      l553 153A                        l722 0ADC                        l706 0FEB  
                      l810 077A                        l707 0FFF                        l548 08E6  
                      l564 176A                        l804 0735                        l549 08FF  
                      l557 177F                        l742 0AC0                        l670 0E09  
                      l806 07CC                        l567 177F                        l744 0AD0  
                      l736 0A4E                        l760 0710                        l664 0D45  
                      l817 0796                        l818 07A2                        l772 0704  
                      l668 0E3D                        l781 07F5                        l685 0F1F  
                      l677 0FFF                        l766 067C                        l695 0F75  
                      l689 0F4C                        l698 0FBF                        l779 07E3  
                      _GIE 005F                        _RB0 0030                        _RB1 0031  
                      _RB2 0032                        _RB3 0033                        _RB5 0035  
                      _PR2 0092                        _isr 1780                        fsr0 0004  
       floattostr_@cadena_ 00B0                        indf 0000               ___flmul@aexp 003C  
             ___flmul@bexp 003D               ___flmul@sign 0037               ___flmul@temp 0042  
             ___flmul@prod 003E               ?_floattostr_ 00AC         floattostr_@largo_n 00B8  
             ___fltol@exp1 0026                       l2101 07DD                       l2103 07EC  
                     l2111 1571                       l2105 07F1                       l3001 0F93  
                     l2121 1578                       l2113 1572                       l2131 155E  
                     l2123 1549                       l3011 0FD5                       l3003 0F97  
                     l2115 1573                       l2125 154C                       l2141 15F2  
                     l2133 15D4                       l2301 09EF                       l3021 0FF6  
                     l3013 0FDC                       l3005 0FB7                       l3101 074B  
                     l2117 1574                       l2109 1563                       l2127 1552  
                     l2151 1608                       l2143 15F7                       l2135 15DE  
                     l2311 0A11                       l2303 09FD                       l2231 0912  
                     l2223 0900                       l3031 0896                       l3023 0FFC  
                     l3015 0FDD                       l3007 0FC6                       l3111 0781  
                     l3103 0758                       l2119 1575                       l2129 1555  
                     l2145 15FA                       l2137 15E1                       l2313 0A1A  
                     l2321 0A2E                       l2305 0A01                       l2233 0917  
                     l2241 0927                       l2225 0907                       l3041 08FE  
                     l3033 089A                       l3025 085C                       l2401 040A  
                     l3017 0FE1                       l3009 0FCB                       l3121 07BA  
                     l3113 078C                       l3105 075F                       l3201 01A9  
                     l3131 16A2                       l2147 1600                       l2139 15EF  
                     l2323 0A32                       l2315 0A1E                       l2307 0A07  
                     l2251 093F                       l2243 092F                       l2235 091C  
                     l2227 090D                       l3035 08BE                       l3027 0872  
                     l2411 042D                       l2403 040F                       l3019 0FE5  
                     l3051 171A                       l3123 07BF                       l3115 0790  
                     l3107 0763                       l3211 0287                       l3203 01E8  
                     l3133 16A8                       l3141 0807                       l2149 1603  
                     l2341 0A83                       l2333 0A53                       l2325 0A33  
                     l2317 0A1F                       l2309 0A0F                       l2253 0944  
                     l2261 0954                       l2245 0934                       l2237 0924  
                     l2229 0911                       l3037 08C2                       l3029 088E  
                     l2501 0708                       l2421 04BB                       l2413 043A  
                     l2405 0414                       l2173 1530                       l3061 173E  
                     l3053 172F                       l3045 1704                       l3125 07C3  
                     l3117 079A                       l3109 0771                       l3221 02B2  
                     l3213 0297                       l3205 01EE                       l3301 0CA3  
                     l3135 16B2                       l3143 080C                       l3151 0831  
                     l2351 0AB7                       l2335 0A58                       l2343 0A89  
                     l2327 0A37                       l2319 0A28                       l2263 0964  
                     l2271 097D                       l2255 0949                       l2247 093A  
                     l2239 0925                       l3039 08FC                       l2095 07D0  
                     l2431 051D                       l2423 04D7                       l2415 0457  
                     l2175 1538                       l3055 1730                       l3047 1711  
                     l3127 07C4                       l3119 07A4                       l3231 02D0  
                     l3223 02B6                       l3215 029D                       l3207 01FC  
                     l3137 16C2                       l3153 0837                       l3145 081D  
                     l3161 160C                       l2353 0ABF                       l2345 0A96  
                     l2337 0A66                       l2329 0A4B                       l2281 09A5  
                     l2273 0982                       l2265 0970                       l2257 0951  
                     l2249 093E                       l2097 07D2                       l2441 05AD  
                     l2433 053A                       l2425 04E0                       l2417 0473  
                     l2409 041D                       l2177 153A                       l3081 1652  
                     l3057 1738                       l3241 0306                       l3233 02D6  
                     l3225 02BE                       l3217 02A4                       l3209 0260  
                     l3139 16C8                       l3155 0848                       l3147 0822  
                     l3163 1611                       l2355 0AC6                       l2347 0AA4  
                     l2339 0A6A                       l2291 09CE                       l2283 09AD  
                     l2267 0974                       l2259 0952                       l2099 07D9  
                     l2451 063F                       l2443 05DA                       l2435 0553  
                     l2427 04F0                       l2419 049F                       l2371 03C1  
                     l3083 1656                       l3075 175F                       l3067 1746  
                     l3059 173A                       l3091 071D                       l3251 0356  
                     l3243 030A                       l3227 02C3                       l3219 02A8  
                     l3235 02E4                       l3171 002B                       l3157 084D  
                     l3149 0828                       l3165 162D                       l2357 0ACA  
                     l2349 0AB3                       l2293 09D2                       l2285 09B5  
                     l2277 098B                       l2453 0648                       l2461 065C  
                     l2445 0600                       l2437 0570                       l2429 050D  
                     l2381 03D6                       l2373 03C2                       l2365 03B0  
                     l3077 176F                       l3069 1758                       l3093 072D  
                     l3253 0395                       l3245 0314                       l3237 02E9  
                     l3229 02CC                       l3181 0078                       l3173 002D  
                     l3261 0AF4                       l3159 0853                       l3167 1635  
                     l2359 0ACC                       l2295 09D3                       l2287 09B7  
                     l2279 099D                       l2463 0660                       l2455 064C  
                     l2447 0628                       l2439 059D                       l2391 03EE  
                     l2383 03DE                       l2375 03C7                       l2367 03B7  
                     l3079 1774                       l3095 073D                       l3087 0714  
                     l3247 031A                       l3239 02FE                       l3255 039B  
                     l3191 0113                       l3175 0054                       l2551 15A8  
                     l3271 0B10                       l3263 0AFF                       l2609 153B  
                     l2289 09BC                       l2297 09DC                       l2481 06B1  
                     l2473 0681                       l2465 0661                       l2457 064D  
                     l2449 0631                       l2393 03F3                       l2385 03E3  
                     l2377 03CC                       l2369 03BD                       l3089 0719  
                     l3257 03A9                       l3249 031E                       l3193 0152  
                     l3185 00A4                       l3177 005D                       l3169 0022  
                     l2561 15B0                       l2553 15AA                       l3281 0B8A  
                     l3273 0B66                       l3265 0B02                       l2299 09EE  
                     l2491 06E8                       l2475 0686                       l2483 06B7  
                     l2467 0665                       l2459 0656                       l2395 03F8  
                     l2387 03E9                       l2379 03D4                       l3099 0746  
                     l3187 00E3                       l3195 0158                       l3179 0061  
                     l2571 15B7                       l2563 15B1                       l2555 15AD  
                     l3291 0BF1                       l3283 0B95                       l3275 0B68  
                     l3267 0B03                       l3259 0ADD                       l2493 06EA  
                     l2485 06C4                       l2477 0694                       l2469 0679  
                     l2397 0400                       l2389 03ED                       l2901 0DA7  
                     l3197 0181                       l3189 00E9                       l2581 15BE  
                     l2573 15B8                       l2565 15B4                       l2557 15AE  
                     l2549 159E                       l3293 0C1A                       l3285 0BBE  
                     l3269 0B0A                       l3277 0B69                       l2495 06F8  
                     l2487 06CF                       l2479 0698                       l2399 0402  
                     l2911 0DC6                       l2903 0DAF                       l2831 0CC0  
                     l3199 018B                       l2591 15C4                       l2583 15BF  
                     l2575 15B9                       l2567 15B5                       l2559 15AF  
                     l3295 0C45                       l3287 0BE9                       l3279 0B7E  
                     l2497 06FC                       l2489 06DE                       l2921 0E22  
                     l2913 0DE3                       l2905 0DB5                       l2841 0CE3  
                     l2833 0CC9                       l2593 15C6                       l2585 15C0  
                     l2577 15BA                       l2569 15B6                       l3297 0C4F  
                     l3289 0BED                       l1891 157D                       l2499 06FD  
                     l2931 0E46                       l2923 0E25                       l2915 0E0D  
                     l2907 0DBB                       l2851 0D00                       l2843 0CE8  
                     l2835 0CD3                       l2595 15C8                       l2587 15C1  
                     l2579 15BD                       l3299 0C78                       l1893 1581  
                     l2941 0E74                       l2925 0E2F                       l2917 0E1A  
                     l2909 0DC3                       l2861 0D1E                       l2853 0D07  
                     l2845 0CF2                       l2837 0CD9                       l2597 15CC  
                     l2589 15C2                       l1895 158C                       l2951 0E96  
                     l2943 0E81                       l2935 0E51                       l2919 0E1C  
                     l2927 0E35                       l2871 0D39                       l2863 0D21  
                     l2855 0D0D                       l2847 0CF4                       l2839 0CDC  
                     l1897 1593                       l2961 0F00                       l2945 0E83  
                     l2937 0E6A                       l2929 0E41                       l2953 0E9D  
                     l2881 0D61                       l2865 0D28                       l2873 0D3B  
                     l2857 0D0E                       l2849 0CF6                       l1899 159A  
                     l2971 0F3A                       l2955 0EB5                       l2963 0F11  
                     l2947 0E89                       l2939 0E6E                       l2891 0D87  
                     l2883 0D69                       l2875 0D4D                       l2867 0D2D  
                     l2859 0D18                       l2981 0F57                       l2973 0F43  
                     l2965 0F28                       l2957 0EF3                       l2949 0E8C  
                     l2893 0D8D                       l2885 0D71                       l2877 0D51  
                     l2869 0D37                       l2991 0F6A                       l2983 0F5C  
                     l2975 0F49                       l2967 0F2F                       l2959 0EFB  
                     l2895 0D93                       l2887 0D79                       l2879 0D59  
                     l2993 0F70                       l2977 0F52                       l2985 0F5E  
                     l2897 0D9B                       l2889 0D7F                       l2979 0F55  
                     l2987 0F63                       l2899 0DA1                       l2997 0F7C  
                     l2989 0F66                       l2999 0F83                       ?_isr 0070  
                     STR_1 1010                       u3000 040F                       u3001 040E  
                     u3010 0414                       u3011 0413                       u3101 0562  
                     u3021 0465                       u3102 0569                       u3022 046C  
                     u3111 058F                       u3103 0570                       u3031 0481  
                     u3023 0473                       u3112 0596                       u3032 0488  
                     u4000 0E6E                       u3121 05BC                       u3113 059D  
                     u3041 04AD                       u3033 048F                       u4001 0E6D  
                     u3210 0660                       u3130 05E6                       u3122 05C3  
                     u3042 04B4                       u4010 0E74                       u3211 065F  
                     u3123 05CA                       u3051 04C9                       u3043 04BB  
                     u4011 0E73                       u3300 06FC                       u3220 0665  
                     u3052 04D0                       u4020 0E89                       u3301 06FB  
                     u3221 0664                       u3205 064F                       u3141 05F2  
                     u3053 04D7                       u4021 0E88                       u2430 07DD  
                     u3230 0679                       u3150 060E                       u3142 05F9  
                     u4110 0F49                       u2431 07DC                       u3231 0678  
                     u3143 0600                       u3135 05E1                       u3071 04FF  
                     u4111 0F48                       u3240 0680                       u3072 0506  
                     u4200 0FA6                       u4120 0F52                       u4040 0EB5  
                     u3241 067F                       u3161 061A                       u3081 052C  
                     u3073 050D                       u3065 04D9                       u4121 0F51  
                     u4105 0F3C                       u4041 0EB4                       u2450 07F1  
                     u3250 0686                       u3162 0621                       u3082 0533  
                     u4210 0FB7                       u4130 0F5C                       u2451 07F0  
                     u3251 0685                       u3163 0628                       u3155 0609  
                     u3083 053A                       u4211 0FB6                       u4131 0F5B  
                     u4051 0ECC                       u4043 0EB1                       u4035 0E8F  
                     u2700 0949                       u3260 0698                       u2540 1538  
                     u4220 0FC6                       u4140 0F63                       u4060 0EE0  
                     u4052 0ECD                       u2701 0948                       u4301 08A9  
                     u2445 07E4                       u3261 0697                       u2541 1537  
                     u4221 0FC5                       u4205 0FA1                       u4141 0F62  
                     u4061 0EE1                       u4053 0ED2                       u2710 0964  
                     u4310 08C2                       u4302 08AA                       u3270 06A7  
                     u3190 064C                       u4230 0FCB                       u4150 0F6A  
                     u4070 0F00                       u4062 0EE6                       u4054 0ED3  
                     u2711 0963                       u4311 08C1                       u4303 08AF  
                     u3191 064B                       u3175 062A                       u3095 053C  
                     u4231 0FCA                       u4151 0F69                       u4071 0EFF  
                     u4063 0EE7                       u4055 0ED8                       u2800 0A0F  
                     u2720 0982                       u4304 08B0                       u3280 06C4  
                     u4240 0FDC                       u4160 0F70                       u4080 0F28  
                     u4056 0ED9                       u4400 175E                       u2465 15E4  
                     u2801 0A0E                       u2721 0981                       u4321 08D1  
                     u4305 08B5                       u3281 06C3                       u3185 0641  
                     u4241 0FDB                       u4161 0F6F                       u4081 0F27  
                     u4401 175D                       u1930 1581                       u2730 09BC  
                     u2650 0911                       u4330 08FC                       u4322 08D2  
                     u4306 08B6                       u3290 06DE                       u4250 0FE1  
                     u4170 0F7B                       u4090 0F2F                       u1931 1580  
                     u2731 09BB                       u2651 0910                       u4331 08FB  
                     u4323 08D7                       u3291 06DD                       u3275 06A2  
                     u4251 0FE0                       u4171 0F7A                       u4091 0F2E  
                     u1940 158C                       u2900 0A79                       u2820 0A1E  
                     u2660 0917                       u4324 08D8                       u4260 0FFC  
                     u4180 0F83                       u4420 176F                       u4340 1711  
                     u4500 0780                       u1941 158B                       u2821 0A1D  
                     u2661 0916                       u4325 08DD                       u3285 06C0  
                     u4261 0FFB                       u4181 0F82                       u4421 176E  
                     u4341 1710                       u4501 077F                       u1950 1593  
                     u2910 0A96                       u2670 091C                       u4326 08DE  
                     u4270 0872                       u4190 0F97                       u4430 1774  
                     u4350 1728                       _AZUL 00CA                       u1951 1592  
                     u2911 0A95                       u2815 0A13                       u2671 091B  
                     u4335 08F8                       u4271 0871                       u3295 06DA  
                     u4191 0F96                       u4431 1773                       u4415 1761  
                     u1960 159A                       u4600 0837                       u2920 0AB3  
                     u2840 0A32                       u2760 09D2                       u2680 093E  
                     u4280 088E                       u4360 173E                       u4520 0790  
                     u4440 0719                       u1961 1599                       u4601 0836  
                     u2921 0AB2                       u2905 0A74                       u2841 0A31  
                     u2761 09D1                       u2745 09BE                       u2681 093D  
                     u4281 088D                       u4361 173D                       u4521 078F  
                     u4441 0718                       u2930 0ACA                       u2850 0A37  
                     u2690 0944                       u4290 089A                       u3810 0CD9  
                     u4370 1745                       u4530 0796                       u4450 071D  
                     u2931 0AC9                       u2915 0A92                       u2851 0A36  
                     u2835 0A21                       u2755 09C7                       u2691 0943  
                     u4291 0899                       u3811 0CD8                       u4371 1744  
                     u4355 1723                       u4531 0795                       u4515 0785  
                     u4451 071C                       _PEIE 005E                       u4620 161B  
                     u2860 0A4B                       u2780 09EE                       u2940 03C1  
                     u3900 0DE3                       u3820 0CE3                       u4540 079A  
                     u4460 073D                       u4700 0287                       u2925 0AAF  
                     u2861 0A4A                       u2781 09ED                       u2941 03C0  
                     u3901 0DE2                       u3821 0CE2                       u4541 0799  
                     u4461 073C                       u4701 0286                       u4630 163F  
                     u2870 0A52                       u2790 0A07                       u2950 03C7  
                     u3910 0DEE                       u3830 0CE8                       u4390 1757  
                     u4550 07AF                       u4710 029D                       u4615 083F  
                     u2871 0A51                       u2791 0A06                       u2775 09D5  
                     u2951 03C6                       u3911 0DEC                       u3831 0CE7  
                     u4391 1756                       u4711 029C                       u4640 1651  
                     u2880 0A58                       u2960 03CC                       u3920 0DEF  
                     u3840 0D0D                       u4560 07BF                       u4480 075E  
                     u4720 02B6                       u4800 0C1A                       u4641 1650  
                     u2881 0A57                       u2785 09EA                       u2961 03CB  
                     u3905 0DDF                       u3841 0D0C                       u4385 1747  
                     u4561 07BE                       u4481 075D                       u4721 02B5  
                     u4801 0C19                       u2890 0A6A                       u2970 03ED  
                     u3930 0E0D                       u3850 0D1E                       u4570 07C3  
                     u4730 02E4                       u4650 0054                       u4810 0C45  
                     u2891 0A69                       u2971 03EC                       u3931 0E0C  
                     u3851 0D1D                       u4571 07C2                       u4555 07AA  
                     u4475 0750                       u4731 02E3                       u4651 0053  
                     u4811 0C44                       u4580 080C                       u2980 03F3  
                     u3940 0E22                       u3860 0D28                       u4740 0314  
                     u4660 00A3                       u4820 0C78                       u4581 080B  
                     u2981 03F2                       u3941 0E21                       u3861 0D27  
                     u4741 0313                       u4661 00A2                       u4821 0C77  
                     u2990 03F8                       u3870 0D2D                       u4750 03A9  
                     u4670 0112                       u4830 0CA3                       u2991 03F7  
                     u3871 0D2C                       u4495 0772                       u4751 03A8  
                     u4735 02E0                       u4671 0111                       u4831 0CA2  
                     u3960 0E3D                       u3880 0D4D                       u4680 0181  
                     u4760 0B0A                       u3961 0E3C                       u3881 0D4C  
                     u4745 0310                       u4681 0180                       u4761 0B09  
                     u3970 0E41                       u3890 0D51                       u4690 01FC  
                     u4770 0B10                       u4907 1559                       u4595 0814  
                     u3971 0E40                       u3955 0E28                       u3891 0D50  
                     u4755 03A5                       u4691 01FB                       u4771 0B0F  
                     u3980 0E46                       u4780 0BBE                       u3981 0E45  
                     u4781 0BBD                       u4790 0BE9                       u3991 0E5C  
                     u4695 01F8                       u4847 0CB5                       u4791 0BE8  
                     u3992 0E63                       u4857 15F4                       u3993 0E6A  
                     u4867 1605                       u4877 16AE                       u4887 16BE  
                     u4897 16CE                       _POS1 007A                       _POS2 0079  
                     _POS3 0078                       _ROJO 006E          ?_Lcd_Write_String 0020  
       floattostr_@numero_ 00AC                       _main 0ADD                       btemp 007E  
                     start 000C         ??_Lcd_Write_String 0022            ___fldiv@new_exp 0056  
          __end_of_Lcd_Cmd 1562                      ??_isr 0070        floattostr_@cont_for 00BA  
            ___fltol@sign1 0025            __end_of___fladd 1000                      ?_main 0070  
          __end_of___fldiv 0ADD            __end_of___flneg 153B            __end_of___flmul 0711  
          __end_of___flsub 16A2            __end_of___fltol 1780                      _ANSEL 0188  
                    _T1CON 0010                      _T2CON 0012                      _COLOR 00C8  
                    i1l120 17D4                      i1l121 17C8                      i1l124 17F5  
                    i1l116 17F8                      i1l126 17EF                      i1l129 17F9  
                    _TMR1H 000F                      _VERDE 00C9                      _TMR1L 000E  
                    _PORTA 0005                      _PORTB 0006                      _PORTC 0007  
                    _PORTD 0008                      _PORTE 0009    __size_of_Lcd_Set_Cursor 0058  
                    _TRISA 0085                      _TRISB 0086                      _TRISC 0087  
                    _TRISD 0088                      _SSPIE 0463                      _TRISE 0089  
                    _SSPIF 0063                      _frecu 00DF                      _setup 159E  
                    _texto 00CB                      pclath 000A                      status 0003  
                    wtemp0 007E           __end_of_Lcd_Init 1704           __end_of_Lcd_Port 159E  
          __initialization 000F               __end_of_main 0CC0                     ??_main 00BE  
       __size_of_Lcd_Clear 000D                     _CCPR2H 001C                     _CCPR1L 0015  
                   _CCPR2L 001B                     ?_setup 0070                     _ANSELH 0189  
                   _COLORL 00C7                     i1l2731 1787                     i1l2741 1798  
                   i1l2733 1788                     i1l2751 17A7                     i1l2743 1799  
                   i1l2735 1792                     i1l2761 17B8                     i1l2753 17AD  
                   i1l2737 1794                     i1l2745 179A                     i1l2729 1780  
                   i1l2771 17D8                     i1l2763 17BC                     i1l2755 17B0  
                   i1l2747 179E                     i1l2739 1797                     i1l2773 17DC  
                   i1l2765 17C4                     i1l2757 17B1                     i1l2749 17A3  
                   i1l2775 17E4                     i1l2767 17C7                     i1l2759 17B2  
                   i1l2777 17E9                     i1l2769 17CE                     u370_20 17D8  
                   u370_21 17D7                     u371_20 17DC                     u363_20 1787  
                   u371_21 17DB                     u363_21 1786                     u372_20 17F5  
                   u364_20 179E                     u372_21 17F4                     u364_21 179D  
                   u365_20 17A3                     u365_21 17A2                     u366_20 17A7  
                   u366_21 17A6                     u367_20 17B8                     u367_21 17B7  
                   u368_20 17BC                     u368_21 17BB                     u369_20 17CE  
                   u369_21 17CD                     u491_27 17D0                     u492_27 17EC  
                ??_Lcd_Cmd 0074                     _TMR1ON 0080    __size_of_Lcd_Write_Char 0039  
                   _SSPADD 0093                     _TRISC3 043B                     _TRISC4 043C  
                   _SSPBUF 0013                     _SSPCON 0014           __end_of___xxtofl 07CD  
                   ___flge 085C                  ??___fladd 0066                  ??___fldiv 004C  
                ??___flneg 0077       floattostr_@tempo_int 00B2                  ??___flmul 0032  
                ??___flsub 0077                  ??___fltol 0020         __size_of__Umul8_16 0029  
                   saved_w 007E            Lcd_Set_Cursor@a 0022            Lcd_Set_Cursor@b 0077  
          Lcd_Set_Cursor@y 0024            Lcd_Set_Cursor@z 0023                 ___flge@ff1 0020  
               ___flge@ff2 0024               ___xxtofl@arg 0026               ___xxtofl@exp 0025  
             ___xxtofl@val 0073      floattostr_@decimales_ 00B1       __size_of_floattostr_ 038E  
  __end_of__initialization 001E                 ___flneg@f1 0073          __end_of_Lcd_Clear 1548  
               ___fltol@f1 0073             __pcstackCOMMON 0070    __size_of_I2C_Slave_Init 001A  
            __end_of_setup 15D3             _Lcd_Set_Cursor 0804                  ?_Lcd_Init 0070  
                ?_Lcd_Port 0070                    ??_setup 0074      I2C_Slave_Init@address 0073  
               __pbssBANK0 006E                 __pbssBANK1 00C1    floattostr_@largo_entera 00BC  
        __end_of__Umul8_16 07F6                 __pmaintext 0ADD                    ?___flge 0020  
               __pintentry 0004                    _CCP1CON 0017                    _CCP2CON 001D  
__size_of_Lcd_Write_String 0046     __end_of_Lcd_Set_Cursor 085C                  ?___xxtofl 0073  
               ??_Lcd_Init 0020                 ??_Lcd_Port 0073                    _SSPCON2 0091  
                  _SSPSTAT 0094                 __stringtab 1000             _Lcd_Write_Char 15D3  
                  _Lcd_Cmd 1548                 _frecuencia 00C1            __size_of___flge 00A4  
                  ___fladd 0CC0                    ___fldiv 0900                    ___flneg 1530  
                  ___flmul 03B0                    ___flsub 1652                    ___fltol 1704  
          ?_Lcd_Set_Cursor 0077                    __ptext1 159E                    __ptext2 1562  
                  __ptext3 0022                    __ptext4 0711                    __ptext5 1704  
                  __ptext6 1652                    __ptext7 0CC0                    __ptext8 1530  
                  __ptext9 03B0               __size_of_isr 0080                 ??___xxtofl 0020  
                  clrloop0 07F7     __end_of_Lcd_Write_Char 160C       end_of_initialization 001E  
           _I2C_Slave_Init 1562                  Lcd_Port@a 0073                  _PORTBbits 0006  
                _PORTCbits 0007                  _PORTEbits 0009                ___fladd@grs 00A3  
            ___xxtofl@sign 0024                  _TRISCbits 0087                ___fldiv@grs 0058  
              ___fldiv@rem 0051            ?_Lcd_Write_Char 0070          Lcd_Write_String@a 0020  
        Lcd_Write_String@i 0025                ___flmul@grs 0038     __end_of_I2C_Slave_Init 157C  
                _Lcd_Clear 153B             __end_of___flge 0900           _Lcd_Write_String 160C  
      start_initialization 000F                __end_of_isr 1800              ??_floattostr_ 0077  
        __size_of_Lcd_Init 0062          __size_of_Lcd_Port 0022            ?_I2C_Slave_Init 0070  
               ?_Lcd_Clear 0070                   ??___flge 0073                  __Umul8_16 07CD  
          Lcd_Write_Char@a 0077            Lcd_Write_Char@y 0076                  ___fladd@a 0062  
                ___fladd@b 005E                  ___fldiv@a 0044                  ___fldiv@b 0048  
                ___flmul@a 002E                  ___flmul@b 002A                __pbssCOMMON 0078  
                ___flsub@a 00A4                  ___flsub@b 00A8                  ___latbits 0002  
            __pcstackBANK0 0020              __pcstackBANK1 00A0          __size_of___xxtofl 00BC  
                 ?_Lcd_Cmd 0070        __end_of_floattostr_ 03B0           ??_Lcd_Set_Cursor 0020  
                 ?___fladd 005E                   ?___fldiv 0044                   ?___flneg 0073  
                _flag_frec 00C6                   ?___flmul 002A                   ?___flsub 00A4  
                 ?___fltol 0073                 ?__Umul8_16 0073                  __pstrings 1000  
           __size_of_setup 0035          interrupt_function 0004                  clear_ram0 07F6  
                 _PIE2bits 008D                   Lcd_Cmd@a 0076                   _PIR1bits 000C  
                 _PIR2bits 000D                ??_Lcd_Clear 0077                __stringbase 100F  
         ??_Lcd_Write_Char 0074                   _Lcd_Init 16A2                   _Lcd_Port 157C  
              _floattostr_ 0022   __end_of_Lcd_Write_String 1652           __size_of_Lcd_Cmd 001A  
              ??__Umul8_16 0075           __size_of___fladd 0340           __size_of___fldiv 01DD  
         __size_of___flneg 000B           __size_of___flmul 0361           __size_of___flsub 0050  
         __size_of___fltol 007C         __end_of__stringtab 1010     floattostr_@tempo_float 00B4  
                 ___xxtofl 0711                   __ptext10 07CD                   __ptext11 085C  
                 __ptext20 1780                   __ptext12 0900                   __ptext13 160C  
                 __ptext14 15D3                   __ptext15 0804                   __ptext16 16A2  
                 __ptext17 153B                   __ptext18 1548                   __ptext19 157C  
         ??_I2C_Slave_Init 0073              __size_of_main 01E3                 _INTCONbits 000B  
       Lcd_Write_Char@temp 0075                   intlevel1 0000                  stringcode 100A  
               _OSCCONbits 008F         Lcd_Set_Cursor@temp 0025     __Umul8_16@multiplicand 0073  
                 stringdir 100A                   stringtab 1000                _SSPCON2bits 0091  
            ___fladd@signs 00A0               ___fladd@aexp 00A1               ___fladd@bexp 00A2  
     __Umul8_16@multiplier 0024                 _SSPCONbits 0014          __Umul8_16@product 0020  
